
tester_Linux:     file format elf64-x86-64

SYMBOL TABLE:
0000000000000000 l    df *ABS*	0000000000000000              Scrt1.o
0000000000400320 l     O .note.ABI-tag	0000000000000020              __abi_tag
0000000000000000 l    df *ABS*	0000000000000000              test.c
0000000000000000 l    df *ABS*	0000000000000000              test_str.c
0000000000000000 l    df *ABS*	0000000000000000              test_syscall.c
0000000000000000 l    df *ABS*	0000000000000000              test_atoi_base.c
0000000000405130 l     O .data	0000000000000008              g_tclen
0000000000405170 l     O .bss	0000000000800000              g_tc
0000000000405138 l     O .data	0000000000000008              g_max_base_len
0000000000405140 l     O .data	0000000000000008              g_max_str_len
0000000000000000 l    df *ABS*	0000000000000000              ft_atoi_base_ref.c
0000000000000000 l    df *ABS*	0000000000000000              ft_strlen.s
00000000004029a6 l       .text	0000000000000000              loop
0000000000000000 l    df *ABS*	0000000000000000              ft_strcpy.s
00000000004029c3 l       .text	0000000000000000              loop
0000000000000000 l    df *ABS*	0000000000000000              ft_strcmp.s
00000000004029e4 l       .text	0000000000000000              loop
0000000000000000 l    df *ABS*	0000000000000000              ft_strdup.s
0000000000402a27 l       .text	0000000000000000              loop0
0000000000402a42 l       .text	0000000000000000              loop1
0000000000000000 l    df *ABS*	0000000000000000              ft_read.s
0000000000402a85 l       .text	0000000000000000              exit
0000000000000000 l    df *ABS*	0000000000000000              ft_write.s
0000000000402ab5 l       .text	0000000000000000              exit
0000000000000000 l    df *ABS*	0000000000000000              ft_atoi_base.s
0000000000402b0c l       .text	0000000000000000              error
0000000000402b0e l       .text	0000000000000000              ret
0000000000402b14 l       .text	0000000000000000              verify_base
0000000000402b35 l       .text	0000000000000000              verify_base_loop
0000000000402b78 l       .text	0000000000000000              verify_base_false
0000000000402b7b l       .text	0000000000000000              verify_base_ret
0000000000402b84 l       .text	0000000000000000              is_space
0000000000402ba2 l       .text	0000000000000000              decide_sign
0000000000402bac l       .text	0000000000000000              decide_sign_loop0
0000000000402bc1 l       .text	0000000000000000              decide_sign_loop1
0000000000402be5 l       .text	0000000000000000              decide_sign_exit
0000000000402bec l       .text	0000000000000000              calc_sum
0000000000402c03 l       .text	0000000000000000              calc_sum_loop
0000000000402c20 l       .text	0000000000000000              calc_sum_ret
0000000000402c2f l       .text	0000000000000000              get_base_idx
0000000000402c32 l       .text	0000000000000000              get_base_idx_loop
0000000000402c41 l       .text	0000000000000000              get_base_idx_ret
0000000000000000 l    df *ABS*	0000000000000000              
0000000000404e78 l     O .dynamic	0000000000000000              _DYNAMIC
0000000000405000 l     O .got.plt	0000000000000000              _GLOBAL_OFFSET_TABLE_
0000000000402050 g     F .text	0000000000000015              test_atoi_base
0000000000000000       F *UND*	0000000000000000              free@GLIBC_2.2.5
0000000000401220 g     F .text	00000000000000c1              test_strlen
0000000000000000       F *UND*	0000000000000000              __libc_start_main@GLIBC_2.34
00000000004029c0 g       .text	0000000000000000              ft_strcpy
0000000000000000       F *UND*	0000000000000000              __errno_location@GLIBC_2.2.5
0000000000000000       F *UND*	0000000000000000              srandom@GLIBC_2.2.5
00000000004050a0  w      .data	0000000000000000              data_start
0000000000000000       F *UND*	0000000000000000              strcpy@GLIBC_2.2.5
00000000004018f0 g     F .text	000000000000024a              test_read_error
0000000000000000       F *UND*	0000000000000000              write@GLIBC_2.2.5
0000000000402500 g     F .text	0000000000000151              ft_atoi_base_ref
00000000004029a0 g       .text	0000000000000000              ft_strlen
0000000000405148 g       .data	0000000000000000              _edata
0000000000401630 g     F .text	00000000000002b7              test_read_normal
0000000000402930 g     F .text	0000000000000063              ret_check
0000000000000000       F *UND*	0000000000000000              strlen@GLIBC_2.2.5
0000000000402a90 g       .text	0000000000000000              ft_write
0000000000000000       F *UND*	0000000000000000              printf@GLIBC_2.2.5
0000000000000000       F *UND*	0000000000000000              gettimeofday@GLIBC_2.2.5
0000000000402090 g     F .text	0000000000000114              test_atoi_base_random
0000000000000000       F *UND*	0000000000000000              memset@GLIBC_2.2.5
0000000000000000       F *UND*	0000000000000000              close@GLIBC_2.2.5
0000000000000000       F *UND*	0000000000000000              pipe@GLIBC_2.2.5
0000000000000000       F *UND*	0000000000000000              read@GLIBC_2.2.5
00000000004050a0 g       .data	0000000000000000              __data_start
0000000000000000       F *UND*	0000000000000000              strcmp@GLIBC_2.2.5
00000000004012f0 g     F .text	000000000000011a              test_strcpy
00000000004021b0 g     F .text	0000000000000344              generate_testcase
0000000000405150 g     O .bss	0000000000000008              g_long_string_len
0000000000402ac0 g       .text	0000000000000000              ft_atoi_base
0000000000405158 g     O .bss	0000000000000008              g_long_string
0000000000403000 g     O .rodata	0000000000000004              _IO_stdin_used
0000000000402070 g     F .text	0000000000000006              test_atoi_base_whitespace
0000000000000000       F *UND*	0000000000000000              random@GLIBC_2.2.5
0000000000402a20 g       .text	0000000000000000              ft_strdup
0000000000000000       F *UND*	0000000000000000              malloc@GLIBC_2.2.5
0000000000401410 g     F .text	0000000000000106              test_strcmp
0000000000c05170 g       .bss	0000000000000000              _end
0000000000401120 g     F .text	0000000000000026              _start
0000000000402660 g     F .text	0000000000000159              base_validity
0000000000405148 g       .bss	0000000000000000              __bss_start
0000000000401b40 g     F .text	00000000000002b7              test_write_normal
0000000000401150 g     F .text	00000000000000c1              main
00000000004050b0 g     O .data	0000000000000008              g_random_num
00000000004029e0 g       .text	0000000000000000              ft_strcmp
0000000000402a60 g       .text	0000000000000000              ft_read
00000000004027c0 g     F .text	00000000000000a4              strlen_base
00000000004050c0 g     O .data	0000000000000070              g_cases
0000000000401520 g     F .text	000000000000010f              test_strdup
0000000000402870 g     F .text	00000000000000b5              str_decode
0000000000401e00 g     F .text	000000000000024a              test_write_error
0000000000402080 g     F .text	0000000000000006              test_atoi_base_sign
0000000000000000       F *UND*	0000000000000000              strdup@GLIBC_2.2.5
0000000000000000       F *UND*	0000000000000000              strerror@GLIBC_2.2.5
0000000000405160 g     O .bss	0000000000000008              g_ncases


Contents of section .interp:
 4002e0 2f6c6962 36342f6c 642d6c69 6e75782d  /lib64/ld-linux-
 4002f0 7838362d 36342e73 6f2e3200           x86-64.so.2.    
Contents of section .note.gnu.property:
 400300 04000000 10000000 05000000 474e5500  ............GNU.
 400310 028000c0 04000000 01000000 00000000  ................
Contents of section .note.ABI-tag:
 400320 04000000 10000000 01000000 474e5500  ............GNU.
 400330 00000000 03000000 02000000 00000000  ................
Contents of section .hash:
 400340 11000000 13000000 03000000 00000000  ................
 400350 09000000 0b000000 07000000 0f000000  ................
 400360 0e000000 0d000000 00000000 00000000  ................
 400370 10000000 04000000 12000000 0a000000  ................
 400380 00000000 00000000 11000000 00000000  ................
 400390 00000000 00000000 00000000 00000000  ................
 4003a0 01000000 00000000 00000000 06000000  ................
 4003b0 00000000 00000000 00000000 00000000  ................
 4003c0 02000000 00000000 00000000 08000000  ................
 4003d0 0c000000 05000000                    ........        
Contents of section .gnu.hash:
 4003d8 01000000 01000000 01000000 00000000  ................
 4003e8 00000000 00000000 00000000           ............    
Contents of section .dynsym:
 4003f8 00000000 00000000 00000000 00000000  ................
 400408 00000000 00000000 44000000 12000000  ........D.......
 400418 00000000 00000000 00000000 00000000  ................
 400428 01000000 12000000 00000000 00000000  ................
 400438 00000000 00000000 4e000000 12000000  ........N.......
 400448 00000000 00000000 00000000 00000000  ................
 400458 86000000 12000000 00000000 00000000  ................
 400468 00000000 00000000 2f000000 12000000  ......../.......
 400478 00000000 00000000 00000000 00000000  ................
 400488 5f000000 12000000 00000000 00000000  _...............
 400498 00000000 00000000 21000000 12000000  ........!.......
 4004a8 00000000 00000000 00000000 00000000  ................
 4004b8 28000000 12000000 00000000 00000000  (...............
 4004c8 00000000 00000000 79000000 12000000  ........y.......
 4004d8 00000000 00000000 00000000 00000000  ................
 4004e8 1a000000 12000000 00000000 00000000  ................
 4004f8 00000000 00000000 73000000 12000000  ........s.......
 400508 00000000 00000000 00000000 00000000  ................
 400518 49000000 12000000 00000000 00000000  I...............
 400528 00000000 00000000 65000000 12000000  ........e.......
 400538 00000000 00000000 00000000 00000000  ................
 400548 36000000 12000000 00000000 00000000  6...............
 400558 00000000 00000000 87000000 12000000  ................
 400568 00000000 00000000 00000000 00000000  ................
 400578 13000000 12000000 00000000 00000000  ................
 400588 00000000 00000000 3d000000 12000000  ........=.......
 400598 00000000 00000000 00000000 00000000  ................
 4005a8 6a000000 12000000 00000000 00000000  j...............
 4005b8 00000000 00000000                    ........        
Contents of section .dynstr:
 4005c0 005f5f6c 6962635f 73746172 745f6d61  .__libc_start_ma
 4005d0 696e006d 616c6c6f 63006d65 6d736574  in.malloc.memset
 4005e0 00737472 6c656e00 7072696e 74660073  .strlen.printf.s
 4005f0 74726370 79007374 72636d70 00737472  trcpy.strcmp.str
 400600 64757000 66726565 00706970 65005f5f  dup.free.pipe.__
 400610 6572726e 6f5f6c6f 63617469 6f6e0077  errno_location.w
 400620 72697465 00726561 64007374 72657272  rite.read.strerr
 400630 6f720063 6c6f7365 00676574 74696d65  or.close.gettime
 400640 6f666461 79007372 616e646f 6d006c69  ofday.srandom.li
 400650 62632e73 6f2e3600 474c4942 435f322e  bc.so.6.GLIBC_2.
 400660 33340047 4c494243 5f322e32 2e3500    34.GLIBC_2.2.5. 
Contents of section .gnu.version:
 400670 00000200 03000200 02000200 02000200  ................
 400680 02000200 02000200 02000200 02000200  ................
 400690 02000200 0200                        ......          
Contents of section .gnu.version_r:
 400698 01000200 8e000000 10000000 00000000  ................
 4006a8 b4919606 00000300 98000000 10000000  ................
 4006b8 751a6909 00000200 a3000000 00000000  u.i.............
Contents of section .rela.dyn:
 4006c8 f84f4000 00000000 06000000 02000000  .O@.............
 4006d8 00000000 00000000                    ........        
Contents of section .rela.plt:
 4006e0 18504000 00000000 07000000 01000000  .P@.............
 4006f0 00000000 00000000 20504000 00000000  ........ P@.....
 400700 07000000 03000000 00000000 00000000  ................
 400710 28504000 00000000 07000000 04000000  (P@.............
 400720 00000000 00000000 30504000 00000000  ........0P@.....
 400730 07000000 05000000 00000000 00000000  ................
 400740 38504000 00000000 07000000 06000000  8P@.............
 400750 00000000 00000000 40504000 00000000  ........@P@.....
 400760 07000000 07000000 00000000 00000000  ................
 400770 48504000 00000000 07000000 08000000  HP@.............
 400780 00000000 00000000 50504000 00000000  ........PP@.....
 400790 07000000 09000000 00000000 00000000  ................
 4007a0 58504000 00000000 07000000 0a000000  XP@.............
 4007b0 00000000 00000000 60504000 00000000  ........`P@.....
 4007c0 07000000 0b000000 00000000 00000000  ................
 4007d0 68504000 00000000 07000000 0c000000  hP@.............
 4007e0 00000000 00000000 70504000 00000000  ........pP@.....
 4007f0 07000000 0d000000 00000000 00000000  ................
 400800 78504000 00000000 07000000 0e000000  xP@.............
 400810 00000000 00000000 80504000 00000000  .........P@.....
 400820 07000000 0f000000 00000000 00000000  ................
 400830 88504000 00000000 07000000 10000000  .P@.............
 400840 00000000 00000000 90504000 00000000  .........P@.....
 400850 07000000 11000000 00000000 00000000  ................
 400860 98504000 00000000 07000000 12000000  .P@.............
 400870 00000000 00000000                    ........        
Contents of section .plt:
 401000 ff350240 0000ff25 04400000 0f1f4000  .5.@...%.@....@.
 401010 ff250240 00006800 000000e9 e0ffffff  .%.@..h.........
 401020 ff25fa3f 00006801 000000e9 d0ffffff  .%.?..h.........
 401030 ff25f23f 00006802 000000e9 c0ffffff  .%.?..h.........
 401040 ff25ea3f 00006803 000000e9 b0ffffff  .%.?..h.........
 401050 ff25e23f 00006804 000000e9 a0ffffff  .%.?..h.........
 401060 ff25da3f 00006805 000000e9 90ffffff  .%.?..h.........
 401070 ff25d23f 00006806 000000e9 80ffffff  .%.?..h.........
 401080 ff25ca3f 00006807 000000e9 70ffffff  .%.?..h.....p...
 401090 ff25c23f 00006808 000000e9 60ffffff  .%.?..h.....`...
 4010a0 ff25ba3f 00006809 000000e9 50ffffff  .%.?..h.....P...
 4010b0 ff25b23f 0000680a 000000e9 40ffffff  .%.?..h.....@...
 4010c0 ff25aa3f 0000680b 000000e9 30ffffff  .%.?..h.....0...
 4010d0 ff25a23f 0000680c 000000e9 20ffffff  .%.?..h..... ...
 4010e0 ff259a3f 0000680d 000000e9 10ffffff  .%.?..h.........
 4010f0 ff25923f 0000680e 000000e9 00ffffff  .%.?..h.........
 401100 ff258a3f 0000680f 000000e9 f0feffff  .%.?..h.........
 401110 ff25823f 00006810 000000e9 e0feffff  .%.?..h.........
Contents of section .text:
 401120 f30f1efa 31ed4989 d15e4889 e24883e4  ....1.I..^H..H..
 401130 f0505445 31c031c9 48c7c750 114000ff  .PTE1.1.H..P.@..
 401140 15b33e00 00f4662e 0f1f8400 00000000  ..>...f.........
 401150 554889e5 4883ec20 c745fc00 00000089  UH..H.. .E......
 401160 7df84889 75f0488b 3de33f00 004883c7  }.H.u.H.=.?..H..
 401170 02e87aff ffff4889 05db3f00 00488b3d  ..z...H...?..H.=
 401180 d43f0000 488b15c5 3f000048 83c202be  .?..H...?..H....
 401190 61000000 e8f7feff ff488b05 b83f0000  a........H...?..
 4011a0 488b0da9 3f0000c6 44080100 48c705a9  H...?...D...H...
 4011b0 3f00000e 00000048 8b0da23f 00004883  ?......H...?..H.
 4011c0 e901488b 058f3f00 00488945 e8488d05  ..H...?..H.E.H..
 4011d0 ec3e0000 488b55e8 488914c8 e83f0000  .>..H.U.H....?..
 4011e0 00e80a01 0000e825 020000e8 30030000  .......%....0...
 4011f0 e83b0400 00e8f606 0000e841 090000e8  .;.........A....
 401200 fc0b0000 e8470e00 0031c048 83c4205d  .....G...1.H.. ]
 401210 c3662e0f 1f840000 0000000f 1f440000  .f...........D..
 401220 554889e5 4883ec20 c745fc00 000000c7  UH..H.. .E......
 401230 45f80000 00004863 45f848c7 c1605140  E.....HcE.H..`Q@
 401240 00483b01 0f835800 00004863 4df848c7  .H;...X...HcM.H.
 401250 c0c05040 00488b04 c8488945 f0488b7d  ..P@.H...H.E.H.}
 401260 f0e8fafd ffff4889 45e8488b 7df0e82d  ......H.E.H.}..-
 401270 17000048 89c1488b 45e84839 c80f8505  ...H..H.E.H9....
 401280 000000e9 0c000000 c745fc01 000000e9  .........E......
 401290 0e000000 8b45f883 c0018945 f8e994ff  .....E.....E....
 4012a0 ffff837d fc000f84 1a000000 488d3da4  ...}........H.=.
 4012b0 1d000048 8d35a61d 0000b000 e8affdff  ...H.5..........
 4012c0 ffe91500 0000488d 3d9f1d00 00488d35  ......H.=....H.5
 4012d0 8c1d0000 b000e895 fdffff48 83c4205d  ...........H.. ]
 4012e0 c3662e0f 1f840000 0000000f 1f440000  .f...........D..
 4012f0 554889e5 4881ec10 080000c7 85fcf7ff  UH..H...........
 401300 ff000000 00c785f8 f7ffff00 00000048  ...............H
 401310 6385f8f7 ffff48c7 c1605140 00483b01  c.....H..`Q@.H;.
 401320 0f839f00 00004863 8df8f7ff ff48c7c0  ......Hc.....H..
 401330 c0504000 488b04c8 488985f0 f7ffff48  .P@.H...H......H
 401340 8b85f0f7 ffff48c7 c1585140 00483b01  ......H..XQ@.H;.
 401350 0f850500 0000e956 00000048 8dbd00fc  .......V...H....
 401360 ffff488b b5f0f7ff ffe8d2fc ffff488d  ..H...........H.
 401370 bd00f8ff ff488bb5 f0f7ffff e83f1600  .....H.......?..
 401380 00488dbd 00fcffff 488db500 f8ffffe8  .H......H.......
 401390 3cfdffff 83f8000f 85050000 00e90f00  <...............
 4013a0 0000c785 fcf7ffff 01000000 e9140000  ................
 4013b0 008b85f8 f7ffff83 c0018985 f8f7ffff  ................
 4013c0 e94affff ff83bdfc f7ffff00 0f841a00  .J..............
 4013d0 0000488d 3d7e1c00 00488d35 981c0000  ..H.=~...H.5....
 4013e0 b000e889 fcffffe9 15000000 488d3d79  ............H.=y
 4013f0 1c000048 8d357e1c 0000b000 e86ffcff  ...H.5~......o..
 401400 ff4881c4 10080000 5dc3660f 1f440000  .H......].f..D..
 401410 554889e5 4883ec30 c745fc00 000000c7  UH..H..0.E......
 401420 45f80000 00004863 45f848c7 c1605140  E.....HcE.H..`Q@
 401430 00483b01 0f839d00 0000c745 f4000000  .H;........E....
 401440 00486345 f448c7c1 60514000 483b010f  .HcE.H..`Q@.H;..
 401450 836f0000 0048634d f848c7c0 c0504000  .o...HcM.H...P@.
 401460 488b04c8 488945e8 48634df4 48c7c0c0  H...H.E.HcM.H...
 401470 50400048 8b04c848 8945e048 8b7de848  P@.H...H.E.H.}.H
 401480 8b75e0e8 48fcffff 8945dc48 8b7de848  .u..H....E.H.}.H
 401490 8b75e0e8 48150000 89c18b45 dc39c80f  .u..H......E.9..
 4014a0 85050000 00e90c00 0000c745 fc010000  ...........E....
 4014b0 00e90e00 00008b45 f483c001 8945f4e9  .......E.....E..
 4014c0 7dffffff e9000000 008b45f8 83c00189  }.........E.....
 4014d0 45f8e94f ffffff83 7dfc000f 841a0000  E..O....}.......
 4014e0 00488d3d 6f1b0000 488d3595 1b0000b0  .H.=o...H.5.....
 4014f0 00e87afb ffffe915 00000048 8d3d6a1b  ..z........H.=j.
 401500 0000488d 357b1b00 00b000e8 60fbffff  ..H.5{......`...
 401510 4883c430 5dc3662e 0f1f8400 00000000  H..0].f.........
 401520 554889e5 4883ec30 c745fc00 000000c7  UH..H..0.E......
 401530 45f80000 00004863 45f848c7 c1605140  E.....HcE.H..`Q@
 401540 00483b01 0f83a600 00004863 4df848c7  .H;.......HcM.H.
 401550 c0c05040 00488b04 c8488945 f0488b7d  ..P@.H...H.E.H.}
 401560 f0e89afb ffff4889 45e8488b 7df0e8ad  ......H.E.H.}...
 401570 14000048 8945e048 8b7de848 8b75e0e8  ...H.E.H.}.H.u..
 401580 4cfbffff 89c131c0 83f90088 45db0f85  L.....1.....E...
 401590 16000000 488b7de8 488b75e0 e83f1400  ....H.}.H.u..?..
 4015a0 0083f800 0f94c088 45db8a45 db24010f  ........E..E.$..
 4015b0 b6c08945 dc488b7d e8e852fa ffff488b  ...E.H.}..R...H.
 4015c0 7de0e849 faffff83 7ddc000f 84050000  }..I....}.......
 4015d0 00e90c00 0000c745 fc010000 00e90e00  .......E........
 4015e0 00008b45 f883c001 8945f8e9 46ffffff  ...E.....E..F...
 4015f0 837dfc00 0f841a00 0000488d 3d561a00  .}........H.=V..
 401600 00488d35 881a0000 b000e861 faffffe9  .H.5.......a....
 401610 15000000 488d3d51 1a000048 8d356e1a  ....H.=Q...H.5n.
 401620 0000b000 e847faff ff4883c4 305dc390  .....G...H..0]..
 401630 554889e5 4881ec60 08000048 8d7df4e8  UH..H..`...H.}..
 401640 6cfaffff 83f8000f 8d130000 00488d3d  l............H.=
 401650 481a0000 b000e815 faffffe9 7e020000  H...........~...
 401660 488d45f4 488985e8 f7ffffc7 85e4f7ff  H.E.H...........
 401670 ff000000 00486385 e4f7ffff 48c7c160  .....Hc.....H..`
 401680 51400048 3b010f83 fc010000 48638de4  Q@.H;.......Hc..
 401690 f7ffff48 c7c0c050 4000488b 04c84889  ...H...P@.H...H.
 4016a0 85d8f7ff ff488b85 d8f7ffff 48c7c158  .....H......H..X
 4016b0 51400048 3b010f85 05000000 e9b30100  Q@.H;...........
 4016c0 00488bbd d8f7ffff e893f9ff ff488985  .H...........H..
 4016d0 d0f7ffff 488dbdf0 fbffff31 f6ba0004  ....H......1....
 4016e0 0000e8a9 f9ffff48 8dbdf0f7 ffff31f6  .......H......1.
 4016f0 ba000400 00e896f9 ffffe821 f9ffffc7  ...........!....
 401700 00000000 00488b85 e8f7ffff 8b780448  .....H.......x.H
 401710 8bb5d8f7 ffff488b 95d0f7ff ffe82ef9  ......H.........
 401720 ffff488b 85e8f7ff ff8b3848 8db5f0fb  ..H.......8H....
 401730 ffff488b 95d0f7ff ffe882f9 ffff4889  ..H...........H.
 401740 85c8f7ff ffe8d6f8 ffff8b00 8985bcf7  ................
 401750 ffffe8c9 f8ffffc7 00000000 00488b85  .............H..
 401760 e8f7ffff 8b780448 8bb5d8f7 ffff488b  .....x.H......H.
 401770 95d0f7ff ffe8d6f8 ffff488b 85e8f7ff  ..........H.....
 401780 ff8b3848 8db5f0f7 ffff488b 95d0f7ff  ..8H......H.....
 401790 ffe8ca12 00004889 85c0f7ff ffe87ef8  ......H.......~.
 4017a0 ffff8b00 8985b8f7 ffff488d bdf0fbff  ..........H.....
 4017b0 ff488db5 f0f7ffff e813f9ff ff83f800  .H..............
 4017c0 0f852b00 00008b85 bcf7ffff 3b85b8f7  ..+.........;...
 4017d0 ffff0f85 19000000 488b85c8 f7ffff48  ........H......H
 4017e0 3b85c0f7 ffff0f85 05000000 e9830000  ;...............
 4017f0 008bb5e4 f7ffff83 c601488d 3da81800  ..........H.=...
 401800 00b000e8 68f8ffff 8bbdbcf7 ffffe8fd  ....h...........
 401810 f8ffff48 8985a8f7 ffff8b85 bcf7ffff  ...H............
 401820 8985b4f7 ffff8bbd b8f7ffff e8dff8ff  ................
 401830 ff488bb5 a8f7ffff 8b95b4f7 ffff4889  .H............H.
 401840 c1448b85 b8f7ffff 4c8b8dc8 f7ffff48  .D......L......H
 401850 8b85c0f7 ffff488d 3d511800 00488904  ......H.=Q...H..
 401860 24b000e8 08f8ffff c745fc01 000000e9  $........E......
 401870 14000000 8b85e4f7 ffff83c0 018985e4  ................
 401880 f7ffffe9 edfdffff 488b85e8 f7ffff8b  ........H.......
 401890 7804e809 f8ffff48 8b85e8f7 ffff8b38  x......H.......8
 4018a0 e8fbf7ff ff837dfc 000f841a 00000048  ......}........H
 4018b0 8d3da117 0000488d 351a1800 00b000e8  .=....H.5.......
 4018c0 acf7ffff e9150000 00488d3d 9c170000  .........H.=....
 4018d0 488d3500 180000b0 00e892f7 ffff4881  H.5...........H.
 4018e0 c4600800 005dc366 0f1f8400 00000000  .`...].f........
 4018f0 554889e5 4881ec90 00000048 8b051e18  UH..H......H....
 401900 00004889 45e0488b 051b1800 00488945  ..H.E.H......H.E
 401910 e88b0519 18000089 45f0c745 dc050000  ........E..E....
 401920 00488d7d d431f6ba 08000000 e85ff7ff  .H.}.1......._..
 401930 ffc745d0 00000000 8b45d03b 45dc0f8d  ..E......E.;E...
 401940 ed000000 e8d7f6ff ffc70000 00000048  ...............H
 401950 6345d08b 7c85e048 8d75d4ba 07000000  cE..|..H.u......
 401960 e85bf7ff ff488945 c0e8b2f6 ffff8b00  .[...H.E........
 401970 8945cce8 a8f6ffff c7000000 00004863  .E............Hc
 401980 45d08b7c 85e0488d 75d4ba07 000000e8  E..|..H.u.......
 401990 cc100000 488945b8 e883f6ff ff8b0089  ....H.E.........
 4019a0 45c88b45 cc3b45c8 0f851300 0000488b  E..E.;E.......H.
 4019b0 45c0483b 45b80f85 05000000 e9620000  E.H;E........b..
 4019c0 008b75d0 83c60148 8d3ddb16 0000b000  ..u....H.=......
 4019d0 e89bf6ff ff8b7dcc e833f7ff ff488945  ......}..3...H.E
 4019e0 908b45cc 89459c8b 7dc8e821 f7ffff48  ..E..E..}..!...H
 4019f0 8b75908b 559c4889 c1448b45 c84c8b4d  .u..U.H..D.E.L.M
 401a00 c0488b45 b8488d3d a2160000 48890424  .H.E.H.=....H..$
 401a10 b000e859 f6ffffc7 45fc0100 0000e90e  ...Y....E.......
 401a20 0000008b 45d083c0 018945d0 e907ffff  ....E.....E.....
 401a30 ffe8eaf5 ffffc700 00000000 488d75d4  ............H.u.
 401a40 31ff48c7 c2ffffff ffe872f6 ffff4889  1.H.......r...H.
 401a50 45a8e8c9 f5ffff8b 008945b4 e8bff5ff  E.........E.....
 401a60 ffc70000 00000048 8d75d431 ff48c7c2  .......H.u.1.H..
 401a70 ffffffff e8e70f00 00488945 a0e89ef5  .........H.E....
 401a80 ffff8b00 8945b08b 45b43b45 b00f850e  .....E..E.;E....
 401a90 00000048 8b45a848 3b45a00f 84570000  ...H.E.H;E...W..
 401aa0 00488d3d 40160000 b000e8c1 f5ffff8b  .H.=@...........
 401ab0 7db4e859 f6ffff48 8945808b 45b48945  }..Y...H.E..E..E
 401ac0 8c8b7db0 e847f6ff ff488b75 808b558c  ..}..G...H.u..U.
 401ad0 4889c144 8b45b04c 8b4da848 8b45a048  H..D.E.L.M.H.E.H
 401ae0 8d3dc815 00004889 0424b000 e87ff5ff  .=....H..$......
 401af0 ffc745fc 01000000 837dfc00 0f841a00  ..E......}......
 401b00 0000488d 3d4e1500 00488d35 dc150000  ..H.=N...H.5....
 401b10 b000e859 f5ffffe9 15000000 488d3d49  ...Y........H.=I
 401b20 15000048 8d35c215 0000b000 e83ff5ff  ...H.5.......?..
 401b30 ff4881c4 90000000 5dc3660f 1f440000  .H......].f..D..
 401b40 554889e5 4881ec60 08000048 8d7df4e8  UH..H..`...H.}..
 401b50 5cf5ffff 83f8000f 8d130000 00488d3d  \............H.=
 401b60 38150000 b000e805 f5ffffe9 7e020000  8...........~...
 401b70 488d45f4 488985e8 f7ffffc7 85e4f7ff  H.E.H...........
 401b80 ff000000 00486385 e4f7ffff 48c7c160  .....Hc.....H..`
 401b90 51400048 3b010f83 fc010000 48638de4  Q@.H;.......Hc..
 401ba0 f7ffff48 c7c0c050 4000488b 04c84889  ...H...P@.H...H.
 401bb0 85d8f7ff ff488b85 d8f7ffff 48c7c158  .....H......H..X
 401bc0 51400048 3b010f85 05000000 e9b30100  Q@.H;...........
 401bd0 00488bbd d8f7ffff e883f4ff ff488985  .H...........H..
 401be0 d0f7ffff 488dbdf0 fbffff31 f6ba0004  ....H......1....
 401bf0 0000e899 f4ffff48 8dbdf0f7 ffff31f6  .......H......1.
 401c00 ba000400 00e886f4 ffffe811 f4ffffc7  ................
 401c10 00000000 00488b85 e8f7ffff 8b780448  .....H.......x.H
 401c20 8bb5d8f7 ffff488b 95d0f7ff ffe81ef4  ......H.........
 401c30 ffff4889 85c8f7ff ffe8e2f3 ffff8b00  ..H.............
 401c40 8985bcf7 ffff488b 85e8f7ff ff8b3848  ......H.......8H
 401c50 8db5f0fb ffff488b 95d0f7ff ffe85ef4  ......H.......^.
 401c60 ffffe8b9 f3ffffc7 00000000 00488b85  .............H..
 401c70 e8f7ffff 8b780448 8bb5d8f7 ffff488b  .....x.H......H.
 401c80 95d0f7ff ffe8060e 00004889 85c0f7ff  ..........H.....
 401c90 ffe88af3 ffff8b00 8985b8f7 ffff488b  ..............H.
 401ca0 85e8f7ff ff8b3848 8db5f0f7 ffff488b  ......8H......H.
 401cb0 95d0f7ff ffe806f4 ffff488d bdf0fbff  ..........H.....
 401cc0 ff488db5 f0f7ffff e803f4ff ff83f800  .H..............
 401cd0 0f852b00 00008b85 bcf7ffff 3b85b8f7  ..+.........;...
 401ce0 ffff0f85 19000000 488b85c8 f7ffff48  ........H......H
 401cf0 3b85c0f7 ffff0f85 05000000 e9830000  ;...............
 401d00 008bb5e4 f7ffff83 c601488d 3d981300  ..........H.=...
 401d10 00b000e8 58f3ffff 8bbdbcf7 ffffe8ed  ....X...........
 401d20 f3ffff48 8985a8f7 ffff8b85 bcf7ffff  ...H............
 401d30 8985b4f7 ffff8bbd b8f7ffff e8cff3ff  ................
 401d40 ff488bb5 a8f7ffff 8b95b4f7 ffff4889  .H............H.
 401d50 c1448b85 b8f7ffff 4c8b8dc8 f7ffff48  .D......L......H
 401d60 8b85c0f7 ffff488d 3d411300 00488904  ......H.=A...H..
 401d70 24b000e8 f8f2ffff c745fc01 000000e9  $........E......
 401d80 14000000 8b85e4f7 ffff83c0 018985e4  ................
 401d90 f7ffffe9 edfdffff 488b85e8 f7ffff8b  ........H.......
 401da0 7804e8f9 f2ffff48 8b85e8f7 ffff8b38  x......H.......8
 401db0 e8ebf2ff ff837dfc 000f841a 00000048  ......}........H
 401dc0 8d3d9112 0000488d 352f1300 00b000e8  .=....H.5/......
 401dd0 9cf2ffff e9150000 00488d3d 8c120000  .........H.=....
 401de0 488d3515 130000b0 00e882f2 ffff4881  H.5...........H.
 401df0 c4600800 005dc366 0f1f8400 00000000  .`...].f........
 401e00 554889e5 4881ec90 00000048 8b052e13  UH..H......H....
 401e10 00004889 45e0488b 052b1300 00488945  ..H.E.H..+...H.E
 401e20 e88b0529 13000089 45f0c745 dc050000  ...)....E..E....
 401e30 00488d7d d431f6ba 08000000 e84ff2ff  .H.}.1.......O..
 401e40 ffc745d0 00000000 8b45d03b 45dc0f8d  ..E......E.;E...
 401e50 ed000000 e8c7f1ff ffc70000 00000048  ...............H
 401e60 6345d08b 7c85e048 8d75d4ba 07000000  cE..|..H.u......
 401e70 e8dbf1ff ff488945 c0e8a2f1 ffff8b00  .....H.E........
 401e80 8945cce8 98f1ffff c7000000 00004863  .E............Hc
 401e90 45d08b7c 85e0488d 75d4ba07 000000e8  E..|..H.u.......
 401ea0 ec0b0000 488945b8 e873f1ff ff8b0089  ....H.E..s......
 401eb0 45c88b45 cc3b45c8 0f851300 0000488b  E..E.;E.......H.
 401ec0 45c0483b 45b80f85 05000000 e9620000  E.H;E........b..
 401ed0 008b75d0 83c60148 8d3dcb11 0000b000  ..u....H.=......
 401ee0 e88bf1ff ff8b7dcc e823f2ff ff488945  ......}..#...H.E
 401ef0 908b45cc 89459c8b 7dc8e811 f2ffff48  ..E..E..}......H
 401f00 8b75908b 559c4889 c1448b45 c84c8b4d  .u..U.H..D.E.L.M
 401f10 c0488b45 b8488d3d 92110000 48890424  .H.E.H.=....H..$
 401f20 b000e849 f1ffffc7 45fc0100 0000e90e  ...I....E.......
 401f30 0000008b 45d083c0 018945d0 e907ffff  ....E.....E.....
 401f40 ffe8daf0 ffffc700 00000000 488d75d4  ............H.u.
 401f50 31ff48c7 c2ffffff ffe8f2f0 ffff4889  1.H...........H.
 401f60 45a8e8b9 f0ffff8b 008945b4 e8aff0ff  E.........E.....
 401f70 ffc70000 00000048 8d75d431 ff48c7c2  .......H.u.1.H..
 401f80 ffffffff e8070b00 00488945 a0e88ef0  .........H.E....
 401f90 ffff8b00 8945b08b 45b43b45 b00f850e  .....E..E.;E....
 401fa0 00000048 8b45a848 3b45a00f 84570000  ...H.E.H;E...W..
 401fb0 00488d3d 30110000 b000e8b1 f0ffff8b  .H.=0...........
 401fc0 7db4e849 f1ffff48 8945808b 45b48945  }..I...H.E..E..E
 401fd0 8c8b7db0 e837f1ff ff488b75 808b558c  ..}..7...H.u..U.
 401fe0 4889c144 8b45b04c 8b4da848 8b45a048  H..D.E.L.M.H.E.H
 401ff0 8d3db810 00004889 0424b000 e86ff0ff  .=....H..$...o..
 402000 ffc745fc 01000000 837dfc00 0f841a00  ..E......}......
 402010 0000488d 3d3e1000 00488d35 ee100000  ..H.=>...H.5....
 402020 b000e849 f0ffffe9 15000000 488d3d39  ...I........H.=9
 402030 10000048 8d35d410 0000b000 e82ff0ff  ...H.5......./..
 402040 ff4881c4 90000000 5dc3660f 1f440000  .H......].f..D..
 402050 554889e5 e8170000 00e82200 0000e82d  UH........"....-
 402060 0000005d c3662e0f 1f840000 00000090  ...].f..........
 402070 554889e5 5dc3662e 0f1f8400 00000000  UH..].f.........
 402080 554889e5 5dc3662e 0f1f8400 00000000  UH..].f.........
 402090 554889e5 4883ec30 c645ff00 e80f0100  UH..H..0.E......
 4020a0 00c745f8 00000000 486345f8 483b057d  ..E.....HcE.H;.}
 4020b0 3000000f 83ac0000 0048634d f8488d05  0........HcM.H..
 4020c0 ac300000 48c1e107 4801c848 83c06548  .0..H...H..H..eH
 4020d0 8945f048 634df848 8d059230 000048c1  .E.HcM.H...0..H.
 4020e0 e1074801 c8488945 e848634d f8488d05  ..H..H.E.HcM.H..
 4020f0 7c300000 48c1e107 4801c88b 407c8945  |0..H...H...@|.E
 402100 e4488b7d e8488b75 f0e8b209 00008945  .H.}.H.u.......E
 402110 e0488b7d e8488b75 f0e8e203 00008945  .H.}.H.u.......E
 402120 dc8b45e0 3b45e40f 84250000 00488b75  ..E.;E...%...H.u
 402130 f0488b55 e88b4de4 448b45e0 448b4ddc  .H.U..M.D.E.D.M.
 402140 488d3d0d 100000b0 00e822ef ffffc645  H.=......."....E
 402150 ff01e900 0000008b 45f883c0 018945f8  ........E.....E.
 402160 e943ffff ff807dff 000f841a 00000048  .C....}........H
 402170 8d3de10e 0000488d 35021000 00b000e8  .=....H.5.......
 402180 eceeffff e9150000 00488d3d dc0e0000  .........H.=....
 402190 488d35e8 0f0000b0 00e8d2ee ffff4883  H.5...........H.
 4021a0 c4305dc3 662e0f1f 84000000 00006690  .0].f.........f.
 4021b0 554889e5 4881ece0 00000048 8d7df031  UH..H......H.}.1
 4021c0 c089c6e8 b8eeffff 488b45f0 89c7e85d  ........H.E....]
 4021d0 eeffffc7 45ec0000 00004863 45ec483b  ....E.....HcE.H;
 4021e0 054b2f00 000f8300 030000c7 45e80000  .K/.........E...
 4021f0 0000488d bd60ffff ff31f6ba 80000000  ..H..`...1......
 402200 e88beeff ff48833d 2b2f0000 020f8511  .....H.=+/......
 402210 000000b8 02000000 48898538 ffffffe9  ........H..8....
 402220 23000000 e8b7eeff ff488b0d 082f0000  #........H.../..
 402230 4883e902 31d248f7 f14889d0 4883c002  H...1.H..H..H...
 402240 48898538 ffffff48 8b8538ff ffff8985  H..8...H..8.....
 402250 5cffffff 48833de4 2e000001 0f851100  \...H.=.........
 402260 0000b801 00000048 898530ff ffffe923  .......H..0....#
 402270 000000e8 68eeffff 488b0dc1 2e000048  ....h...H......H
 402280 83e90131 d248f7f1 4889d048 83c00148  ...1.H..H..H...H
 402290 898530ff ffff488b 8530ffff ff898558  ..0...H..0.....X
 4022a0 ffffffc7 8554ffff ff000000 008b8554  .....T.........T
 4022b0 ffffff3b 855cffff ff0f8dd0 000000e9  ...;.\..........
 4022c0 00000000 e817eeff ffb95e00 00004899  ..........^...H.
 4022d0 48f7f948 83c22188 d0888553 ffffff0f  H..H..!....S....
 4022e0 bec8b001 83f92b88 852fffff ff0f8434  ......+../.....4
 4022f0 0000000f be8d53ff ffffb001 83f92d88  ......S.......-.
 402300 852fffff ff0f841c 00000048 0fbe8553  ./.........H...S
 402310 ffffff0f b6840560 ffffff83 f8000f95  .......`........
 402320 c088852f ffffff8a 852fffff ffa8010f  .../...../......
 402330 85050000 00e90500 0000e985 ffffff48  ...............H
 402340 0fbe8553 ffffff8a 8c0560ff ffff80c1  ...S......`.....
 402350 01888c05 60ffffff 8a9553ff ffff4863  ....`.....S...Hc
 402360 4dec488d 05072e00 0048c1e1 074801c8  M.H......H...H..
 402370 48638d54 ffffff88 5408658b 8554ffff  Hc.T....T.e..T..
 402380 ff83c001 898554ff ffffe91e ffffff48  ......T........H
 402390 634dec48 8d05d62d 000048c1 e1074801  cM.H...-..H...H.
 4023a0 c848638d 5cffffff c6440865 00c7854c  .Hc.\....D.e...L
 4023b0 ffffff01 0000008b 854cffff ff3b8558  .........L...;.X
 4023c0 ffffff0f 8d7b0000 00e812ed ffff4863  .....{........Hc
 4023d0 8d5cffff ff489948 f7f989d0 898548ff  .\...H.H......H.
 4023e0 ffff4863 4dec488d 05832d00 0048c1e1  ..HcM.H...-..H..
 4023f0 074801c8 48638d48 ffffff8a 54086548  .H..Hc.H....T.eH
 402400 634dec48 8d05662d 000048c1 e1074801  cM.H..f-..H...H.
 402410 c848638d 4cffffff 8814088b 8548ffff  .Hc.L........H..
 402420 ff8b4de8 0faf8d5c ffffff01 c88945e8  ..M....\......E.
 402430 8b854cff ffff83c0 0189854c ffffffe9  ..L........L....
 402440 73ffffff 48634dec 488d0521 2d000048  s...HcM.H..!-..H
 402450 c1e10748 01c84863 8d58ffff ffc60408  ...H..Hc.X......
 402460 00e87aec ffff4883 e0018985 44ffffff  ..z...H.....D...
 402470 8b9544ff ffffb82b 000000b9 2d000000  ..D....+....-...
 402480 83fa000f 45c188c1 486355ec 488d05dd  ....E...HcU.H...
 402490 2c000048 c1e20748 01d08808 83bd44ff  ,..H...H......D.
 4024a0 ffff000f 84100000 0031c02b 45e88985  .........1.+E...
 4024b0 28ffffff e9090000 008b45e8 898528ff  (.........E...(.
 4024c0 ffff8b8d 28ffffff 486355ec 488d059d  ....(...HcU.H...
 4024d0 2c000048 c1e20748 01d08948 7c8b45ec  ,..H...H...H|.E.
 4024e0 83c00189 45ece9ef fcffff48 81c4e000  ....E......H....
 4024f0 00005dc3 662e0f1f 84000000 00006690  ..].f.........f.
 402500 554889e5 4883ec30 48897df0 488975e8  UH..H..0H.}.H.u.
 402510 488b7de8 e8470100 008945e4 837de401  H.}..G....E..}..
 402520 0f850c00 0000c745 fc000000 00e91601  .......E........
 402530 0000e900 00000048 8b45f00f be0083f8  .......H.E......
 402540 090f8c15 00000048 8b45f00f be08b001  .......H.E......
 402550 83f90d88 45d70f8e 10000000 488b45f0  ....E.......H.E.
 402560 0fbe0083 f8200f94 c08845d7 8a45d7a8  ..... ....E..E..
 402570 010f8505 000000e9 11000000 488b45f0  ............H.E.
 402580 4883c001 488945f0 e9aaffff ffc745dc  H...H.E.......E.
 402590 00000000 488b45f0 0fbe08b0 0183f92d  ....H.E........-
 4025a0 8845d60f 84100000 00488b45 f00fbe00  .E.......H.E....
 4025b0 83f82b0f 94c08845 d68a45d6 a8010f85  ..+....E..E.....
 4025c0 05000000 e9290000 00488b45 f00fbe00  .....)...H.E....
 4025d0 83f82d0f 94c02401 0fb6c003 45dc8945  ..-...$.....E..E
 4025e0 dc488b45 f04883c0 01488945 f0e9a2ff  .H.E.H...H.E....
 4025f0 ffff488b 7df0488b 75e8e8c1 01000089  ..H.}.H.u.......
 402600 45e0837d e0000f85 0c000000 c745fc00  E..}.........E..
 402610 000000e9 30000000 488b7df0 486345e0  ....0...H.}.HcE.
 402620 4801c748 83c7ff48 8b75e88b 55e48b4d  H..H...H.u..U..M
 402630 e0e83a02 00008945 d88b75dc 488d7dd8  ..:....E..u.H.}.
 402640 e8eb0200 008945fc 8b45fc48 83c4305d  ......E..E.H..0]
 402650 c3662e0f 1f840000 0000000f 1f440000  .f...........D..
 402660 554889e5 48897df0 c7458c00 00000083  UH..H.}..E......
 402670 7d8c600f 8d170000 008b458c 89c183c1  }.`.......E.....
 402680 01894d8c 4898c644 059000e9 dfffffff  ..M.H..D........
 402690 c7458c00 00000048 8b45f00f be0083f8  .E.....H.E......
 4026a0 000f84f1 00000048 8b45f00f be0083e8  .......H.E......
 4026b0 20489880 7c059000 0f840c00 0000c745   H..|..........E
 4026c0 fc010000 00e9ea00 0000488b 45f00fbe  ..........H.E...
 4026d0 0083f82b 0f841000 0000488b 45f00fbe  ...+......H.E...
 4026e0 0083f82d 0f850c00 0000c745 fc010000  ...-.......E....
 4026f0 00e9be00 0000488b 45f00fbe 0083f820  ......H.E...... 
 402700 0f842000 0000488b 45f00fbe 0083f809  .. ...H.E.......
 402710 0f8c1c00 0000488b 45f00fbe 0083f80d  ......H.E.......
 402720 0f8f0c00 0000c745 fc010000 00e98200  .......E........
 402730 0000488b 45f00fbe 0083f820 0f8c1000  ..H.E...... ....
 402740 0000488b 45f00fbe 0083f87f 0f850c00  ..H.E...........
 402750 0000c745 fc010000 00e95600 0000e900  ...E......V.....
 402760 000000e9 00000000 e9000000 00488b45  .............H.E
 402770 f00fbe00 83e82048 98c64405 9001488b  ...... H..D...H.
 402780 45f04883 c0014889 45f08b45 8c83c001  E.H...H.E..E....
 402790 89458ce9 fffeffff 837d8c02 0f8d0c00  .E.......}......
 4027a0 0000c745 fc010000 00e90600 00008b45  ...E...........E
 4027b0 8c8945fc 8b45fc5d c30f1f80 00000000  ..E..E.]........
 4027c0 554889e5 48897df8 488975f0 c745ec00  UH..H.}.H.u..E..
 4027d0 00000048 8b45f80f be0083f8 000f847c  ...H.E.........|
 4027e0 000000c7 45e40000 0000c745 e8000000  ....E......E....
 4027f0 00488b45 f048634d e40fbe04 0883f800  .H.E.HcM........
 402800 0f843000 0000488b 45f04863 4de40fbe  ..0...H.E.HcM...
 402810 0408488b 4df80fbe 0939c80f 85070000  ..H.M....9......
 402820 00c745e8 01000000 8b45e483 c0018945  ..E......E.....E
 402830 e4e9bbff ffff837d e8000f85 05000000  .......}........
 402840 e91a0000 008b45ec 83c00189 45ec488b  ......E.....E.H.
 402850 45f84883 c0014889 45f8e974 ffffff8b  E.H...H.E..t....
 402860 45ec5dc3 662e0f1f 84000000 00006690  E.].f.........f.
 402870 554889e5 4883ec30 48897df0 488975e8  UH..H..0H.}.H.u.
 402880 8955e489 4de0837d e0000f85 0c000000  .U..M..}........
 402890 c745fc00 000000e9 80000000 c745dc00  .E...........E..
 4028a0 00000048 8b45e848 634ddc0f be040883  ...H.E.HcM......
 4028b0 f8000f84 2e000000 488b45e8 48634ddc  ........H.E.HcM.
 4028c0 0fbe0408 488b4df0 0fbe0939 c80f8505  ....H.M....9....
 4028d0 000000e9 0e000000 8b45dc83 c0018945  .........E.....E
 4028e0 dce9bdff ffff8b45 dc8945d8 8b45e489  .......E..E..E..
 4028f0 45d4488b 7df04883 c7ff488b 75e88b55  E.H.}.H...H.u..U
 402900 e48b4de0 83e901e8 64ffffff 8b4dd489  ..M.....d....M..
 402910 c28b45d8 0fafca01 c88945fc 8b45fc48  ..E.......E..E.H
 402920 83c4305d c3662e0f 1f840000 00000090  ..0].f..........
 402930 554889e5 48897df0 8975ec48 8b45f048  UH..H.}..u.H.E.H
 402940 6300483d 00000080 0f850c00 0000c745  c.H=...........E
 402950 fc000000 80e93400 00008b45 ecb90200  ......4....E....
 402960 000099f7 f983fa01 0f851200 0000488b  ..............H.
 402970 45f06900 ffffffff 8945fce9 0e000000  E.i......E......
 402980 e9000000 00488b45 f08b0089 45fc8b45  .....H.E....E..E
 402990 fc5dc366 2e0f1f84 00000000 000f1f00  .].f............
 4029a0 4889f848 ffc848ff c0408a30 4080fe00  H..H..H..@.0@...
 4029b0 75f44829 f8c3662e 0f1f8400 00000000  u.H)..f.........
 4029c0 4889f88a 16881748 ffc748ff c680fa00  H......H..H.....
 4029d0 75f1c366 2e0f1f84 00000000 000f1f00  u..f............
 4029e0 31d231c9 8a178a0e 48ffc748 ffc680fa  1.1.....H..H....
 4029f0 000f94c0 80f90041 0f94c044 08c038ca  .......A...D..8.
 402a00 410f95c0 4408c03c 0074d931 c029ca89  A...D..<.t.1.)..
 402a10 d0c3662e 0f1f8400 00000000 0f1f4000  ..f...........@.
 402a20 41544155 4989fc8a 1f48ffc7 80fb0075  ATAUI....H.....u
 402a30 f64989fd 4c29e7e8 b4e6ffff 4889c748  .I..L)......H..H
 402a40 31f6418a 34244088 3749ffc4 48ffc74d  1.A.4$@.7I..H..M
 402a50 39e575ee c6070041 5d415cc3 0f1f4000  9.u....A]A\...@.
 402a60 554889e5 b8000000 000f0548 83f8007d  UH.........H...}
 402a70 1448f7d8 50e8a6e5 ffff5f48 893848c7  .H..P....._H.8H.
 402a80 c0ffffff ff5dc366 0f1f8400 00000000  .....].f........
 402a90 554889e5 b8010000 000f0548 83f8007d  UH.........H...}
 402aa0 1448f7d8 50e876e5 ffff5f48 893848c7  .H..P.v..._H.8H.
 402ab0 c0ffffff ff5dc366 0f1f8400 00000000  .....].f........
 402ac0 55534889 e54883ec 18488974 24084889  USH..H...H.t$.H.
 402ad0 3c244889 f7e83a00 00004883 f801762c  <$H...:...H...v,
 402ae0 4889c348 89e7e8b7 00000088 44241048  H..H........D$.H
 402af0 8b3c2448 8b742408 4889dae8 ec000000  .<$H.t$.H.......
 402b00 807c2410 00740748 f7d8eb02 31c04889  .|$..t.H....1.H.
 402b10 ec5b5dc3 55534889 e54889fa 4831db48  .[].USH..H..H1.H
 402b20 81ec0004 00004831 c0b98000 0000488d  ......H1......H.
 402b30 3c24f348 ab480fb6 3a4080ff 00743ce8  <$.H.H..:@...t<.
 402b40 40000000 3c000f94 c0488b34 fc4883fe  @...<....H.4.H..
 402b50 000f94c1 20c84080 ff2d0f95 c120c840  .... .@..-... .@
 402b60 80ff2b0f 95c120c8 3c00740c 48ff04fc  ..+... .<.t.H...
 402b70 48ffc248 ffc3ebbd 4831db48 89d84889  H..H....H1.H..H.
 402b80 ec5b5dc3 4080ff09 0f9dc040 80ff0d40  .[].@......@...@
 402b90 0f9ec640 20f04080 ff20400f 94c64008  ...@ .@.. @...@.
 402ba0 f0c35348 89fb488b 1748ffca 48ffc240  ..SH..H..H..H..@
 402bb0 8a3ae8cd ffffff3c 0075f148 31c048ff  .:.....<.u.H1.H.
 402bc0 ca48ffc2 408a3a40 80ff2d40 0f94c648  .H..@.:@..-@...H
 402bd0 0fb6f648 01f04080 ff2b0f94 c14008f1  ...H..@..+...@..
 402be0 80f90174 dc240148 89135bc3 55534154  ...t.$.H..[.USAT
 402bf0 41554156 4889e548 89fb4989 f44989d5  AUAVH..H..I..I..
 402c00 4d31f640 8a3b4080 ff007414 4c89e6e8  M1.@.;@...t.L...
 402c10 1b000000 4d0faff5 4901c648 ffc3ebe3  ....M...I..H....
 402c20 4c89f048 89ec415e 415d415c 5b5dc348  L..H..A^A]A\[].H
 402c30 89f08a10 80fa0074 0848ffc0 4038fa75  .......t.H..@8.u
 402c40 f14829f0 48ffc8c3                    .H).H...        
Contents of section .rodata:
 403000 01000200 20202020 20202020 20202020  ....            
 403010 20202020 2000310a 32006162 63006c6f       .1.2.abc.lo
 403020 72656d20 69707375 6d006c6f 72656d00  rem ipsum.lorem.
 403030 69707375 6d000061 62630061 00626300  ipsum..abc.a.bc.
 403040 00000000 00000061 00006200 00630000  .......a..b..c..
 403050 00000061 62630025 73204641 494c0a00  ...abc.%s FAIL..
 403060 74657374 5f737472 6c656e00 25732053  test_strlen.%s S
 403070 55434345 53530a00 74657374 5f737472  UCCESS..test_str
 403080 63707900 74657374 5f737472 636d7000  cpy.test_strcmp.
 403090 74657374 5f737472 64757000 70697065  test_strdup.pipe
 4030a0 28292066 61696c0a 0025643a 20002573  () fail..%d: .%s
 4030b0 28256429 20213d20 25732825 6429207c  (%d) != %s(%d) |
 4030c0 20726574 75726e20 76616c75 6520257a   return value %z
 4030d0 6420257a 640a0074 6573745f 72656164  d %zd..test_read
 4030e0 5f6e6f72 6d616c00 613a2000 74657374  _normal.a: .test
 4030f0 5f726561 645f6572 726f7200 74657374  _read_error.test
 403100 5f777269 74655f6e 6f726d61 6c007465  _write_normal.te
 403110 73745f77 72697465 5f657272 6f720000  st_write_error..
 403120 ffffffff 00fcffff ffffffff ffffff3f  ...............?
 403130 ffffff00 00000000 00000000 00000000  ................
 403140 ffffffff 00fcffff ffffffff ffffff3f  ...............?
 403150 ffffff00 62617365 3d25730a 7374723d  ....base=%s.str=
 403160 25730a6e 756d3d09 25640a72 6574303d  %s.num=.%d.ret0=
 403170 0925640a 72657431 3d092564 0a0a0074  .%d.ret1=.%d...t
 403180 6573745f 61746f69 5f626173 655f7261  est_atoi_base_ra
 403190 6e646f6d 00                          ndom.           
Contents of section .eh_frame:
 403198 14000000 00000000 017a5200 01781001  .........zR..x..
 4031a8 1b0c0708 90010000 14000000 1c000000  ................
 4031b8 68dfffff 26000000 00440710 00000000  h...&....D......
 4031c8 24000000 34000000 30deffff 20010000  $...4...0... ...
 4031d8 000e1046 0e184a0f 0b770880 003f1a3b  ...F..J..w...?.;
 4031e8 2a332422 00000000 1c000000 5c000000  *3$"........\...
 4031f8 58dfffff c1000000 00410e10 8602430d  X........A....C.
 403208 0602bc0c 07080000 1c000000 7c000000  ............|...
 403218 08e0ffff c1000000 00410e10 8602430d  .........A....C.
 403228 0602bc0c 07080000 1c000000 9c000000  ................
 403238 b8e0ffff 1a010000 00410e10 8602430d  .........A....C.
 403248 06031501 0c070800 1c000000 bc000000  ................
 403258 b8e1ffff 06010000 00410e10 8602430d  .........A....C.
 403268 06030101 0c070800 1c000000 dc000000  ................
 403278 a8e2ffff 0f010000 00410e10 8602430d  .........A....C.
 403288 06030a01 0c070800 1c000000 fc000000  ................
 403298 98e3ffff b7020000 00410e10 8602430d  .........A....C.
 4032a8 0603b202 0c070800 1c000000 1c010000  ................
 4032b8 38e6ffff 4a020000 00410e10 8602430d  8...J....A....C.
 4032c8 06034502 0c070800 1c000000 3c010000  ..E.........<...
 4032d8 68e8ffff b7020000 00410e10 8602430d  h........A....C.
 4032e8 0603b202 0c070800 1c000000 5c010000  ............\...
 4032f8 08ebffff 4a020000 00410e10 8602430d  ....J....A....C.
 403308 06034502 0c070800 1c000000 7c010000  ..E.........|...
 403318 38edffff 15000000 00410e10 8602430d  8........A....C.
 403328 06500c07 08000000 1c000000 9c010000  .P..............
 403338 38edffff 06000000 00410e10 8602430d  8........A....C.
 403348 06410c07 08000000 1c000000 bc010000  .A..............
 403358 28edffff 06000000 00410e10 8602430d  (........A....C.
 403368 06410c07 08000000 1c000000 dc010000  .A..............
 403378 18edffff 14010000 00410e10 8602430d  .........A....C.
 403388 06030f01 0c070800 1c000000 fc010000  ................
 403398 18eeffff 44030000 00410e10 8602430d  ....D....A....C.
 4033a8 06033f03 0c070800 1c000000 1c020000  ..?.............
 4033b8 48f1ffff 51010000 00410e10 8602430d  H...Q....A....C.
 4033c8 06034c01 0c070800 1c000000 3c020000  ..L.........<...
 4033d8 88f2ffff 59010000 00410e10 8602430d  ....Y....A....C.
 4033e8 06035401 0c070800 1c000000 5c020000  ..T.........\...
 4033f8 c8f3ffff a4000000 00410e10 8602430d  .........A....C.
 403408 06029f0c 07080000 1c000000 7c020000  ............|...
 403418 58f4ffff b5000000 00410e10 8602430d  X........A....C.
 403428 0602b00c 07080000 1c000000 9c020000  ................
 403438 f8f4ffff 63000000 00410e10 8602430d  ....c....A....C.
 403448 06025e0c 07080000                    ..^.....        
Contents of section .dynamic:
 404e78 01000000 00000000 8e000000 00000000  ................
 404e88 04000000 00000000 40034000 00000000  ........@.@.....
 404e98 f5feff6f 00000000 d8034000 00000000  ...o......@.....
 404ea8 05000000 00000000 c0054000 00000000  ..........@.....
 404eb8 06000000 00000000 f8034000 00000000  ..........@.....
 404ec8 0a000000 00000000 af000000 00000000  ................
 404ed8 0b000000 00000000 18000000 00000000  ................
 404ee8 15000000 00000000 00000000 00000000  ................
 404ef8 03000000 00000000 00504000 00000000  .........P@.....
 404f08 02000000 00000000 98010000 00000000  ................
 404f18 14000000 00000000 07000000 00000000  ................
 404f28 17000000 00000000 e0064000 00000000  ..........@.....
 404f38 07000000 00000000 c8064000 00000000  ..........@.....
 404f48 08000000 00000000 18000000 00000000  ................
 404f58 09000000 00000000 18000000 00000000  ................
 404f68 feffff6f 00000000 98064000 00000000  ...o......@.....
 404f78 ffffff6f 00000000 01000000 00000000  ...o............
 404f88 f0ffff6f 00000000 70064000 00000000  ...o....p.@.....
 404f98 00000000 00000000 00000000 00000000  ................
 404fa8 00000000 00000000 00000000 00000000  ................
 404fb8 00000000 00000000 00000000 00000000  ................
 404fc8 00000000 00000000 00000000 00000000  ................
 404fd8 00000000 00000000 00000000 00000000  ................
 404fe8 00000000 00000000 00000000 00000000  ................
Contents of section .got:
 404ff8 00000000 00000000                    ........        
Contents of section .got.plt:
 405000 784e4000 00000000 00000000 00000000  xN@.............
 405010 00000000 00000000 16104000 00000000  ..........@.....
 405020 26104000 00000000 36104000 00000000  &.@.....6.@.....
 405030 46104000 00000000 56104000 00000000  F.@.....V.@.....
 405040 66104000 00000000 76104000 00000000  f.@.....v.@.....
 405050 86104000 00000000 96104000 00000000  ..@.......@.....
 405060 a6104000 00000000 b6104000 00000000  ..@.......@.....
 405070 c6104000 00000000 d6104000 00000000  ..@.......@.....
 405080 e6104000 00000000 f6104000 00000000  ..@.......@.....
 405090 06114000 00000000 16114000 00000000  ..@.......@.....
Contents of section .data:
 4050a0 00000000 00000000 00000000 00000000  ................
 4050b0 48398247 23984735 00000000 00000000  H9.G#.G5........
 4050c0 7e314000 00000000 14304000 00000000  ~1@......0@.....
 4050d0 04304000 00000000 16304000 00000000  .0@......0@.....
 4050e0 1a304000 00000000 1e304000 00000000  .0@......0@.....
 4050f0 2a304000 00000000 36304000 00000000  *0@.....60@.....
 405100 3b304000 00000000 40304000 00000000  ;0@.....@0@.....
 405110 45304000 00000000 4f304000 00000000  E0@.....O0@.....
 405120 b0504000 00000000 00000000 00000000  .P@.............
 405130 00000100 00000000 14000000 00000000  ................
 405140 64000000 00000000                    d.......        
Contents of section .comment:
 0000 5562756e 74752063 6c616e67 20766572  Ubuntu clang ver
 0010 73696f6e 2031342e 302e302d 31756275  sion 14.0.0-1ubu
 0020 6e747531 2e3100                      ntu1.1.         
Contents of section .debug_info:
 0000 c2000000 05000108 00000000 01000c00  ................
 0010 01080000 00000000 000205c1 00000008  ................
 0020 00000002 032e0000 00000402 a1000336  ...............6
 0030 00000005 012e0404 07080206 36000000  ............6...
 0040 000502a1 01020750 00000000 0802a102  .......P........
 0050 055c0000 00067c00 00000e00 03640000  .\....|......d..
 0060 000b0220 070a0802 1e080873 00000002  ... .......s....
 0070 1f000009 78000000 04090601 0a0c0807  ....x...........
 0080 020d7300 00000003 02a10302 0e2e0000  ..s.............
 0090 00000602 a1040b05 c1000000 01560f00  .............V..
 00a0 19bc0000 000c0291 78110019 bc000000  ........x.......
 00b0 0c029170 120019c0 00000000 04100504  ...p............
 00c0 09730000 00008d01 00000500 0108a500  .s..............
 00d0 00000100 0c00015c 000000d1 00000002  .......\........
 00e0 000f0400 00400000 000200c1 00000001  .....@..........
 00f0 56030003 0302917c 07000568 01000004  V......|...h....
 0100 01730000 00030291 78090007 68010000  .s......x...h...
 0110 04024a00 00000302 91700a00 086c0100  ..J......p...l..
 0120 00000000 02031a01 00000156 04001303  ...........V....
 0130 03918078 0c001575 01000003 03918070  ...x...u.......p
 0140 0e001675 01000003 0391fc6f 07001768  ...u.......o...h
 0150 01000004 04c00000 00030391 f86f0900  .............o..
 0160 19680100 0004058b 00000003 0391f06f  .h.............o
 0170 0a001a86 01000000 00000206 06010000  ................
 0180 01560500 2a030291 7c07002c 68010000  .V..*...|..,h...
 0190 0407b800 00000302 91780900 2e680100  .........x...h..
 01a0 0004088a 00000003 0291740f 002f6801  ..........t../h.
 01b0 00000409 61000000 03029168 1000306c  ....a......h..0l
 01c0 01000003 02916011 00316c01 00000000  ......`..1l.....
 01d0 0000020a 0f010000 01560600 3d030291  .........V..=...
 01e0 7c07003f 68010000 040bc100 00000302  |..?h...........
 01f0 91780900 41680100 00040c98 00000003  .x..Ah..........
 0200 0291700a 00426c01 00000302 91681200  ..p..Bl......h..
 0210 436c0100 00030291 60130044 6c010000  Cl......`..Dl...
 0220 0302915c 14004568 01000000 00000508  ...\..Eh........
 0230 05040671 01000005 0b060107 71010000  ...q........q...
 0240 08820100 00000400 090d0807 068b0100  ................
 0250 000a7101 00000069 03000005 0001081e  ..q....i........
 0260 01000001 000c0001 b8000000 06030000  ................
 0270 02001a0a 0000b000 00000203 00b70200  ................
 0280 00015603 00030402 917c0700 05000300  ..V......|......
 0290 00040291 74090006 04030000 040391f0  ....t...........
 02a0 770b0007 14030000 040391f0 6f0d0008  w...........o...
 02b0 14030000 040391e8 6f0e0013 25030000  ........o...%...
 02c0 05011d02 00000403 91e46f12 00150003  ..........o.....
 02d0 00000502 e8010000 040391d8 6f130016  ............o...
 02e0 2a030000 040391d0 6f14001b 2f030000  *.......o.../...
 02f0 040391c8 6f17001c 3b030000 040391c0  ....o...;.......
 0300 6f1b001d 3b030000 040391bc 6f1c001e  o...;.......o...
 0310 00030000 040391b8 6f1d001f 00030000  ........o.......
 0320 00000611 08000f07 0f000300 00001100  ................
 0330 07100003 00000012 04000003 034a0200  .............J..
 0340 00015604 003b0402 917c0700 3d000300  ..V..;...|..=...
 0350 00040291 601e003e 4f030000 0402915c  ....`..>O......\
 0360 1f004100 03000004 02915420 00425b03  ..A.......T .B[.
 0370 00000403 91b47f1c 005a0003 00000403  .........Z......
 0380 91b07f1d 005b0003 00000403 91a87f17  .....[..........
 0390 005c3b03 00000403 91a07f1b 005d3b03  .\;..........];.
 03a0 00000504 00010000 04029150 12004400  ...........P..D.
 03b0 03000005 05df0000 00040291 4c1c0045  ............L..E
 03c0 00030000 04029148 1d004600 03000004  .......H..F.....
 03d0 02914017 00473b03 00000403 91b87f1b  ..@..G;.........
 03e0 00483b03 00000000 000306b7 02000001  .H;.............
 03f0 5605007f 0402917c 07008100 03000004  V......|........
 0400 02917409 00820403 00000403 91f0770b  ..t...........w.
 0410 00831403 00000403 91f06f0d 00841403  ..........o.....
 0420 00000403 91e86f0e 008f6703 00000507  ......o...g.....
 0430 1d020000 040391e4 6f120091 00030000  ........o.......
 0440 0508e801 00000403 91d86f13 00922a03  ..........o...*.
 0450 00000403 91d06f14 00972f03 00000403  ......o.../.....
 0460 91c86f17 00983b03 00000403 91c06f1b  ..o...;.......o.
 0470 00993b03 00000403 91bc6f1c 009a0003  ..;.......o.....
 0480 00000403 91b86f1d 009b0003 00000000  ......o.........
 0490 06110800 8b070f00 03000000 8d000710  ................
 04a0 00030000 008e0400 0003094a 02000001  ...........J....
 04b0 560600b7 0402917c 0700b900 03000004  V......|........
 04c0 0291601e 00ba4f03 00000402 915c1f00  ..`...O......\..
 04d0 bd000300 00040291 542000be 5b030000  ........T ..[...
 04e0 040391b4 7f1c00d6 00030000 040391b0  ................
 04f0 7f1d00d7 00030000 040391a8 7f1700d8  ................
 0500 3b030000 040391a0 7f1b00d9 3b030000  ;...........;...
 0510 050a0001 00000402 91501200 c0000300  .........P......
 0520 00050bdf 00000004 02914c1c 00c10003  ..........L.....
 0530 00000402 91481d00 c2000300 00040291  .....H..........
 0540 401700c3 3b030000 040391b8 7f1b00c4  @...;...........
 0550 3b030000 00000008 08050409 00030000  ;...............
 0560 0a100300 0002000b 0a080709 21030000  ............!...
 0570 0c100300 00000400 080c0601 0dcb0000  ................
 0580 000d2103 00000e37 03000016 012e0815  ..!....7........
 0590 07080e43 0300001a 034d0e4b 03000019  ...C.....M.K....
 05a0 02c20818 05080900 0300000a 10030000  ................
 05b0 05000921 0300000a 10030000 08000d39  ...!...........9
 05c0 02000000 3c020000 05000108 c7010000  ....<...........
 05d0 01000c00 01440100 00640800 000204a4  .....D...d......
 05e0 04000018 01000002 032e0000 00001902  ................
 05f0 a1000336 00000005 012e0404 07080206  ...6............
 0600 45000000 001802a1 01055400 0000068d  E.........T.....
 0610 00000000 00010000 035c0000 000e000f  .........\......
 0620 070d8000 0b08077d 00000000 0c00080a  .......}........
 0630 91000000 000d6508 0b9d0000 00000e7c  ......e........|
 0640 00058900 0000098d 00000065 00040806  ...........e....
 0650 010a0908 07058900 0000098d 00000015  ................
 0660 00040c05 04020f2e 00000000 1b02a102  ................
 0670 02102e00 0000001a 02a1030b 0c041500  ................
 0680 00000156 11001d0c 05060000 00015612  ...V..........V.
 0690 005b0c06 06000000 01561300 5f0d0714  .[.......V.._...
 06a0 01000001 56140024 0e02917f 160026fe  ....V..$......&.
 06b0 0100000f 08c40000 000e0291 78180029  ............x..)
 06c0 9d000000 0f099e00 00000e02 91700a00  .............p..
 06d0 2a020200 000e0291 6807002b 02020000  *.......h..+....
 06e0 0e029164 0b002c9d 0000000e 02916019  ...d..,.......`.
 06f0 002d9d00 00000e02 915c1a00 2e9d0000  .-.......\......
 0700 00000000 0d0a4403 00000156 1500390f  ......D....V..9.
 0710 0b180000 000e0291 701b003c 07020000  ........p..<....
 0720 000f0c18 0300000e 02916c18 00409d00  ..........l..@..
 0730 00000f0d f2020000 0e029168 0b00419d  ...........h..A.
 0740 0000000e 0391e07e 22004233 0200000e  .......~".B3....
 0750 0391dc7e 2300439d 0000000e 0391d87e  ...~#.C........~
 0760 2400449d 0000000e 0391c47e 2800559d  $.D........~(.U.
 0770 0000000f 0eec0000 000e0391 d47e2500  .............~%.
 0780 469d0000 000f0fbc 0000000e 0391d37e  F..............~
 0790 26004789 00000000 000f1097 0000000e  &.G.............
 07a0 0391cc7e 25004e9d 0000000f 11670000  ...~%.N......g..
 07b0 000e0391 c87e2700 4f9d0000 00000000  .....~'.O.......
 07c0 00000417 08011089 00000007 21100308  ............!...
 07d0 081c1f02 0000030e 00081f2b 02000003  ...........+....
 07e0 0f080003 27020000 1e02a004 1d050803  ....'...........
 07f0 27020000 2002a205 fe010000 098d0000  '... ...........
 0800 00800000 7b010000 05000108 94020000  ....{...........
 0810 01000c00 01f00100 00170b00 00020093  ................
 0820 040000b0 01000002 00510100 00015603  .........Q....V.
 0830 00135c01 00000302 91700900 13600100  ..\......p...`..
 0840 00030291 680b0013 60010000 04029164  ....h...`......d
 0850 0c00155c 01000004 0291600d 00165c01  ...\......`...\.
 0860 00000402 915c0e00 175c0100 00040291  .....\...\......
 0870 580f0018 5c010000 00020159 01000001  X...\......Y....
 0880 5605002c 5c010000 03029170 0b002c60  V..,\......p..,`
 0890 01000004 0391907f 10002e69 01000004  ...........i....
 08a0 03918c7f 0c002f5c 01000000 0202a400  ....../\........
 08b0 00000156 0600585c 01000003 02917809  ...V..X\......x.
 08c0 00586001 00000302 91700b00 58600100  .X`......p..X`..
 08d0 00040291 6c0d005a 5c010000 04029168  ....l..Z\......h
 08e0 12005b5c 01000004 02916413 005c5c01  ..[\......d..\\.
 08f0 00000002 03b50000 00015607 00485c01  ..........V..H\.
 0900 00000302 91700900 48600100 00030291  .....p..H`......
 0910 680b0048 60010000 03029164 0c00485c  h..H`......d..H\
 0920 01000003 0291600d 00485c01 00000402  ......`..H\.....
 0930 915c1400 4a5c0100 00000204 63000000  .\..J\......c...
 0940 01560800 715c0100 00030291 700f0071  .V..q\......p..q
 0950 79010000 0302916c 0e00715c 01000000  y......l..q\....
 0960 05040504 06650100 00050a06 01076501  .....e........e.
 0970 00000875 01000060 00091108 07065c01  ...u...`......\.
 0980 000000                               ...             
Contents of section .debug_abbrev:
 0000 01110125 25130503 25721710 171b2511  ...%%...%r....%.
 0010 1b120673 17000002 34000325 49133f19  ...s....4..%I.?.
 0020 3a0b3b0b 02180000 03160049 1303253a  :.;........I..%:
 0030 0b3b0b00 00042400 03253e0b 0b0b0000  .;....$..%>.....
 0040 05010149 13000006 21004913 370b0000  ...I....!.I.7...
 0050 07130103 250b0b3a 0b3b0b00 00080d00  ....%..:.;......
 0060 03254913 3a0b3b0b 380b0000 090f0049  .%I.:.;.8......I
 0070 1300000a 24000325 0b0b3e0b 00000b2e  ....$..%..>.....
 0080 01111b12 06401803 253a0b3b 0b271949  .....@..%:.;.'.I
 0090 133f1900 000c0500 02180325 3a0b3b0b  .?.........%:.;.
 00a0 49130000 00011101 25251305 03257217  I.......%%...%r.
 00b0 10171b25 111b1206 73170000 022e0111  ...%....s.......
 00c0 1b120640 1803253a 0b3b0b27 193f1900  ...@..%:.;.'.?..
 00d0 00033400 02180325 3a0b3b0b 49130000  ..4....%:.;.I...
 00e0 040b0111 1b120600 00052400 03253e0b  ..........$..%>.
 00f0 0b0b0000 060f0049 13000007 01014913  .......I......I.
 0100 00000821 00491337 05000009 24000325  ...!.I.7....$..%
 0110 0b0b3e0b 00000a26 00491300 00000111  ..>....&.I......
 0120 01252513 05032572 1710171b 25111b12  .%%...%r....%...
 0130 06731700 00020f00 0000032e 01111b12  .s..............
 0140 06401803 253a0b3b 0b27193f 19000004  .@..%:.;.'.?....
 0150 34000218 03253a0b 3b0b4913 0000050b  4....%:.;.I.....
 0160 01111b12 06000006 13010325 0b0b3a0b  ...........%..:.
 0170 3b0b0000 070d0003 2549133a 0b3b0b38  ;.......%I.:.;.8
 0180 0b000008 24000325 3e0b0b0b 00000901  ....$..%>.......
 0190 01491300 000a2100 4913370b 00000b24  .I....!.I.7....$
 01a0 0003250b 0b3e0b00 000c2100 49133705  ..%..>....!.I.7.
 01b0 00000d0f 00491300 000e1600 49130325  .....I......I..%
 01c0 3a0b3b0b 00000001 11012525 13050325  :.;.......%%...%
 01d0 72171017 1b25111b 12067317 00000234  r....%....s....4
 01e0 00032549 133a0b3b 0b021800 00031600  ..%I.:.;........
 01f0 49130325 3a0b3b0b 00000424 0003253e  I..%:.;....$..%>
 0200 0b0b0b00 00050101 49130000 06210049  ........I....!.I
 0210 13370600 00071301 03250b0b 3a0b3b0b  .7.......%..:.;.
 0220 0000080d 00032549 133a0b3b 0b380b00  ......%I.:.;.8..
 0230 00092100 4913370b 00000a24 0003250b  ..!.I.7....$..%.
 0240 0b3e0b00 000b0f00 00000c2e 00111b12  .>..............
 0250 06401803 253a0b3b 0b27193f 1900000d  .@..%:.;.'.?....
 0260 2e01111b 12064018 03253a0b 3b0b2719  ......@..%:.;.'.
 0270 3f190000 0e340002 1803253a 0b3b0b49  ?....4....%:.;.I
 0280 1300000f 0b01111b 12060000 100f0049  ...............I
 0290 13000000 01110125 25130503 25721710  .......%%...%r..
 02a0 171b2511 1b120673 17000002 2e01111b  ..%....s........
 02b0 12064018 03253a0b 3b0b2719 49133f19  ..@..%:.;.'.I.?.
 02c0 00000305 00021803 253a0b3b 0b491300  ........%:.;.I..
 02d0 00043400 02180325 3a0b3b0b 49130000  ..4....%:.;.I...
 02e0 05240003 253e0b0b 0b000006 0f004913  .$..%>........I.
 02f0 00000701 01491300 00082100 4913370b  .....I....!.I.7.
 0300 00000924 0003250b 0b3e0b00 0000      ...$..%..>....  
Contents of section .debug_line:
 0000 cd000000 05000800 69000000 010101fb  ........i.......
 0010 0e0d0001 01010100 00000100 00010101  ................
 0020 1f030000 00002300 00004d00 00000301  ......#...M.....
 0030 1f020f05 1e034f00 0000007f 58502ec5  ......O.....XP..
 0040 d2061f5a 59f555b4 addcc556 00000001  ...ZY.U....V....
 0050 2499dd23 61b91572 4b073282 bea3a7bc  $..#a..rK.2.....
 0060 5f000000 028a3d59 10e367e3 783434d5  _.....=Y..g.x44.
 0070 3c14c140 9b040000 09025011 40000000  <..@......P.@...
 0080 00000319 01051a0a 0859052c 06740513  .........Y.,.t..
 0090 4a051158 050a0676 051e0674 05307405  J..X...v...t.0t.
 00a0 034a069f 05110674 05287405 0c065a05  .J.....t.(t...Z.
 00b0 0bad0514 0674052d 4a052c74 051b4a05  .....t.-J.,t..J.
 00c0 0306e659 59595959 59595959 02080001  ...YYYYYYYYY....
 00d0 01310200 00050008 00370000 00010101  .1.......7......
 00e0 fb0e0d00 01010101 00000001 00000101  ................
 00f0 011f0100 00000003 011f020f 051e0166  ...............f
 0100 00000000 f754224d 5f629f9b 03cf8881  .....T"M_b......
 0110 fa43374c 04000009 02201240 00000000  .C7L..... .@....
 0120 00150507 0a83050c 76051306 7405154a  ........v...t..J
 0130 05039e05 14066705 1f064a05 0bac0510  ......g...J.....
 0140 064c0509 064a0525 90051b4a 0518ba05  .L...J.%...J....
 0150 093c0507 0667050d 5a050575 05210379  .<...g..Z..u.!.y
 0160 58050306 90060309 58064a66 08900501  X.......X.Jf....
 0170 06084b05 00084d05 070aaf05 0ca00513  ..K...M.........
 0180 069e0515 7405039e 051a0667 05250674  ....t......g.%.t
 0190 0511ac05 09067605 10067405 099e0507  ......v...t.....
 01a0 0667050c 5a051506 74050574 050f0659  .g..Z...t..t...Y
 01b0 05180674 05057405 10065905 19067405  ...t..t...Y...t.
 01c0 09740522 5805093c 05070667 050d5a05  .t."X..<...g..Z.
 01d0 059f0521 03745805 0306e406 030e5806  ...!.tX.......X.
 01e0 74660890 05010608 4b0500e7 05070a83  tf......K.......
 01f0 050c7605 13067405 154a0503 9e050e06  ..v...t..J......
 0200 67051506 7405174a 05059e05 12066705  g...t..J......g.
 0210 1d064a05 0dac0512 064b051d 064a050d  ..J......K...J..
 0220 ac051206 4c051606 4a050b4a 05278205  ....L...J..J.'..
 0230 2b4a051d 4a051a9e 050b2e05 09066705  +J..J.........g.
 0240 0f5a0507 75052303 78580505 06900503  .Z..u.#.xX......
 0250 06030a58 05210375 58050306 9006030c  ...X.!.uX.......
 0260 58064a66 08900501 06084b05 00f50507  X.Jf......K.....
 0270 0a83050c 76051306 7405154a 05039e05  ....v...t..J....
 0280 14066705 1f064a05 0bac0517 064b0510  ..g...J......K..
 0290 064a050b 58051a06 4b051006 4a050b58  .J..X...K...J..X
 02a0 0519064b 051d064a 05124a05 21740526  ...K...J..J.!t.&
 02b0 82053366 05374a05 294a053b 5803bb7f  ..3f.7J.)J.;X...
 02c0 90052603 c5003c05 0958050a 063e0505  ..&...<..X...>..
 02d0 064a050a 06590505 064a0509 0659064a  .J...Y...J...Y.J
 02e0 05070667 050d5a05 05750521 03745805  ...g..Z..u.!.tX.
 02f0 03069006 030e5806 4a660890 05010608  ......X.Jf......
 0300 4b020600 01015a05 00000500 08008200  K.....Z.........
 0310 00000101 01fb0e0d 00010101 01000000  ................
 0320 01000001 01011f04 00000000 23000000  ............#...
 0330 71000000 94000000 03011f02 0f051e04  q...............
 0340 a1000000 00d7bcce e295f0d5 daade802  ................
 0350 5117b410 ea560000 00012499 dd2361b9  Q....V....$..#a.
 0360 15724b07 3282bea3 a7bcb000 000002d1  .rK.2...........
 0370 08b5f93a 74c50510 d7d9bc0a b36df9b8  ...:t........m..
 0380 00000003 f31eefcc 3f15835f c5a4023a  ........?.._...:
 0390 625cf609 04000009 02301640 00000000  b\.......0.@....
 03a0 0015050c 0ab20507 064a0514 5805073c  .........J..X..<
 03b0 05050667 d705115f 0507064a 050c0676  ...g..._...J...v
 03c0 0513069e 05157405 039e0516 06670521  ......t......g.!
 03d0 0674050d ac050906 76051006 7405099e  .t......v...t...
 03e0 05070667 051a5a05 13067405 0d580505  ...g..Z...t..X..
 03f0 067a082f 0830050b 06580667 05140674  .z./.0...X.g...t
 0400 051b3c05 23740505 74051106 59051a06  ..<.#t..t...Y...
 0410 7405202e 05297405 0c74050a 58050e06  t. ..)t..t..X...
 0420 75050c06 74050506 68050b06 58066705  u...t...h...X.g.
 0430 14067405 1b3c0523 74050574 05140659  ..t..<.#t..t...Y
 0440 051d0674 05232e05 2c74050c 74050a58  ...t.#..,t..t..X
 0450 050e0675 050c0674 05100668 05190674  ...u...t...h...t
 0460 05097405 22580527 3c052a66 05316605  ..t."X.'<.*f.1f.
 0470 3b66053e 66054374 05097405 07066705  ;f.>f.Ct..t...g.
 0480 145a0516 06660505 3c054206 d7053906  .Z...f..<.B...9.
 0490 66054bba 055cba05 53660565 084a056d  f.K..\..Sf.e.J.m
 04a0 74057374 05057405 0d060821 05057505  t.st..t....!..u.
 04b0 21036158 050306e4 05090603 21580512  !.aX........!X..
 04c0 06740503 3c050906 59051206 7405032e  .t..<...Y...t...
 04d0 0659064a 66089005 0106084b 05000823  .Y.Jf......K...#
 04e0 05090aae 08d97505 0cf40513 06740515  ......u......t..
 04f0 3c05033c 0505066c 050b0658 05110667  <..<...l...X...g
 0500 051d0682 050c4a05 0a9e050e 064b050c  ......J......K..
 0510 06740505 063e050b 06580514 06670520  .t...>...X...g. 
 0520 0682050c 4a050a9e 050e064b 050c0674  ....J......K...t
 0530 0509063e 0510063c 051a3c05 1d660522  ...>...<..<..f."
 0540 4a05094a 05070667 05145a05 16063c05  J..J...g..Z...<.
 0550 053c0542 06d70539 063c054b 90055c66  .<.B...9.<.K..\f
 0560 05533c05 65e4056d 4a05734a 05054a05  .S<.e..mJ.sJ..J.
 0570 0d060821 05057505 21036c58 05030690  ...!..u.!.lX....
 0580 06031b58 05090658 05120667 050a064a  ...X...X...g...J
 0590 0508d605 0c064b05 0a067405 03063e05  ......K...t...>.
 05a0 09065805 15066705 0a064a05 08d6050c  ..X...g...J.....
 05b0 064b050a 06740507 063e050e 063c0518  .K...t...>...<..
 05c0 3c051b66 05204a05 074a0505 06670542  <..f. J..J...g.B
 05d0 d7053906 3c054b90 055c6605 533c0565  ..9.<.K..\f.S<.e
 05e0 e4056d4a 05734a05 054a050d 06082105  ..mJ.sJ..J....!.
 05f0 03031274 064a6608 90050106 084b0500  ...t.Jf......K..
 0600 e7050c0a b2050706 4a051458 05073c05  ........J..X..<.
 0610 050667d7 05115f05 07064a05 0c067605  ..g..._...J...v.
 0620 13069e05 15740503 9e051606 67052106  .....t......g.!.
 0630 74050dac 05090676 05100674 05099e05  t......v...t....
 0640 07066705 1a5a0513 0674050d 58050506  ..g..Z...t..X...
 0650 7a082f08 30050b06 58051206 67051b06  z./.0...X...g...
 0660 7405223c 052a7405 0c74050a 58050e06  t."<.*t..t..X...
 0670 75050c06 74050a06 67051306 7405192e  u...t...g...t...
 0680 05227405 0574065a 050b0658 05150667  ."t..t.Z...X...g
 0690 051e0674 05253c05 2d74050c 74050a58  ...t.%<.-t..t..X
 06a0 050e0675 050c0674 050a0667 05130674  ...u...t...g...t
 06b0 05192e05 22740505 74051006 5a051906  ...."t..t...Z...
 06c0 74050974 05225805 273c052a 66053166  t..t."X.'<.*f.1f
 06d0 053b6605 3e660543 74050974 05070667  .;f.>f.Ct..t...g
 06e0 05145a05 16066605 053c0542 06d70539  ..Z...f..<.B...9
 06f0 0666054b ba055cba 05536605 65084a05  .f.K..\..Sf.e.J.
 0700 6d740573 74050574 050d0608 21050575  mt.st..t....!..u
 0710 05210361 58050306 e4050906 03215805  .!.aX........!X.
 0720 12067405 033c0509 06590512 06740503  ..t..<...Y...t..
 0730 2e065906 4a660890 05010608 4b050008  ..Y.Jf......K...
 0740 2305090a ae08d975 050cf405 13067405  #......u......t.
 0750 153c0503 3c050506 6c050b06 58051206  .<..<...l...X...
 0760 67051e06 82050c4a 050a9e05 0e064b05  g......J......K.
 0770 0c067405 05063e05 0b065805 15066705  ..t...>...X...g.
 0780 21068205 0c4a050a 9e050e06 4b050c06  !....J......K...
 0790 74050906 3e051006 3c051a3c 051d6605  t...>...<..<..f.
 07a0 224a0509 4a050706 6705145a 0516063c  "J..J...g..Z...<
 07b0 05053c05 4206d705 39063c05 4b90055c  ..<.B...9.<.K..\
 07c0 6605533c 0565e405 6d4a0573 4a05054a  f.S<.e..mJ.sJ..J
 07d0 050d0608 21050575 0521036c 58050306  ....!..u.!.lX...
 07e0 9006031b 58050906 58051306 67050a06  ....X...X...g...
 07f0 4a0508d6 050c064b 050a0674 0503063e  J......K...t...>
 0800 05090658 05160667 050a064a 0508d605  ...X...g...J....
 0810 0c064b05 0a067405 07063e05 0e063c05  ..K...t...>...<.
 0820 183c051b 6605204a 05074a05 05066705  .<..f. J..J...g.
 0830 42d70539 063c054b 90055c66 05533c05  B..9.<.K..\f.S<.
 0840 65e4056d 4a05734a 05054a05 0d060821  e..mJ.sJ..J....!
 0850 05030312 74064a66 08900501 06084b02  ....t.Jf......K.
 0860 09000101 af020000 05000800 82000000  ................
 0870 010101fb 0e0d0001 01010100 00000100  ................
 0880 00010101 1f040000 00002300 00007100  ..........#...q.
 0890 0000c000 00000301 1f020f05 1e04e900  ................
 08a0 00000076 7f14c5ae 14bd8f28 4219ca93  ...v.......(B...
 08b0 83b17956 00000001 2499dd23 61b91572  ..yV....$..#a..r
 08c0 4b073282 bea3a7bc b0000000 02d108b5  K.2.............
 08d0 f93a74c5 0510d7d9 bc0ab36d f9fa0000  .:t........m....
 08e0 00039b45 d950050c 215f2168 50b27bd1  ...E.P..!_!hP.{.
 08f0 e8f30400 00090250 20400000 00000003  .......P @......
 0900 1d010503 0a4b5959 05015905 00033ac8  .....KYY..Y...:.
 0910 05010a4b 0500bd05 010a4b05 000344ba  ...K......K...D.
 0920 05110a83 05034c05 0c590513 06740515  ......L..Y...t..
 0930 4a050374 05120667 051a0608 20050b4a  J..t...g.... ..J
 0940 0511064b 050b0608 20051106 4b051906  ...K.... ...K...
 0950 0820050b 3c051f06 3d052406 4a05124a  . ..<...=.$.J..J
 0960 050b5805 23063d05 28064a05 124a050b  ..X.#.=.(.J..J..
 0970 58050906 3e050e06 3c05093c 050b0668  X...>...<..<...h
 0980 0511064a 05164a05 1b3c0521 4a050706  ...J..J..<.!J...
 0990 49050fd8 05034c05 20037458 05030690  I.....L. .tX....
 09a0 06030d58 064a6608 90050106 084b0500  ...X.Jf......K..
 09b0 08230505 0aaf0510 c9050d06 4a05052e  .#..........J...
 09c0 050c065a 05130674 05154a05 03740509  ...Z...t..J..t..
 09d0 06670513 75052308 2f051406 82052f08  .g..u.#./...../.
 09e0 66053b58 054a7405 384a0550 8203bd7f  f.;X.Jt.8J.P....
 09f0 ac050903 c3007405 21066705 13068205  ......t.!.g.....
 0a00 2d086605 39580547 7405364a 054d8203  -.f.9X.Gt.6J.M..
 0a10 bc7fac05 0903c400 74050e06 68051506  ........t...h...
 0a20 9e051766 05056605 07066805 14065805  ...f..f...h...X.
 0a30 1d580523 9e05134a 05112e05 0e660529  .X.#...J.....f.)
 0a40 3c0530ac 05336605 3574053c ac053f66  <.0..3f.5t.<..?f
 0a50 0548f203 b87fba05 0703c800 66050906  .H..........f...
 0a60 08220507 06820519 06081305 07066605  ."............f.
 0a70 17088205 23064505 0506e406 5f051c06  ....#.E....._...
 0a80 0882050e 06590515 069e0517 66050566  .....Y......f..f
 0a90 05110667 051c0658 051a7405 1158050b  ...g...X..t..X..
 0aa0 2e051806 67050706 08ba0516 0882050d  ....g...........
 0ab0 063d0513 06660517 3c051174 050b2e05  .=...f..<..t....
 0ac0 22063905 0506e406 5d051a06 08820510  ".9.....].......
 0ad0 064c0519 06580509 4a051606 67050506  .L...X..J...g...
 0ae0 08740514 08200513 062f051a 06c80513  .t... .../......
 0af0 ac052158 03a97f90 050503d7 00660511  ..!X.........f..
 0b00 08200520 0603693c 05030690 05010603  . . ..i<........
 0b10 19580209 000101fa 02000005 00080037  .X.............7
 0b20 00000001 0101fb0e 0d000101 01010000  ................
 0b30 00010000 0101011f 01000000 0003011f  ................
 0b40 020f051e 010b0100 000007cf bab02e78  ...............x
 0b50 032dd0e5 06d724d4 a22e0400 00090200  .-....$.........
 0b60 25400000 00000003 1301051a 0af8050c  %@..............
 0b70 064a050a 58050e06 3d050606 4a050306  .J..X...=...J...
 0b80 670502bb 050b0658 050a4a05 0f3c0514  g......X..J..<..
 0b90 3c051866 05174a05 1c3c0523 82052766  <..f..J..<.#..'f
 0ba0 05264a05 2b3c0363 90050203 1d3c0503  .&J.+<.c.....<..
 0bb0 06c90502 b905085a 050a7505 09064a05  .......Z..u...J.
 0bc0 0e3c0515 82051966 05184a05 1d3c0360  .<.....f..J..<.`
 0bd0 90050203 203c050d 06ca050c 064a0511  .... <.......J..
 0be0 3c0509ac 05030667 0502b705 175d051c  <......g.....]..
 0bf0 064a050b 4a050958 050d063d 0506064a  .J..J..X...=...J
 0c00 05030667 0513bb05 17064a05 20740525  ...g......J. t.%
 0c10 4a052b4a 05343c05 083c0506 58051a06  J.+J.4<..<..X...
 0c20 3d050a06 3c050290 0501063d 05000877  =...<......=...w
 0c30 050a0a86 05117505 02064a05 11066705  ......u...J...g.
 0c40 0306ac05 152e0502 0657050a 5a750509  .........W..Zu..
 0c50 064a050f 3c05023c 050f0668 050e064a  .J..<..<...h...J
 0c60 05143c05 073c7405 04066705 0dbb050c  ..<..<t...g.....
 0c70 064a0512 3c05193c 051d6605 1c4a0522  .J..<..<..f..J."
 0c80 3c050c3c 05040667 050dbb05 0c064a05  <..<...g......J.
 0c90 123c0518 3c051d66 051c4a05 223c0527  .<..<..f..J."<.'
 0ca0 3c052b66 052a4a05 303c050c 3c050406  <.+f.*J.0<..<...
 0cb0 67050dbb 050c064a 05123c05 173c051b  g......J..<..<..
 0cc0 66051a4a 05203c05 0c3c0504 06670603  f..J. <..<...g..
 0cd0 42ba050b 06033fe4 050a064a 05103c05  B.....?....J..<.
 0ce0 033c0516 2e050306 59bb0502 03749005  .<......Y....t..
 0cf0 0e030e58 0506064a 05030667 050abb05  ...X...J...g....
 0d00 02063c05 01063d05 000313ba 05090abf  ..<...=.........
 0d10 050a7505 09064a05 0e3c0502 3c050706  ..u...J..<..<...
 0d20 68050c75 050a7505 1406ba05 033c0508  h..u..u......<..
 0d30 06680516 06ba0515 4a05123c 05082e05  .h......J..<....
 0d40 0e066705 04750503 8c05105e 0507064a  ..g..u.....^...J
 0d50 05040667 05035991 05020373 ba050a03  ...g..Y....s....
 0d60 0f580502 063c0500 06035bd6 050d0a08  .X...<....[.....
 0d70 5b050606 4a050306 670508bb 05097505  [...J...g.....u.
 0d80 1506ba05 023c0507 06680517 06ba0516  .....<...h......
 0d90 4a05133c 05072e05 04066705 03590502  J..<......g..Y..
 0da0 8c050a5e 05120666 05276605 2b4a0530  ...^...f.'f.+J.0
 0db0 4a05364a 053f3c05 463c051c 3c051ac8  J.6J.?<.F<..<...
 0dc0 05103c05 022e0501 063d0500 031c083c  ..<......=.....<
 0dd0 05070aad 0506064a 050b3c05 06660503  .......J..<..f..
 0de0 0667050b bb051106 3c051582 050b3c05  .g......<.....<.
 0df0 12066705 0e064a05 0366038a 7f82050b  ..g...J..f......
 0e00 0603f700 58050a06 4a05022e 0501063d  ....X...J......=
 0e10 02050001 01                          .....           
Contents of section .debug_str:
 0000 5562756e 74752063 6c616e67 20766572  Ubuntu clang ver
 0010 73696f6e 2031342e 302e302d 31756275  sion 14.0.0-1ubu
 0020 6e747531 2e310074 6573742e 63002f68  ntu1.1.test.c./h
 0030 6f6d652f 6873656f 6e672f61 7373656d  ome/hseong/assem
 0040 626c795f 70726163 74696365 2f6c6962  bly_practice/lib
 0050 00675f6c 6f6e675f 73747269 6e675f6c  .g_long_string_l
 0060 656e0075 6e736967 6e656420 6c6f6e67  en.unsigned long
 0070 00675f72 616e646f 6d5f6e75 6d00675f  .g_random_num.g_
 0080 63617365 7300745f 74657374 63617365  cases.t_testcase
 0090 005f5f41 52524159 5f53495a 455f5459  .__ARRAY_SIZE_TY
 00a0 50455f5f 00675f6c 6f6e675f 73747269  PE__.g_long_stri
 00b0 6e670067 5f6e6361 73657300 6d61696e  ng.g_ncases.main
 00c0 00696e74 00617267 63006172 67760074  .int.argc.argv.t
 00d0 6573745f 7374722e 63007465 73745f73  est_str.c.test_s
 00e0 74726c65 6e007465 73745f73 74726370  trlen.test_strcp
 00f0 79007465 73745f73 7472636d 70007465  y.test_strcmp.te
 0100 73745f73 74726475 70006973 5f666169  st_strdup.is_fai
 0110 6c006900 62756666 65723100 62756666  l.i.buffer1.buff
 0120 65723200 6a007330 00733100 70300070  er2.j.s0.s1.p0.p
 0130 31007265 73756c74 00746573 745f7379  1.result.test_sy
 0140 7363616c 6c2e6300 74657374 5f726561  scall.c.test_rea
 0150 645f6e6f 726d616c 00746573 745f7265  d_normal.test_re
 0160 61645f65 72726f72 00746573 745f7772  ad_error.test_wr
 0170 6974655f 6e6f726d 616c0074 6573745f  ite_normal.test_
 0180 77726974 655f6572 726f7200 66645f73  write_error.fd_s
 0190 65740062 75666665 72300072 65616400  et.buffer0.read.
 01a0 77726974 6500735f 70697065 5f666400  write.s_pipe_fd.
 01b0 72657430 005f5f73 73697a65 5f740072  ret0.__ssize_t.r
 01c0 65743100 6572726e 6f300065 72726e6f  et1.errno0.errno
 01d0 31006664 5f636173 65006361 73655f6c  1.fd_case.case_l
 01e0 656e0062 75666665 72007465 73745f61  en.buffer.test_a
 01f0 746f695f 62617365 2e630067 5f74636c  toi_base.c.g_tcl
 0200 656e0067 5f746300 73747200 745f6174  en.g_tc.str.t_at
 0210 6f695f74 65737463 61736500 675f6d61  oi_testcase.g_ma
 0220 785f6261 73655f6c 656e0067 5f6d6178  x_base_len.g_max
 0230 5f737472 5f6c656e 00746573 745f6174  _str_len.test_at
 0240 6f695f62 61736500 74657374 5f61746f  oi_base.test_ato
 0250 695f6261 73655f77 68697465 73706163  i_base_whitespac
 0260 65007465 73745f61 746f695f 62617365  e.test_atoi_base
 0270 5f736967 6e007465 73745f61 746f695f  _sign.test_atoi_
 0280 62617365 5f72616e 646f6d00 67656e65  base_random.gene
 0290 72617465 5f746573 74636173 6500756e  rate_testcase.un
 02a0 7369676e 65642063 68617200 74760074  signed char.tv.t
 02b0 765f7365 63005f5f 74696d65 5f740074  v_sec.__time_t.t
 02c0 765f7573 6563005f 5f737573 65636f6e  v_usec.__susecon
 02d0 64735f74 0074696d 6576616c 00746162  ds_t.timeval.tab
 02e0 6c650069 64780066 745f6174 6f695f62  le.idx.ft_atoi_b
 02f0 6173655f 7265662e 63006674 5f61746f  ase_ref.c.ft_ato
 0300 695f6261 73655f72 65660062 6173655f  i_base_ref.base_
 0310 76616c69 64697479 00737472 6c656e5f  validity.strlen_
 0320 62617365 00737472 5f646563 6f646500  base.str_decode.
 0330 7265745f 63686563 6b006261 73656c65  ret_check.basele
 0340 6e006e73 69676e00 72657400 72657065  n.nsign.ret.repe
 0350 61740073 74725f66 6c616700 6f726465  at.str_flag.orde
 0360 7200                                 r.              
Contents of section .debug_addr:
 0000 34000000 05000800 50514000 00000000  4.......PQ@.....
 0010 b0504000 00000000 c0504000 00000000  .P@......P@.....
 0020 58514000 00000000 60514000 00000000  XQ@.....`Q@.....
 0030 50114000 00000000 6c000000 05000800  P.@.....l.......
 0040 20124000 00000000 2f124000 00000000   .@...../.@.....
 0050 4a124000 00000000 f0124000 00000000  J.@.......@.....
 0060 05134000 00000000 26134000 00000000  ..@.....&.@.....
 0070 10144000 00000000 1f144000 00000000  ..@.......@.....
 0080 3a144000 00000000 55144000 00000000  :.@.....U.@.....
 0090 20154000 00000000 2f154000 00000000   .@...../.@.....
 00a0 4a154000 00000000 64000000 05000800  J.@.....d.......
 00b0 30164000 00000000 6b164000 00000000  0.@.....k.@.....
 00c0 8c164000 00000000 f0184000 00000000  ..@.......@.....
 00d0 31194000 00000000 44194000 00000000  1.@.....D.@.....
 00e0 401b4000 00000000 7b1b4000 00000000  @.@.....{.@.....
 00f0 9c1b4000 00000000 001e4000 00000000  ..@.......@.....
 0100 411e4000 00000000 541e4000 00000000  A.@.....T.@.....
 0110 94000000 05000800 30514000 00000000  ........0Q@.....
 0120 70514000 00000000 38514000 00000000  pQ@.....8Q@.....
 0130 40514000 00000000 50204000 00000000  @Q@.....P @.....
 0140 70204000 00000000 80204000 00000000  p @...... @.....
 0150 90204000 00000000 a1204000 00000000  . @...... @.....
 0160 b9204000 00000000 b0214000 00000000  . @......!@.....
 0170 bb214000 00000000 d3214000 00000000  .!@......!@.....
 0180 eb214000 00000000 a3224000 00000000  .!@......"@.....
 0190 bf224000 00000000 ad234000 00000000  ."@......#@.....
 01a0 c9234000 00000000 2c000000 05000800  .#@.....,.......
 01b0 00254000 00000000 60264000 00000000  .%@.....`&@.....
 01c0 c0274000 00000000 70284000 00000000  .'@.....p(@.....
 01d0 30294000 00000000                    0)@.....        
Contents of section .debug_line_str:
 0000 2f686f6d 652f6873 656f6e67 2f617373  /home/hseong/ass
 0010 656d626c 795f7072 61637469 63652f6c  embly_practice/l
 0020 6962002f 7573722f 6c69622f 6c6c766d  ib./usr/lib/llvm
 0030 2d31342f 6c69622f 636c616e 672f3134  -14/lib/clang/14
 0040 2e302e30 2f696e63 6c756465 002e0074  .0.0/include...t
 0050 6573742e 63007374 64646566 2e680074  est.c.stddef.h.t
 0060 6573742e 68007465 73745f73 74722e63  est.h.test_str.c
 0070 002f7573 722f696e 636c7564 652f7838  ./usr/include/x8
 0080 365f3634 2d6c696e 75782d67 6e752f62  6_64-linux-gnu/b
 0090 69747300 2f757372 2f696e63 6c756465  its./usr/include
 00a0 00746573 745f7379 7363616c 6c2e6300  .test_syscall.c.
 00b0 74797065 732e6800 73746469 6f2e6800  types.h.stdio.h.
 00c0 2f757372 2f696e63 6c756465 2f783836  /usr/include/x86
 00d0 5f36342d 6c696e75 782d676e 752f6269  _64-linux-gnu/bi
 00e0 74732f74 79706573 00746573 745f6174  ts/types.test_at
 00f0 6f695f62 6173652e 63007374 72756374  oi_base.c.struct
 0100 5f74696d 6576616c 2e680066 745f6174  _timeval.h.ft_at
 0110 6f695f62 6173655f 7265662e 6300      oi_base_ref.c.  
Contents of section .debug_str_offsets:
 0000 50000000 05000000 00000000 27000000  P...........'...
 0010 2e000000 51000000 63000000 b8010000  ....Q...c.......
 0020 71000000 7e000000 ac000000 a7020000  q...~...........
 0030 95020000 86000000 91000000 a5000000  ................
 0040 b3000000 bc000000 c1000000 c5000000  ................
 0050 ca000000 58000000 05000000 00000000  ....X...........
 0060 cf000000 2e000000 da000000 e6000000  ................
 0070 f2000000 fe000000 0a010000 c1000000  ................
 0080 12010000 ac000000 a7020000 14010000  ................
 0090 91000000 1c010000 24010000 26010000  ........$...&...
 00a0 29010000 2c010000 2f010000 32010000  )...,.../...2...
 00b0 88000000 05000000 00000000 39010000  ............9...
 00c0 2e000000 48010000 59010000 69010000  ....H...Y...i...
 00d0 7b010000 0a010000 c1000000 8c010000  {...............
 00e0 91000000 93010000 a7020000 14010000  ................
 00f0 a8010000 9b010000 a0010000 a6010000  ................
 0100 12010000 ac000000 27020000 63000000  ........'...c...
 0110 b8010000 b0010000 6c000000 b5010000  ........l.......
 0120 b7010000 bf010000 c4010000 cb010000  ................
 0130 d2010000 da010000 e3010000 a8000000  ................
 0140 05000000 00000000 ea010000 2e000000  ................
 0150 fb010000 63000000 b8010000 03020000  ....c...........
 0160 08020000 a7020000 91000000 43020000  ............C...
 0170 7a000000 c1000000 0e020000 0c020000  z...............
 0180 1c020000 2b020000 39020000 48020000  ....+...9...H...
 0190 62020000 76020000 8c020000 0a010000  b...v...........
 01a0 9e020000 12010000 b0010000 bf010000  ................
 01b0 ac020000 af020000 6c000000 b6020000  ........l.......
 01c0 bf020000 c7020000 d5020000 dd020000  ................
 01d0 22020000 31020000 24010000 f9010000  "...1...$.......
 01e0 e3020000 71020000 58000000 05000000  ....q...X.......
 01f0 00000000 e7020000 2e000000 fa020000  ................
 0200 c1000000 0b030000 19030000 25030000  ............%...
 0210 30030000 08020000 a7020000 43020000  0...........C...
 0220 3a030000 df000000 42030000 48030000  :.......B...H...
 0230 4c030000 91000000 53030000 e3020000  L.......S.......
 0240 5c030000                             \...            

Disassembly of section .plt:

0000000000401000 <free@plt-0x10>:
  401000:	ff 35 02 40 00 00    	push   QWORD PTR [rip+0x4002]        # 405008 <_GLOBAL_OFFSET_TABLE_+0x8>
  401006:	ff 25 04 40 00 00    	jmp    QWORD PTR [rip+0x4004]        # 405010 <_GLOBAL_OFFSET_TABLE_+0x10>
  40100c:	0f 1f 40 00          	nop    DWORD PTR [rax+0x0]

0000000000401010 <free@plt>:
  401010:	ff 25 02 40 00 00    	jmp    QWORD PTR [rip+0x4002]        # 405018 <free@GLIBC_2.2.5>
  401016:	68 00 00 00 00       	push   0x0
  40101b:	e9 e0 ff ff ff       	jmp    401000 <__abi_tag+0xce0>

0000000000401020 <__errno_location@plt>:
  401020:	ff 25 fa 3f 00 00    	jmp    QWORD PTR [rip+0x3ffa]        # 405020 <__errno_location@GLIBC_2.2.5>
  401026:	68 01 00 00 00       	push   0x1
  40102b:	e9 d0 ff ff ff       	jmp    401000 <__abi_tag+0xce0>

0000000000401030 <srandom@plt>:
  401030:	ff 25 f2 3f 00 00    	jmp    QWORD PTR [rip+0x3ff2]        # 405028 <srandom@GLIBC_2.2.5>
  401036:	68 02 00 00 00       	push   0x2
  40103b:	e9 c0 ff ff ff       	jmp    401000 <__abi_tag+0xce0>

0000000000401040 <strcpy@plt>:
  401040:	ff 25 ea 3f 00 00    	jmp    QWORD PTR [rip+0x3fea]        # 405030 <strcpy@GLIBC_2.2.5>
  401046:	68 03 00 00 00       	push   0x3
  40104b:	e9 b0 ff ff ff       	jmp    401000 <__abi_tag+0xce0>

0000000000401050 <write@plt>:
  401050:	ff 25 e2 3f 00 00    	jmp    QWORD PTR [rip+0x3fe2]        # 405038 <write@GLIBC_2.2.5>
  401056:	68 04 00 00 00       	push   0x4
  40105b:	e9 a0 ff ff ff       	jmp    401000 <__abi_tag+0xce0>

0000000000401060 <strlen@plt>:
  401060:	ff 25 da 3f 00 00    	jmp    QWORD PTR [rip+0x3fda]        # 405040 <strlen@GLIBC_2.2.5>
  401066:	68 05 00 00 00       	push   0x5
  40106b:	e9 90 ff ff ff       	jmp    401000 <__abi_tag+0xce0>

0000000000401070 <printf@plt>:
  401070:	ff 25 d2 3f 00 00    	jmp    QWORD PTR [rip+0x3fd2]        # 405048 <printf@GLIBC_2.2.5>
  401076:	68 06 00 00 00       	push   0x6
  40107b:	e9 80 ff ff ff       	jmp    401000 <__abi_tag+0xce0>

0000000000401080 <gettimeofday@plt>:
  401080:	ff 25 ca 3f 00 00    	jmp    QWORD PTR [rip+0x3fca]        # 405050 <gettimeofday@GLIBC_2.2.5>
  401086:	68 07 00 00 00       	push   0x7
  40108b:	e9 70 ff ff ff       	jmp    401000 <__abi_tag+0xce0>

0000000000401090 <memset@plt>:
  401090:	ff 25 c2 3f 00 00    	jmp    QWORD PTR [rip+0x3fc2]        # 405058 <memset@GLIBC_2.2.5>
  401096:	68 08 00 00 00       	push   0x8
  40109b:	e9 60 ff ff ff       	jmp    401000 <__abi_tag+0xce0>

00000000004010a0 <close@plt>:
  4010a0:	ff 25 ba 3f 00 00    	jmp    QWORD PTR [rip+0x3fba]        # 405060 <close@GLIBC_2.2.5>
  4010a6:	68 09 00 00 00       	push   0x9
  4010ab:	e9 50 ff ff ff       	jmp    401000 <__abi_tag+0xce0>

00000000004010b0 <pipe@plt>:
  4010b0:	ff 25 b2 3f 00 00    	jmp    QWORD PTR [rip+0x3fb2]        # 405068 <pipe@GLIBC_2.2.5>
  4010b6:	68 0a 00 00 00       	push   0xa
  4010bb:	e9 40 ff ff ff       	jmp    401000 <__abi_tag+0xce0>

00000000004010c0 <read@plt>:
  4010c0:	ff 25 aa 3f 00 00    	jmp    QWORD PTR [rip+0x3faa]        # 405070 <read@GLIBC_2.2.5>
  4010c6:	68 0b 00 00 00       	push   0xb
  4010cb:	e9 30 ff ff ff       	jmp    401000 <__abi_tag+0xce0>

00000000004010d0 <strcmp@plt>:
  4010d0:	ff 25 a2 3f 00 00    	jmp    QWORD PTR [rip+0x3fa2]        # 405078 <strcmp@GLIBC_2.2.5>
  4010d6:	68 0c 00 00 00       	push   0xc
  4010db:	e9 20 ff ff ff       	jmp    401000 <__abi_tag+0xce0>

00000000004010e0 <random@plt>:
  4010e0:	ff 25 9a 3f 00 00    	jmp    QWORD PTR [rip+0x3f9a]        # 405080 <random@GLIBC_2.2.5>
  4010e6:	68 0d 00 00 00       	push   0xd
  4010eb:	e9 10 ff ff ff       	jmp    401000 <__abi_tag+0xce0>

00000000004010f0 <malloc@plt>:
  4010f0:	ff 25 92 3f 00 00    	jmp    QWORD PTR [rip+0x3f92]        # 405088 <malloc@GLIBC_2.2.5>
  4010f6:	68 0e 00 00 00       	push   0xe
  4010fb:	e9 00 ff ff ff       	jmp    401000 <__abi_tag+0xce0>

0000000000401100 <strdup@plt>:
  401100:	ff 25 8a 3f 00 00    	jmp    QWORD PTR [rip+0x3f8a]        # 405090 <strdup@GLIBC_2.2.5>
  401106:	68 0f 00 00 00       	push   0xf
  40110b:	e9 f0 fe ff ff       	jmp    401000 <__abi_tag+0xce0>

0000000000401110 <strerror@plt>:
  401110:	ff 25 82 3f 00 00    	jmp    QWORD PTR [rip+0x3f82]        # 405098 <strerror@GLIBC_2.2.5>
  401116:	68 10 00 00 00       	push   0x10
  40111b:	e9 e0 fe ff ff       	jmp    401000 <__abi_tag+0xce0>

Disassembly of section .text:

0000000000401120 <_start>:
  401120:	f3 0f 1e fa          	endbr64 
  401124:	31 ed                	xor    ebp,ebp
  401126:	49 89 d1             	mov    r9,rdx
  401129:	5e                   	pop    rsi
  40112a:	48 89 e2             	mov    rdx,rsp
  40112d:	48 83 e4 f0          	and    rsp,0xfffffffffffffff0
  401131:	50                   	push   rax
  401132:	54                   	push   rsp
  401133:	45 31 c0             	xor    r8d,r8d
  401136:	31 c9                	xor    ecx,ecx
  401138:	48 c7 c7 50 11 40 00 	mov    rdi,0x401150
  40113f:	ff 15 b3 3e 00 00    	call   QWORD PTR [rip+0x3eb3]        # 404ff8 <__libc_start_main@GLIBC_2.34>
  401145:	f4                   	hlt    
  401146:	66 2e 0f 1f 84 00 00 	cs nop WORD PTR [rax+rax*1+0x0]
  40114d:	00 00 00 

0000000000401150 <main>:
  401150:	55                   	push   rbp
  401151:	48 89 e5             	mov    rbp,rsp
  401154:	48 83 ec 20          	sub    rsp,0x20
  401158:	c7 45 fc 00 00 00 00 	mov    DWORD PTR [rbp-0x4],0x0
  40115f:	89 7d f8             	mov    DWORD PTR [rbp-0x8],edi
  401162:	48 89 75 f0          	mov    QWORD PTR [rbp-0x10],rsi
  401166:	48 8b 3d e3 3f 00 00 	mov    rdi,QWORD PTR [rip+0x3fe3]        # 405150 <g_long_string_len>
  40116d:	48 83 c7 02          	add    rdi,0x2
  401171:	e8 7a ff ff ff       	call   4010f0 <malloc@plt>
  401176:	48 89 05 db 3f 00 00 	mov    QWORD PTR [rip+0x3fdb],rax        # 405158 <g_long_string>
  40117d:	48 8b 3d d4 3f 00 00 	mov    rdi,QWORD PTR [rip+0x3fd4]        # 405158 <g_long_string>
  401184:	48 8b 15 c5 3f 00 00 	mov    rdx,QWORD PTR [rip+0x3fc5]        # 405150 <g_long_string_len>
  40118b:	48 83 c2 02          	add    rdx,0x2
  40118f:	be 61 00 00 00       	mov    esi,0x61
  401194:	e8 f7 fe ff ff       	call   401090 <memset@plt>
  401199:	48 8b 05 b8 3f 00 00 	mov    rax,QWORD PTR [rip+0x3fb8]        # 405158 <g_long_string>
  4011a0:	48 8b 0d a9 3f 00 00 	mov    rcx,QWORD PTR [rip+0x3fa9]        # 405150 <g_long_string_len>
  4011a7:	c6 44 08 01 00       	mov    BYTE PTR [rax+rcx*1+0x1],0x0
  4011ac:	48 c7 05 a9 3f 00 00 	mov    QWORD PTR [rip+0x3fa9],0xe        # 405160 <g_ncases>
  4011b3:	0e 00 00 00 
  4011b7:	48 8b 0d a2 3f 00 00 	mov    rcx,QWORD PTR [rip+0x3fa2]        # 405160 <g_ncases>
  4011be:	48 83 e9 01          	sub    rcx,0x1
  4011c2:	48 8b 05 8f 3f 00 00 	mov    rax,QWORD PTR [rip+0x3f8f]        # 405158 <g_long_string>
  4011c9:	48 89 45 e8          	mov    QWORD PTR [rbp-0x18],rax
  4011cd:	48 8d 05 ec 3e 00 00 	lea    rax,[rip+0x3eec]        # 4050c0 <g_cases>
  4011d4:	48 8b 55 e8          	mov    rdx,QWORD PTR [rbp-0x18]
  4011d8:	48 89 14 c8          	mov    QWORD PTR [rax+rcx*8],rdx
  4011dc:	e8 3f 00 00 00       	call   401220 <test_strlen>
  4011e1:	e8 0a 01 00 00       	call   4012f0 <test_strcpy>
  4011e6:	e8 25 02 00 00       	call   401410 <test_strcmp>
  4011eb:	e8 30 03 00 00       	call   401520 <test_strdup>
  4011f0:	e8 3b 04 00 00       	call   401630 <test_read_normal>
  4011f5:	e8 f6 06 00 00       	call   4018f0 <test_read_error>
  4011fa:	e8 41 09 00 00       	call   401b40 <test_write_normal>
  4011ff:	e8 fc 0b 00 00       	call   401e00 <test_write_error>
  401204:	e8 47 0e 00 00       	call   402050 <test_atoi_base>
  401209:	31 c0                	xor    eax,eax
  40120b:	48 83 c4 20          	add    rsp,0x20
  40120f:	5d                   	pop    rbp
  401210:	c3                   	ret    
  401211:	66 2e 0f 1f 84 00 00 	cs nop WORD PTR [rax+rax*1+0x0]
  401218:	00 00 00 
  40121b:	0f 1f 44 00 00       	nop    DWORD PTR [rax+rax*1+0x0]

0000000000401220 <test_strlen>:
  401220:	55                   	push   rbp
  401221:	48 89 e5             	mov    rbp,rsp
  401224:	48 83 ec 20          	sub    rsp,0x20
  401228:	c7 45 fc 00 00 00 00 	mov    DWORD PTR [rbp-0x4],0x0
  40122f:	c7 45 f8 00 00 00 00 	mov    DWORD PTR [rbp-0x8],0x0
  401236:	48 63 45 f8          	movsxd rax,DWORD PTR [rbp-0x8]
  40123a:	48 c7 c1 60 51 40 00 	mov    rcx,0x405160
  401241:	48 3b 01             	cmp    rax,QWORD PTR [rcx]
  401244:	0f 83 58 00 00 00    	jae    4012a2 <test_strlen+0x82>
  40124a:	48 63 4d f8          	movsxd rcx,DWORD PTR [rbp-0x8]
  40124e:	48 c7 c0 c0 50 40 00 	mov    rax,0x4050c0
  401255:	48 8b 04 c8          	mov    rax,QWORD PTR [rax+rcx*8]
  401259:	48 89 45 f0          	mov    QWORD PTR [rbp-0x10],rax
  40125d:	48 8b 7d f0          	mov    rdi,QWORD PTR [rbp-0x10]
  401261:	e8 fa fd ff ff       	call   401060 <strlen@plt>
  401266:	48 89 45 e8          	mov    QWORD PTR [rbp-0x18],rax
  40126a:	48 8b 7d f0          	mov    rdi,QWORD PTR [rbp-0x10]
  40126e:	e8 2d 17 00 00       	call   4029a0 <ft_strlen>
  401273:	48 89 c1             	mov    rcx,rax
  401276:	48 8b 45 e8          	mov    rax,QWORD PTR [rbp-0x18]
  40127a:	48 39 c8             	cmp    rax,rcx
  40127d:	0f 85 05 00 00 00    	jne    401288 <test_strlen+0x68>
  401283:	e9 0c 00 00 00       	jmp    401294 <test_strlen+0x74>
  401288:	c7 45 fc 01 00 00 00 	mov    DWORD PTR [rbp-0x4],0x1
  40128f:	e9 0e 00 00 00       	jmp    4012a2 <test_strlen+0x82>
  401294:	8b 45 f8             	mov    eax,DWORD PTR [rbp-0x8]
  401297:	83 c0 01             	add    eax,0x1
  40129a:	89 45 f8             	mov    DWORD PTR [rbp-0x8],eax
  40129d:	e9 94 ff ff ff       	jmp    401236 <test_strlen+0x16>
  4012a2:	83 7d fc 00          	cmp    DWORD PTR [rbp-0x4],0x0
  4012a6:	0f 84 1a 00 00 00    	je     4012c6 <test_strlen+0xa6>
  4012ac:	48 8d 3d a4 1d 00 00 	lea    rdi,[rip+0x1da4]        # 403057 <_IO_stdin_used+0x57>
  4012b3:	48 8d 35 a6 1d 00 00 	lea    rsi,[rip+0x1da6]        # 403060 <_IO_stdin_used+0x60>
  4012ba:	b0 00                	mov    al,0x0
  4012bc:	e8 af fd ff ff       	call   401070 <printf@plt>
  4012c1:	e9 15 00 00 00       	jmp    4012db <test_strlen+0xbb>
  4012c6:	48 8d 3d 9f 1d 00 00 	lea    rdi,[rip+0x1d9f]        # 40306c <_IO_stdin_used+0x6c>
  4012cd:	48 8d 35 8c 1d 00 00 	lea    rsi,[rip+0x1d8c]        # 403060 <_IO_stdin_used+0x60>
  4012d4:	b0 00                	mov    al,0x0
  4012d6:	e8 95 fd ff ff       	call   401070 <printf@plt>
  4012db:	48 83 c4 20          	add    rsp,0x20
  4012df:	5d                   	pop    rbp
  4012e0:	c3                   	ret    
  4012e1:	66 2e 0f 1f 84 00 00 	cs nop WORD PTR [rax+rax*1+0x0]
  4012e8:	00 00 00 
  4012eb:	0f 1f 44 00 00       	nop    DWORD PTR [rax+rax*1+0x0]

00000000004012f0 <test_strcpy>:
  4012f0:	55                   	push   rbp
  4012f1:	48 89 e5             	mov    rbp,rsp
  4012f4:	48 81 ec 10 08 00 00 	sub    rsp,0x810
  4012fb:	c7 85 fc f7 ff ff 00 	mov    DWORD PTR [rbp-0x804],0x0
  401302:	00 00 00 
  401305:	c7 85 f8 f7 ff ff 00 	mov    DWORD PTR [rbp-0x808],0x0
  40130c:	00 00 00 
  40130f:	48 63 85 f8 f7 ff ff 	movsxd rax,DWORD PTR [rbp-0x808]
  401316:	48 c7 c1 60 51 40 00 	mov    rcx,0x405160
  40131d:	48 3b 01             	cmp    rax,QWORD PTR [rcx]
  401320:	0f 83 9f 00 00 00    	jae    4013c5 <test_strcpy+0xd5>
  401326:	48 63 8d f8 f7 ff ff 	movsxd rcx,DWORD PTR [rbp-0x808]
  40132d:	48 c7 c0 c0 50 40 00 	mov    rax,0x4050c0
  401334:	48 8b 04 c8          	mov    rax,QWORD PTR [rax+rcx*8]
  401338:	48 89 85 f0 f7 ff ff 	mov    QWORD PTR [rbp-0x810],rax
  40133f:	48 8b 85 f0 f7 ff ff 	mov    rax,QWORD PTR [rbp-0x810]
  401346:	48 c7 c1 58 51 40 00 	mov    rcx,0x405158
  40134d:	48 3b 01             	cmp    rax,QWORD PTR [rcx]
  401350:	0f 85 05 00 00 00    	jne    40135b <test_strcpy+0x6b>
  401356:	e9 56 00 00 00       	jmp    4013b1 <test_strcpy+0xc1>
  40135b:	48 8d bd 00 fc ff ff 	lea    rdi,[rbp-0x400]
  401362:	48 8b b5 f0 f7 ff ff 	mov    rsi,QWORD PTR [rbp-0x810]
  401369:	e8 d2 fc ff ff       	call   401040 <strcpy@plt>
  40136e:	48 8d bd 00 f8 ff ff 	lea    rdi,[rbp-0x800]
  401375:	48 8b b5 f0 f7 ff ff 	mov    rsi,QWORD PTR [rbp-0x810]
  40137c:	e8 3f 16 00 00       	call   4029c0 <ft_strcpy>
  401381:	48 8d bd 00 fc ff ff 	lea    rdi,[rbp-0x400]
  401388:	48 8d b5 00 f8 ff ff 	lea    rsi,[rbp-0x800]
  40138f:	e8 3c fd ff ff       	call   4010d0 <strcmp@plt>
  401394:	83 f8 00             	cmp    eax,0x0
  401397:	0f 85 05 00 00 00    	jne    4013a2 <test_strcpy+0xb2>
  40139d:	e9 0f 00 00 00       	jmp    4013b1 <test_strcpy+0xc1>
  4013a2:	c7 85 fc f7 ff ff 01 	mov    DWORD PTR [rbp-0x804],0x1
  4013a9:	00 00 00 
  4013ac:	e9 14 00 00 00       	jmp    4013c5 <test_strcpy+0xd5>
  4013b1:	8b 85 f8 f7 ff ff    	mov    eax,DWORD PTR [rbp-0x808]
  4013b7:	83 c0 01             	add    eax,0x1
  4013ba:	89 85 f8 f7 ff ff    	mov    DWORD PTR [rbp-0x808],eax
  4013c0:	e9 4a ff ff ff       	jmp    40130f <test_strcpy+0x1f>
  4013c5:	83 bd fc f7 ff ff 00 	cmp    DWORD PTR [rbp-0x804],0x0
  4013cc:	0f 84 1a 00 00 00    	je     4013ec <test_strcpy+0xfc>
  4013d2:	48 8d 3d 7e 1c 00 00 	lea    rdi,[rip+0x1c7e]        # 403057 <_IO_stdin_used+0x57>
  4013d9:	48 8d 35 98 1c 00 00 	lea    rsi,[rip+0x1c98]        # 403078 <_IO_stdin_used+0x78>
  4013e0:	b0 00                	mov    al,0x0
  4013e2:	e8 89 fc ff ff       	call   401070 <printf@plt>
  4013e7:	e9 15 00 00 00       	jmp    401401 <test_strcpy+0x111>
  4013ec:	48 8d 3d 79 1c 00 00 	lea    rdi,[rip+0x1c79]        # 40306c <_IO_stdin_used+0x6c>
  4013f3:	48 8d 35 7e 1c 00 00 	lea    rsi,[rip+0x1c7e]        # 403078 <_IO_stdin_used+0x78>
  4013fa:	b0 00                	mov    al,0x0
  4013fc:	e8 6f fc ff ff       	call   401070 <printf@plt>
  401401:	48 81 c4 10 08 00 00 	add    rsp,0x810
  401408:	5d                   	pop    rbp
  401409:	c3                   	ret    
  40140a:	66 0f 1f 44 00 00    	nop    WORD PTR [rax+rax*1+0x0]

0000000000401410 <test_strcmp>:
  401410:	55                   	push   rbp
  401411:	48 89 e5             	mov    rbp,rsp
  401414:	48 83 ec 30          	sub    rsp,0x30
  401418:	c7 45 fc 00 00 00 00 	mov    DWORD PTR [rbp-0x4],0x0
  40141f:	c7 45 f8 00 00 00 00 	mov    DWORD PTR [rbp-0x8],0x0
  401426:	48 63 45 f8          	movsxd rax,DWORD PTR [rbp-0x8]
  40142a:	48 c7 c1 60 51 40 00 	mov    rcx,0x405160
  401431:	48 3b 01             	cmp    rax,QWORD PTR [rcx]
  401434:	0f 83 9d 00 00 00    	jae    4014d7 <test_strcmp+0xc7>
  40143a:	c7 45 f4 00 00 00 00 	mov    DWORD PTR [rbp-0xc],0x0
  401441:	48 63 45 f4          	movsxd rax,DWORD PTR [rbp-0xc]
  401445:	48 c7 c1 60 51 40 00 	mov    rcx,0x405160
  40144c:	48 3b 01             	cmp    rax,QWORD PTR [rcx]
  40144f:	0f 83 6f 00 00 00    	jae    4014c4 <test_strcmp+0xb4>
  401455:	48 63 4d f8          	movsxd rcx,DWORD PTR [rbp-0x8]
  401459:	48 c7 c0 c0 50 40 00 	mov    rax,0x4050c0
  401460:	48 8b 04 c8          	mov    rax,QWORD PTR [rax+rcx*8]
  401464:	48 89 45 e8          	mov    QWORD PTR [rbp-0x18],rax
  401468:	48 63 4d f4          	movsxd rcx,DWORD PTR [rbp-0xc]
  40146c:	48 c7 c0 c0 50 40 00 	mov    rax,0x4050c0
  401473:	48 8b 04 c8          	mov    rax,QWORD PTR [rax+rcx*8]
  401477:	48 89 45 e0          	mov    QWORD PTR [rbp-0x20],rax
  40147b:	48 8b 7d e8          	mov    rdi,QWORD PTR [rbp-0x18]
  40147f:	48 8b 75 e0          	mov    rsi,QWORD PTR [rbp-0x20]
  401483:	e8 48 fc ff ff       	call   4010d0 <strcmp@plt>
  401488:	89 45 dc             	mov    DWORD PTR [rbp-0x24],eax
  40148b:	48 8b 7d e8          	mov    rdi,QWORD PTR [rbp-0x18]
  40148f:	48 8b 75 e0          	mov    rsi,QWORD PTR [rbp-0x20]
  401493:	e8 48 15 00 00       	call   4029e0 <ft_strcmp>
  401498:	89 c1                	mov    ecx,eax
  40149a:	8b 45 dc             	mov    eax,DWORD PTR [rbp-0x24]
  40149d:	39 c8                	cmp    eax,ecx
  40149f:	0f 85 05 00 00 00    	jne    4014aa <test_strcmp+0x9a>
  4014a5:	e9 0c 00 00 00       	jmp    4014b6 <test_strcmp+0xa6>
  4014aa:	c7 45 fc 01 00 00 00 	mov    DWORD PTR [rbp-0x4],0x1
  4014b1:	e9 0e 00 00 00       	jmp    4014c4 <test_strcmp+0xb4>
  4014b6:	8b 45 f4             	mov    eax,DWORD PTR [rbp-0xc]
  4014b9:	83 c0 01             	add    eax,0x1
  4014bc:	89 45 f4             	mov    DWORD PTR [rbp-0xc],eax
  4014bf:	e9 7d ff ff ff       	jmp    401441 <test_strcmp+0x31>
  4014c4:	e9 00 00 00 00       	jmp    4014c9 <test_strcmp+0xb9>
  4014c9:	8b 45 f8             	mov    eax,DWORD PTR [rbp-0x8]
  4014cc:	83 c0 01             	add    eax,0x1
  4014cf:	89 45 f8             	mov    DWORD PTR [rbp-0x8],eax
  4014d2:	e9 4f ff ff ff       	jmp    401426 <test_strcmp+0x16>
  4014d7:	83 7d fc 00          	cmp    DWORD PTR [rbp-0x4],0x0
  4014db:	0f 84 1a 00 00 00    	je     4014fb <test_strcmp+0xeb>
  4014e1:	48 8d 3d 6f 1b 00 00 	lea    rdi,[rip+0x1b6f]        # 403057 <_IO_stdin_used+0x57>
  4014e8:	48 8d 35 95 1b 00 00 	lea    rsi,[rip+0x1b95]        # 403084 <_IO_stdin_used+0x84>
  4014ef:	b0 00                	mov    al,0x0
  4014f1:	e8 7a fb ff ff       	call   401070 <printf@plt>
  4014f6:	e9 15 00 00 00       	jmp    401510 <test_strcmp+0x100>
  4014fb:	48 8d 3d 6a 1b 00 00 	lea    rdi,[rip+0x1b6a]        # 40306c <_IO_stdin_used+0x6c>
  401502:	48 8d 35 7b 1b 00 00 	lea    rsi,[rip+0x1b7b]        # 403084 <_IO_stdin_used+0x84>
  401509:	b0 00                	mov    al,0x0
  40150b:	e8 60 fb ff ff       	call   401070 <printf@plt>
  401510:	48 83 c4 30          	add    rsp,0x30
  401514:	5d                   	pop    rbp
  401515:	c3                   	ret    
  401516:	66 2e 0f 1f 84 00 00 	cs nop WORD PTR [rax+rax*1+0x0]
  40151d:	00 00 00 

0000000000401520 <test_strdup>:
  401520:	55                   	push   rbp
  401521:	48 89 e5             	mov    rbp,rsp
  401524:	48 83 ec 30          	sub    rsp,0x30
  401528:	c7 45 fc 00 00 00 00 	mov    DWORD PTR [rbp-0x4],0x0
  40152f:	c7 45 f8 00 00 00 00 	mov    DWORD PTR [rbp-0x8],0x0
  401536:	48 63 45 f8          	movsxd rax,DWORD PTR [rbp-0x8]
  40153a:	48 c7 c1 60 51 40 00 	mov    rcx,0x405160
  401541:	48 3b 01             	cmp    rax,QWORD PTR [rcx]
  401544:	0f 83 a6 00 00 00    	jae    4015f0 <test_strdup+0xd0>
  40154a:	48 63 4d f8          	movsxd rcx,DWORD PTR [rbp-0x8]
  40154e:	48 c7 c0 c0 50 40 00 	mov    rax,0x4050c0
  401555:	48 8b 04 c8          	mov    rax,QWORD PTR [rax+rcx*8]
  401559:	48 89 45 f0          	mov    QWORD PTR [rbp-0x10],rax
  40155d:	48 8b 7d f0          	mov    rdi,QWORD PTR [rbp-0x10]
  401561:	e8 9a fb ff ff       	call   401100 <strdup@plt>
  401566:	48 89 45 e8          	mov    QWORD PTR [rbp-0x18],rax
  40156a:	48 8b 7d f0          	mov    rdi,QWORD PTR [rbp-0x10]
  40156e:	e8 ad 14 00 00       	call   402a20 <ft_strdup>
  401573:	48 89 45 e0          	mov    QWORD PTR [rbp-0x20],rax
  401577:	48 8b 7d e8          	mov    rdi,QWORD PTR [rbp-0x18]
  40157b:	48 8b 75 e0          	mov    rsi,QWORD PTR [rbp-0x20]
  40157f:	e8 4c fb ff ff       	call   4010d0 <strcmp@plt>
  401584:	89 c1                	mov    ecx,eax
  401586:	31 c0                	xor    eax,eax
  401588:	83 f9 00             	cmp    ecx,0x0
  40158b:	88 45 db             	mov    BYTE PTR [rbp-0x25],al
  40158e:	0f 85 16 00 00 00    	jne    4015aa <test_strdup+0x8a>
  401594:	48 8b 7d e8          	mov    rdi,QWORD PTR [rbp-0x18]
  401598:	48 8b 75 e0          	mov    rsi,QWORD PTR [rbp-0x20]
  40159c:	e8 3f 14 00 00       	call   4029e0 <ft_strcmp>
  4015a1:	83 f8 00             	cmp    eax,0x0
  4015a4:	0f 94 c0             	sete   al
  4015a7:	88 45 db             	mov    BYTE PTR [rbp-0x25],al
  4015aa:	8a 45 db             	mov    al,BYTE PTR [rbp-0x25]
  4015ad:	24 01                	and    al,0x1
  4015af:	0f b6 c0             	movzx  eax,al
  4015b2:	89 45 dc             	mov    DWORD PTR [rbp-0x24],eax
  4015b5:	48 8b 7d e8          	mov    rdi,QWORD PTR [rbp-0x18]
  4015b9:	e8 52 fa ff ff       	call   401010 <free@plt>
  4015be:	48 8b 7d e0          	mov    rdi,QWORD PTR [rbp-0x20]
  4015c2:	e8 49 fa ff ff       	call   401010 <free@plt>
  4015c7:	83 7d dc 00          	cmp    DWORD PTR [rbp-0x24],0x0
  4015cb:	0f 84 05 00 00 00    	je     4015d6 <test_strdup+0xb6>
  4015d1:	e9 0c 00 00 00       	jmp    4015e2 <test_strdup+0xc2>
  4015d6:	c7 45 fc 01 00 00 00 	mov    DWORD PTR [rbp-0x4],0x1
  4015dd:	e9 0e 00 00 00       	jmp    4015f0 <test_strdup+0xd0>
  4015e2:	8b 45 f8             	mov    eax,DWORD PTR [rbp-0x8]
  4015e5:	83 c0 01             	add    eax,0x1
  4015e8:	89 45 f8             	mov    DWORD PTR [rbp-0x8],eax
  4015eb:	e9 46 ff ff ff       	jmp    401536 <test_strdup+0x16>
  4015f0:	83 7d fc 00          	cmp    DWORD PTR [rbp-0x4],0x0
  4015f4:	0f 84 1a 00 00 00    	je     401614 <test_strdup+0xf4>
  4015fa:	48 8d 3d 56 1a 00 00 	lea    rdi,[rip+0x1a56]        # 403057 <_IO_stdin_used+0x57>
  401601:	48 8d 35 88 1a 00 00 	lea    rsi,[rip+0x1a88]        # 403090 <_IO_stdin_used+0x90>
  401608:	b0 00                	mov    al,0x0
  40160a:	e8 61 fa ff ff       	call   401070 <printf@plt>
  40160f:	e9 15 00 00 00       	jmp    401629 <test_strdup+0x109>
  401614:	48 8d 3d 51 1a 00 00 	lea    rdi,[rip+0x1a51]        # 40306c <_IO_stdin_used+0x6c>
  40161b:	48 8d 35 6e 1a 00 00 	lea    rsi,[rip+0x1a6e]        # 403090 <_IO_stdin_used+0x90>
  401622:	b0 00                	mov    al,0x0
  401624:	e8 47 fa ff ff       	call   401070 <printf@plt>
  401629:	48 83 c4 30          	add    rsp,0x30
  40162d:	5d                   	pop    rbp
  40162e:	c3                   	ret    
  40162f:	90                   	nop

0000000000401630 <test_read_normal>:
  401630:	55                   	push   rbp
  401631:	48 89 e5             	mov    rbp,rsp
  401634:	48 81 ec 60 08 00 00 	sub    rsp,0x860
  40163b:	48 8d 7d f4          	lea    rdi,[rbp-0xc]
  40163f:	e8 6c fa ff ff       	call   4010b0 <pipe@plt>
  401644:	83 f8 00             	cmp    eax,0x0
  401647:	0f 8d 13 00 00 00    	jge    401660 <test_read_normal+0x30>
  40164d:	48 8d 3d 48 1a 00 00 	lea    rdi,[rip+0x1a48]        # 40309c <_IO_stdin_used+0x9c>
  401654:	b0 00                	mov    al,0x0
  401656:	e8 15 fa ff ff       	call   401070 <printf@plt>
  40165b:	e9 7e 02 00 00       	jmp    4018de <test_read_normal+0x2ae>
  401660:	48 8d 45 f4          	lea    rax,[rbp-0xc]
  401664:	48 89 85 e8 f7 ff ff 	mov    QWORD PTR [rbp-0x818],rax
  40166b:	c7 85 e4 f7 ff ff 00 	mov    DWORD PTR [rbp-0x81c],0x0
  401672:	00 00 00 
  401675:	48 63 85 e4 f7 ff ff 	movsxd rax,DWORD PTR [rbp-0x81c]
  40167c:	48 c7 c1 60 51 40 00 	mov    rcx,0x405160
  401683:	48 3b 01             	cmp    rax,QWORD PTR [rcx]
  401686:	0f 83 fc 01 00 00    	jae    401888 <test_read_normal+0x258>
  40168c:	48 63 8d e4 f7 ff ff 	movsxd rcx,DWORD PTR [rbp-0x81c]
  401693:	48 c7 c0 c0 50 40 00 	mov    rax,0x4050c0
  40169a:	48 8b 04 c8          	mov    rax,QWORD PTR [rax+rcx*8]
  40169e:	48 89 85 d8 f7 ff ff 	mov    QWORD PTR [rbp-0x828],rax
  4016a5:	48 8b 85 d8 f7 ff ff 	mov    rax,QWORD PTR [rbp-0x828]
  4016ac:	48 c7 c1 58 51 40 00 	mov    rcx,0x405158
  4016b3:	48 3b 01             	cmp    rax,QWORD PTR [rcx]
  4016b6:	0f 85 05 00 00 00    	jne    4016c1 <test_read_normal+0x91>
  4016bc:	e9 b3 01 00 00       	jmp    401874 <test_read_normal+0x244>
  4016c1:	48 8b bd d8 f7 ff ff 	mov    rdi,QWORD PTR [rbp-0x828]
  4016c8:	e8 93 f9 ff ff       	call   401060 <strlen@plt>
  4016cd:	48 89 85 d0 f7 ff ff 	mov    QWORD PTR [rbp-0x830],rax
  4016d4:	48 8d bd f0 fb ff ff 	lea    rdi,[rbp-0x410]
  4016db:	31 f6                	xor    esi,esi
  4016dd:	ba 00 04 00 00       	mov    edx,0x400
  4016e2:	e8 a9 f9 ff ff       	call   401090 <memset@plt>
  4016e7:	48 8d bd f0 f7 ff ff 	lea    rdi,[rbp-0x810]
  4016ee:	31 f6                	xor    esi,esi
  4016f0:	ba 00 04 00 00       	mov    edx,0x400
  4016f5:	e8 96 f9 ff ff       	call   401090 <memset@plt>
  4016fa:	e8 21 f9 ff ff       	call   401020 <__errno_location@plt>
  4016ff:	c7 00 00 00 00 00    	mov    DWORD PTR [rax],0x0
  401705:	48 8b 85 e8 f7 ff ff 	mov    rax,QWORD PTR [rbp-0x818]
  40170c:	8b 78 04             	mov    edi,DWORD PTR [rax+0x4]
  40170f:	48 8b b5 d8 f7 ff ff 	mov    rsi,QWORD PTR [rbp-0x828]
  401716:	48 8b 95 d0 f7 ff ff 	mov    rdx,QWORD PTR [rbp-0x830]
  40171d:	e8 2e f9 ff ff       	call   401050 <write@plt>
  401722:	48 8b 85 e8 f7 ff ff 	mov    rax,QWORD PTR [rbp-0x818]
  401729:	8b 38                	mov    edi,DWORD PTR [rax]
  40172b:	48 8d b5 f0 fb ff ff 	lea    rsi,[rbp-0x410]
  401732:	48 8b 95 d0 f7 ff ff 	mov    rdx,QWORD PTR [rbp-0x830]
  401739:	e8 82 f9 ff ff       	call   4010c0 <read@plt>
  40173e:	48 89 85 c8 f7 ff ff 	mov    QWORD PTR [rbp-0x838],rax
  401745:	e8 d6 f8 ff ff       	call   401020 <__errno_location@plt>
  40174a:	8b 00                	mov    eax,DWORD PTR [rax]
  40174c:	89 85 bc f7 ff ff    	mov    DWORD PTR [rbp-0x844],eax
  401752:	e8 c9 f8 ff ff       	call   401020 <__errno_location@plt>
  401757:	c7 00 00 00 00 00    	mov    DWORD PTR [rax],0x0
  40175d:	48 8b 85 e8 f7 ff ff 	mov    rax,QWORD PTR [rbp-0x818]
  401764:	8b 78 04             	mov    edi,DWORD PTR [rax+0x4]
  401767:	48 8b b5 d8 f7 ff ff 	mov    rsi,QWORD PTR [rbp-0x828]
  40176e:	48 8b 95 d0 f7 ff ff 	mov    rdx,QWORD PTR [rbp-0x830]
  401775:	e8 d6 f8 ff ff       	call   401050 <write@plt>
  40177a:	48 8b 85 e8 f7 ff ff 	mov    rax,QWORD PTR [rbp-0x818]
  401781:	8b 38                	mov    edi,DWORD PTR [rax]
  401783:	48 8d b5 f0 f7 ff ff 	lea    rsi,[rbp-0x810]
  40178a:	48 8b 95 d0 f7 ff ff 	mov    rdx,QWORD PTR [rbp-0x830]
  401791:	e8 ca 12 00 00       	call   402a60 <ft_read>
  401796:	48 89 85 c0 f7 ff ff 	mov    QWORD PTR [rbp-0x840],rax
  40179d:	e8 7e f8 ff ff       	call   401020 <__errno_location@plt>
  4017a2:	8b 00                	mov    eax,DWORD PTR [rax]
  4017a4:	89 85 b8 f7 ff ff    	mov    DWORD PTR [rbp-0x848],eax
  4017aa:	48 8d bd f0 fb ff ff 	lea    rdi,[rbp-0x410]
  4017b1:	48 8d b5 f0 f7 ff ff 	lea    rsi,[rbp-0x810]
  4017b8:	e8 13 f9 ff ff       	call   4010d0 <strcmp@plt>
  4017bd:	83 f8 00             	cmp    eax,0x0
  4017c0:	0f 85 2b 00 00 00    	jne    4017f1 <test_read_normal+0x1c1>
  4017c6:	8b 85 bc f7 ff ff    	mov    eax,DWORD PTR [rbp-0x844]
  4017cc:	3b 85 b8 f7 ff ff    	cmp    eax,DWORD PTR [rbp-0x848]
  4017d2:	0f 85 19 00 00 00    	jne    4017f1 <test_read_normal+0x1c1>
  4017d8:	48 8b 85 c8 f7 ff ff 	mov    rax,QWORD PTR [rbp-0x838]
  4017df:	48 3b 85 c0 f7 ff ff 	cmp    rax,QWORD PTR [rbp-0x840]
  4017e6:	0f 85 05 00 00 00    	jne    4017f1 <test_read_normal+0x1c1>
  4017ec:	e9 83 00 00 00       	jmp    401874 <test_read_normal+0x244>
  4017f1:	8b b5 e4 f7 ff ff    	mov    esi,DWORD PTR [rbp-0x81c]
  4017f7:	83 c6 01             	add    esi,0x1
  4017fa:	48 8d 3d a8 18 00 00 	lea    rdi,[rip+0x18a8]        # 4030a9 <_IO_stdin_used+0xa9>
  401801:	b0 00                	mov    al,0x0
  401803:	e8 68 f8 ff ff       	call   401070 <printf@plt>
  401808:	8b bd bc f7 ff ff    	mov    edi,DWORD PTR [rbp-0x844]
  40180e:	e8 fd f8 ff ff       	call   401110 <strerror@plt>
  401813:	48 89 85 a8 f7 ff ff 	mov    QWORD PTR [rbp-0x858],rax
  40181a:	8b 85 bc f7 ff ff    	mov    eax,DWORD PTR [rbp-0x844]
  401820:	89 85 b4 f7 ff ff    	mov    DWORD PTR [rbp-0x84c],eax
  401826:	8b bd b8 f7 ff ff    	mov    edi,DWORD PTR [rbp-0x848]
  40182c:	e8 df f8 ff ff       	call   401110 <strerror@plt>
  401831:	48 8b b5 a8 f7 ff ff 	mov    rsi,QWORD PTR [rbp-0x858]
  401838:	8b 95 b4 f7 ff ff    	mov    edx,DWORD PTR [rbp-0x84c]
  40183e:	48 89 c1             	mov    rcx,rax
  401841:	44 8b 85 b8 f7 ff ff 	mov    r8d,DWORD PTR [rbp-0x848]
  401848:	4c 8b 8d c8 f7 ff ff 	mov    r9,QWORD PTR [rbp-0x838]
  40184f:	48 8b 85 c0 f7 ff ff 	mov    rax,QWORD PTR [rbp-0x840]
  401856:	48 8d 3d 51 18 00 00 	lea    rdi,[rip+0x1851]        # 4030ae <_IO_stdin_used+0xae>
  40185d:	48 89 04 24          	mov    QWORD PTR [rsp],rax
  401861:	b0 00                	mov    al,0x0
  401863:	e8 08 f8 ff ff       	call   401070 <printf@plt>
  401868:	c7 45 fc 01 00 00 00 	mov    DWORD PTR [rbp-0x4],0x1
  40186f:	e9 14 00 00 00       	jmp    401888 <test_read_normal+0x258>
  401874:	8b 85 e4 f7 ff ff    	mov    eax,DWORD PTR [rbp-0x81c]
  40187a:	83 c0 01             	add    eax,0x1
  40187d:	89 85 e4 f7 ff ff    	mov    DWORD PTR [rbp-0x81c],eax
  401883:	e9 ed fd ff ff       	jmp    401675 <test_read_normal+0x45>
  401888:	48 8b 85 e8 f7 ff ff 	mov    rax,QWORD PTR [rbp-0x818]
  40188f:	8b 78 04             	mov    edi,DWORD PTR [rax+0x4]
  401892:	e8 09 f8 ff ff       	call   4010a0 <close@plt>
  401897:	48 8b 85 e8 f7 ff ff 	mov    rax,QWORD PTR [rbp-0x818]
  40189e:	8b 38                	mov    edi,DWORD PTR [rax]
  4018a0:	e8 fb f7 ff ff       	call   4010a0 <close@plt>
  4018a5:	83 7d fc 00          	cmp    DWORD PTR [rbp-0x4],0x0
  4018a9:	0f 84 1a 00 00 00    	je     4018c9 <test_read_normal+0x299>
  4018af:	48 8d 3d a1 17 00 00 	lea    rdi,[rip+0x17a1]        # 403057 <_IO_stdin_used+0x57>
  4018b6:	48 8d 35 1a 18 00 00 	lea    rsi,[rip+0x181a]        # 4030d7 <_IO_stdin_used+0xd7>
  4018bd:	b0 00                	mov    al,0x0
  4018bf:	e8 ac f7 ff ff       	call   401070 <printf@plt>
  4018c4:	e9 15 00 00 00       	jmp    4018de <test_read_normal+0x2ae>
  4018c9:	48 8d 3d 9c 17 00 00 	lea    rdi,[rip+0x179c]        # 40306c <_IO_stdin_used+0x6c>
  4018d0:	48 8d 35 00 18 00 00 	lea    rsi,[rip+0x1800]        # 4030d7 <_IO_stdin_used+0xd7>
  4018d7:	b0 00                	mov    al,0x0
  4018d9:	e8 92 f7 ff ff       	call   401070 <printf@plt>
  4018de:	48 81 c4 60 08 00 00 	add    rsp,0x860
  4018e5:	5d                   	pop    rbp
  4018e6:	c3                   	ret    
  4018e7:	66 0f 1f 84 00 00 00 	nop    WORD PTR [rax+rax*1+0x0]
  4018ee:	00 00 

00000000004018f0 <test_read_error>:
  4018f0:	55                   	push   rbp
  4018f1:	48 89 e5             	mov    rbp,rsp
  4018f4:	48 81 ec 90 00 00 00 	sub    rsp,0x90
  4018fb:	48 8b 05 1e 18 00 00 	mov    rax,QWORD PTR [rip+0x181e]        # 403120 <_IO_stdin_used+0x120>
  401902:	48 89 45 e0          	mov    QWORD PTR [rbp-0x20],rax
  401906:	48 8b 05 1b 18 00 00 	mov    rax,QWORD PTR [rip+0x181b]        # 403128 <_IO_stdin_used+0x128>
  40190d:	48 89 45 e8          	mov    QWORD PTR [rbp-0x18],rax
  401911:	8b 05 19 18 00 00    	mov    eax,DWORD PTR [rip+0x1819]        # 403130 <_IO_stdin_used+0x130>
  401917:	89 45 f0             	mov    DWORD PTR [rbp-0x10],eax
  40191a:	c7 45 dc 05 00 00 00 	mov    DWORD PTR [rbp-0x24],0x5
  401921:	48 8d 7d d4          	lea    rdi,[rbp-0x2c]
  401925:	31 f6                	xor    esi,esi
  401927:	ba 08 00 00 00       	mov    edx,0x8
  40192c:	e8 5f f7 ff ff       	call   401090 <memset@plt>
  401931:	c7 45 d0 00 00 00 00 	mov    DWORD PTR [rbp-0x30],0x0
  401938:	8b 45 d0             	mov    eax,DWORD PTR [rbp-0x30]
  40193b:	3b 45 dc             	cmp    eax,DWORD PTR [rbp-0x24]
  40193e:	0f 8d ed 00 00 00    	jge    401a31 <test_read_error+0x141>
  401944:	e8 d7 f6 ff ff       	call   401020 <__errno_location@plt>
  401949:	c7 00 00 00 00 00    	mov    DWORD PTR [rax],0x0
  40194f:	48 63 45 d0          	movsxd rax,DWORD PTR [rbp-0x30]
  401953:	8b 7c 85 e0          	mov    edi,DWORD PTR [rbp+rax*4-0x20]
  401957:	48 8d 75 d4          	lea    rsi,[rbp-0x2c]
  40195b:	ba 07 00 00 00       	mov    edx,0x7
  401960:	e8 5b f7 ff ff       	call   4010c0 <read@plt>
  401965:	48 89 45 c0          	mov    QWORD PTR [rbp-0x40],rax
  401969:	e8 b2 f6 ff ff       	call   401020 <__errno_location@plt>
  40196e:	8b 00                	mov    eax,DWORD PTR [rax]
  401970:	89 45 cc             	mov    DWORD PTR [rbp-0x34],eax
  401973:	e8 a8 f6 ff ff       	call   401020 <__errno_location@plt>
  401978:	c7 00 00 00 00 00    	mov    DWORD PTR [rax],0x0
  40197e:	48 63 45 d0          	movsxd rax,DWORD PTR [rbp-0x30]
  401982:	8b 7c 85 e0          	mov    edi,DWORD PTR [rbp+rax*4-0x20]
  401986:	48 8d 75 d4          	lea    rsi,[rbp-0x2c]
  40198a:	ba 07 00 00 00       	mov    edx,0x7
  40198f:	e8 cc 10 00 00       	call   402a60 <ft_read>
  401994:	48 89 45 b8          	mov    QWORD PTR [rbp-0x48],rax
  401998:	e8 83 f6 ff ff       	call   401020 <__errno_location@plt>
  40199d:	8b 00                	mov    eax,DWORD PTR [rax]
  40199f:	89 45 c8             	mov    DWORD PTR [rbp-0x38],eax
  4019a2:	8b 45 cc             	mov    eax,DWORD PTR [rbp-0x34]
  4019a5:	3b 45 c8             	cmp    eax,DWORD PTR [rbp-0x38]
  4019a8:	0f 85 13 00 00 00    	jne    4019c1 <test_read_error+0xd1>
  4019ae:	48 8b 45 c0          	mov    rax,QWORD PTR [rbp-0x40]
  4019b2:	48 3b 45 b8          	cmp    rax,QWORD PTR [rbp-0x48]
  4019b6:	0f 85 05 00 00 00    	jne    4019c1 <test_read_error+0xd1>
  4019bc:	e9 62 00 00 00       	jmp    401a23 <test_read_error+0x133>
  4019c1:	8b 75 d0             	mov    esi,DWORD PTR [rbp-0x30]
  4019c4:	83 c6 01             	add    esi,0x1
  4019c7:	48 8d 3d db 16 00 00 	lea    rdi,[rip+0x16db]        # 4030a9 <_IO_stdin_used+0xa9>
  4019ce:	b0 00                	mov    al,0x0
  4019d0:	e8 9b f6 ff ff       	call   401070 <printf@plt>
  4019d5:	8b 7d cc             	mov    edi,DWORD PTR [rbp-0x34]
  4019d8:	e8 33 f7 ff ff       	call   401110 <strerror@plt>
  4019dd:	48 89 45 90          	mov    QWORD PTR [rbp-0x70],rax
  4019e1:	8b 45 cc             	mov    eax,DWORD PTR [rbp-0x34]
  4019e4:	89 45 9c             	mov    DWORD PTR [rbp-0x64],eax
  4019e7:	8b 7d c8             	mov    edi,DWORD PTR [rbp-0x38]
  4019ea:	e8 21 f7 ff ff       	call   401110 <strerror@plt>
  4019ef:	48 8b 75 90          	mov    rsi,QWORD PTR [rbp-0x70]
  4019f3:	8b 55 9c             	mov    edx,DWORD PTR [rbp-0x64]
  4019f6:	48 89 c1             	mov    rcx,rax
  4019f9:	44 8b 45 c8          	mov    r8d,DWORD PTR [rbp-0x38]
  4019fd:	4c 8b 4d c0          	mov    r9,QWORD PTR [rbp-0x40]
  401a01:	48 8b 45 b8          	mov    rax,QWORD PTR [rbp-0x48]
  401a05:	48 8d 3d a2 16 00 00 	lea    rdi,[rip+0x16a2]        # 4030ae <_IO_stdin_used+0xae>
  401a0c:	48 89 04 24          	mov    QWORD PTR [rsp],rax
  401a10:	b0 00                	mov    al,0x0
  401a12:	e8 59 f6 ff ff       	call   401070 <printf@plt>
  401a17:	c7 45 fc 01 00 00 00 	mov    DWORD PTR [rbp-0x4],0x1
  401a1e:	e9 0e 00 00 00       	jmp    401a31 <test_read_error+0x141>
  401a23:	8b 45 d0             	mov    eax,DWORD PTR [rbp-0x30]
  401a26:	83 c0 01             	add    eax,0x1
  401a29:	89 45 d0             	mov    DWORD PTR [rbp-0x30],eax
  401a2c:	e9 07 ff ff ff       	jmp    401938 <test_read_error+0x48>
  401a31:	e8 ea f5 ff ff       	call   401020 <__errno_location@plt>
  401a36:	c7 00 00 00 00 00    	mov    DWORD PTR [rax],0x0
  401a3c:	48 8d 75 d4          	lea    rsi,[rbp-0x2c]
  401a40:	31 ff                	xor    edi,edi
  401a42:	48 c7 c2 ff ff ff ff 	mov    rdx,0xffffffffffffffff
  401a49:	e8 72 f6 ff ff       	call   4010c0 <read@plt>
  401a4e:	48 89 45 a8          	mov    QWORD PTR [rbp-0x58],rax
  401a52:	e8 c9 f5 ff ff       	call   401020 <__errno_location@plt>
  401a57:	8b 00                	mov    eax,DWORD PTR [rax]
  401a59:	89 45 b4             	mov    DWORD PTR [rbp-0x4c],eax
  401a5c:	e8 bf f5 ff ff       	call   401020 <__errno_location@plt>
  401a61:	c7 00 00 00 00 00    	mov    DWORD PTR [rax],0x0
  401a67:	48 8d 75 d4          	lea    rsi,[rbp-0x2c]
  401a6b:	31 ff                	xor    edi,edi
  401a6d:	48 c7 c2 ff ff ff ff 	mov    rdx,0xffffffffffffffff
  401a74:	e8 e7 0f 00 00       	call   402a60 <ft_read>
  401a79:	48 89 45 a0          	mov    QWORD PTR [rbp-0x60],rax
  401a7d:	e8 9e f5 ff ff       	call   401020 <__errno_location@plt>
  401a82:	8b 00                	mov    eax,DWORD PTR [rax]
  401a84:	89 45 b0             	mov    DWORD PTR [rbp-0x50],eax
  401a87:	8b 45 b4             	mov    eax,DWORD PTR [rbp-0x4c]
  401a8a:	3b 45 b0             	cmp    eax,DWORD PTR [rbp-0x50]
  401a8d:	0f 85 0e 00 00 00    	jne    401aa1 <test_read_error+0x1b1>
  401a93:	48 8b 45 a8          	mov    rax,QWORD PTR [rbp-0x58]
  401a97:	48 3b 45 a0          	cmp    rax,QWORD PTR [rbp-0x60]
  401a9b:	0f 84 57 00 00 00    	je     401af8 <test_read_error+0x208>
  401aa1:	48 8d 3d 40 16 00 00 	lea    rdi,[rip+0x1640]        # 4030e8 <_IO_stdin_used+0xe8>
  401aa8:	b0 00                	mov    al,0x0
  401aaa:	e8 c1 f5 ff ff       	call   401070 <printf@plt>
  401aaf:	8b 7d b4             	mov    edi,DWORD PTR [rbp-0x4c]
  401ab2:	e8 59 f6 ff ff       	call   401110 <strerror@plt>
  401ab7:	48 89 45 80          	mov    QWORD PTR [rbp-0x80],rax
  401abb:	8b 45 b4             	mov    eax,DWORD PTR [rbp-0x4c]
  401abe:	89 45 8c             	mov    DWORD PTR [rbp-0x74],eax
  401ac1:	8b 7d b0             	mov    edi,DWORD PTR [rbp-0x50]
  401ac4:	e8 47 f6 ff ff       	call   401110 <strerror@plt>
  401ac9:	48 8b 75 80          	mov    rsi,QWORD PTR [rbp-0x80]
  401acd:	8b 55 8c             	mov    edx,DWORD PTR [rbp-0x74]
  401ad0:	48 89 c1             	mov    rcx,rax
  401ad3:	44 8b 45 b0          	mov    r8d,DWORD PTR [rbp-0x50]
  401ad7:	4c 8b 4d a8          	mov    r9,QWORD PTR [rbp-0x58]
  401adb:	48 8b 45 a0          	mov    rax,QWORD PTR [rbp-0x60]
  401adf:	48 8d 3d c8 15 00 00 	lea    rdi,[rip+0x15c8]        # 4030ae <_IO_stdin_used+0xae>
  401ae6:	48 89 04 24          	mov    QWORD PTR [rsp],rax
  401aea:	b0 00                	mov    al,0x0
  401aec:	e8 7f f5 ff ff       	call   401070 <printf@plt>
  401af1:	c7 45 fc 01 00 00 00 	mov    DWORD PTR [rbp-0x4],0x1
  401af8:	83 7d fc 00          	cmp    DWORD PTR [rbp-0x4],0x0
  401afc:	0f 84 1a 00 00 00    	je     401b1c <test_read_error+0x22c>
  401b02:	48 8d 3d 4e 15 00 00 	lea    rdi,[rip+0x154e]        # 403057 <_IO_stdin_used+0x57>
  401b09:	48 8d 35 dc 15 00 00 	lea    rsi,[rip+0x15dc]        # 4030ec <_IO_stdin_used+0xec>
  401b10:	b0 00                	mov    al,0x0
  401b12:	e8 59 f5 ff ff       	call   401070 <printf@plt>
  401b17:	e9 15 00 00 00       	jmp    401b31 <test_read_error+0x241>
  401b1c:	48 8d 3d 49 15 00 00 	lea    rdi,[rip+0x1549]        # 40306c <_IO_stdin_used+0x6c>
  401b23:	48 8d 35 c2 15 00 00 	lea    rsi,[rip+0x15c2]        # 4030ec <_IO_stdin_used+0xec>
  401b2a:	b0 00                	mov    al,0x0
  401b2c:	e8 3f f5 ff ff       	call   401070 <printf@plt>
  401b31:	48 81 c4 90 00 00 00 	add    rsp,0x90
  401b38:	5d                   	pop    rbp
  401b39:	c3                   	ret    
  401b3a:	66 0f 1f 44 00 00    	nop    WORD PTR [rax+rax*1+0x0]

0000000000401b40 <test_write_normal>:
  401b40:	55                   	push   rbp
  401b41:	48 89 e5             	mov    rbp,rsp
  401b44:	48 81 ec 60 08 00 00 	sub    rsp,0x860
  401b4b:	48 8d 7d f4          	lea    rdi,[rbp-0xc]
  401b4f:	e8 5c f5 ff ff       	call   4010b0 <pipe@plt>
  401b54:	83 f8 00             	cmp    eax,0x0
  401b57:	0f 8d 13 00 00 00    	jge    401b70 <test_write_normal+0x30>
  401b5d:	48 8d 3d 38 15 00 00 	lea    rdi,[rip+0x1538]        # 40309c <_IO_stdin_used+0x9c>
  401b64:	b0 00                	mov    al,0x0
  401b66:	e8 05 f5 ff ff       	call   401070 <printf@plt>
  401b6b:	e9 7e 02 00 00       	jmp    401dee <test_write_normal+0x2ae>
  401b70:	48 8d 45 f4          	lea    rax,[rbp-0xc]
  401b74:	48 89 85 e8 f7 ff ff 	mov    QWORD PTR [rbp-0x818],rax
  401b7b:	c7 85 e4 f7 ff ff 00 	mov    DWORD PTR [rbp-0x81c],0x0
  401b82:	00 00 00 
  401b85:	48 63 85 e4 f7 ff ff 	movsxd rax,DWORD PTR [rbp-0x81c]
  401b8c:	48 c7 c1 60 51 40 00 	mov    rcx,0x405160
  401b93:	48 3b 01             	cmp    rax,QWORD PTR [rcx]
  401b96:	0f 83 fc 01 00 00    	jae    401d98 <test_write_normal+0x258>
  401b9c:	48 63 8d e4 f7 ff ff 	movsxd rcx,DWORD PTR [rbp-0x81c]
  401ba3:	48 c7 c0 c0 50 40 00 	mov    rax,0x4050c0
  401baa:	48 8b 04 c8          	mov    rax,QWORD PTR [rax+rcx*8]
  401bae:	48 89 85 d8 f7 ff ff 	mov    QWORD PTR [rbp-0x828],rax
  401bb5:	48 8b 85 d8 f7 ff ff 	mov    rax,QWORD PTR [rbp-0x828]
  401bbc:	48 c7 c1 58 51 40 00 	mov    rcx,0x405158
  401bc3:	48 3b 01             	cmp    rax,QWORD PTR [rcx]
  401bc6:	0f 85 05 00 00 00    	jne    401bd1 <test_write_normal+0x91>
  401bcc:	e9 b3 01 00 00       	jmp    401d84 <test_write_normal+0x244>
  401bd1:	48 8b bd d8 f7 ff ff 	mov    rdi,QWORD PTR [rbp-0x828]
  401bd8:	e8 83 f4 ff ff       	call   401060 <strlen@plt>
  401bdd:	48 89 85 d0 f7 ff ff 	mov    QWORD PTR [rbp-0x830],rax
  401be4:	48 8d bd f0 fb ff ff 	lea    rdi,[rbp-0x410]
  401beb:	31 f6                	xor    esi,esi
  401bed:	ba 00 04 00 00       	mov    edx,0x400
  401bf2:	e8 99 f4 ff ff       	call   401090 <memset@plt>
  401bf7:	48 8d bd f0 f7 ff ff 	lea    rdi,[rbp-0x810]
  401bfe:	31 f6                	xor    esi,esi
  401c00:	ba 00 04 00 00       	mov    edx,0x400
  401c05:	e8 86 f4 ff ff       	call   401090 <memset@plt>
  401c0a:	e8 11 f4 ff ff       	call   401020 <__errno_location@plt>
  401c0f:	c7 00 00 00 00 00    	mov    DWORD PTR [rax],0x0
  401c15:	48 8b 85 e8 f7 ff ff 	mov    rax,QWORD PTR [rbp-0x818]
  401c1c:	8b 78 04             	mov    edi,DWORD PTR [rax+0x4]
  401c1f:	48 8b b5 d8 f7 ff ff 	mov    rsi,QWORD PTR [rbp-0x828]
  401c26:	48 8b 95 d0 f7 ff ff 	mov    rdx,QWORD PTR [rbp-0x830]
  401c2d:	e8 1e f4 ff ff       	call   401050 <write@plt>
  401c32:	48 89 85 c8 f7 ff ff 	mov    QWORD PTR [rbp-0x838],rax
  401c39:	e8 e2 f3 ff ff       	call   401020 <__errno_location@plt>
  401c3e:	8b 00                	mov    eax,DWORD PTR [rax]
  401c40:	89 85 bc f7 ff ff    	mov    DWORD PTR [rbp-0x844],eax
  401c46:	48 8b 85 e8 f7 ff ff 	mov    rax,QWORD PTR [rbp-0x818]
  401c4d:	8b 38                	mov    edi,DWORD PTR [rax]
  401c4f:	48 8d b5 f0 fb ff ff 	lea    rsi,[rbp-0x410]
  401c56:	48 8b 95 d0 f7 ff ff 	mov    rdx,QWORD PTR [rbp-0x830]
  401c5d:	e8 5e f4 ff ff       	call   4010c0 <read@plt>
  401c62:	e8 b9 f3 ff ff       	call   401020 <__errno_location@plt>
  401c67:	c7 00 00 00 00 00    	mov    DWORD PTR [rax],0x0
  401c6d:	48 8b 85 e8 f7 ff ff 	mov    rax,QWORD PTR [rbp-0x818]
  401c74:	8b 78 04             	mov    edi,DWORD PTR [rax+0x4]
  401c77:	48 8b b5 d8 f7 ff ff 	mov    rsi,QWORD PTR [rbp-0x828]
  401c7e:	48 8b 95 d0 f7 ff ff 	mov    rdx,QWORD PTR [rbp-0x830]
  401c85:	e8 06 0e 00 00       	call   402a90 <ft_write>
  401c8a:	48 89 85 c0 f7 ff ff 	mov    QWORD PTR [rbp-0x840],rax
  401c91:	e8 8a f3 ff ff       	call   401020 <__errno_location@plt>
  401c96:	8b 00                	mov    eax,DWORD PTR [rax]
  401c98:	89 85 b8 f7 ff ff    	mov    DWORD PTR [rbp-0x848],eax
  401c9e:	48 8b 85 e8 f7 ff ff 	mov    rax,QWORD PTR [rbp-0x818]
  401ca5:	8b 38                	mov    edi,DWORD PTR [rax]
  401ca7:	48 8d b5 f0 f7 ff ff 	lea    rsi,[rbp-0x810]
  401cae:	48 8b 95 d0 f7 ff ff 	mov    rdx,QWORD PTR [rbp-0x830]
  401cb5:	e8 06 f4 ff ff       	call   4010c0 <read@plt>
  401cba:	48 8d bd f0 fb ff ff 	lea    rdi,[rbp-0x410]
  401cc1:	48 8d b5 f0 f7 ff ff 	lea    rsi,[rbp-0x810]
  401cc8:	e8 03 f4 ff ff       	call   4010d0 <strcmp@plt>
  401ccd:	83 f8 00             	cmp    eax,0x0
  401cd0:	0f 85 2b 00 00 00    	jne    401d01 <test_write_normal+0x1c1>
  401cd6:	8b 85 bc f7 ff ff    	mov    eax,DWORD PTR [rbp-0x844]
  401cdc:	3b 85 b8 f7 ff ff    	cmp    eax,DWORD PTR [rbp-0x848]
  401ce2:	0f 85 19 00 00 00    	jne    401d01 <test_write_normal+0x1c1>
  401ce8:	48 8b 85 c8 f7 ff ff 	mov    rax,QWORD PTR [rbp-0x838]
  401cef:	48 3b 85 c0 f7 ff ff 	cmp    rax,QWORD PTR [rbp-0x840]
  401cf6:	0f 85 05 00 00 00    	jne    401d01 <test_write_normal+0x1c1>
  401cfc:	e9 83 00 00 00       	jmp    401d84 <test_write_normal+0x244>
  401d01:	8b b5 e4 f7 ff ff    	mov    esi,DWORD PTR [rbp-0x81c]
  401d07:	83 c6 01             	add    esi,0x1
  401d0a:	48 8d 3d 98 13 00 00 	lea    rdi,[rip+0x1398]        # 4030a9 <_IO_stdin_used+0xa9>
  401d11:	b0 00                	mov    al,0x0
  401d13:	e8 58 f3 ff ff       	call   401070 <printf@plt>
  401d18:	8b bd bc f7 ff ff    	mov    edi,DWORD PTR [rbp-0x844]
  401d1e:	e8 ed f3 ff ff       	call   401110 <strerror@plt>
  401d23:	48 89 85 a8 f7 ff ff 	mov    QWORD PTR [rbp-0x858],rax
  401d2a:	8b 85 bc f7 ff ff    	mov    eax,DWORD PTR [rbp-0x844]
  401d30:	89 85 b4 f7 ff ff    	mov    DWORD PTR [rbp-0x84c],eax
  401d36:	8b bd b8 f7 ff ff    	mov    edi,DWORD PTR [rbp-0x848]
  401d3c:	e8 cf f3 ff ff       	call   401110 <strerror@plt>
  401d41:	48 8b b5 a8 f7 ff ff 	mov    rsi,QWORD PTR [rbp-0x858]
  401d48:	8b 95 b4 f7 ff ff    	mov    edx,DWORD PTR [rbp-0x84c]
  401d4e:	48 89 c1             	mov    rcx,rax
  401d51:	44 8b 85 b8 f7 ff ff 	mov    r8d,DWORD PTR [rbp-0x848]
  401d58:	4c 8b 8d c8 f7 ff ff 	mov    r9,QWORD PTR [rbp-0x838]
  401d5f:	48 8b 85 c0 f7 ff ff 	mov    rax,QWORD PTR [rbp-0x840]
  401d66:	48 8d 3d 41 13 00 00 	lea    rdi,[rip+0x1341]        # 4030ae <_IO_stdin_used+0xae>
  401d6d:	48 89 04 24          	mov    QWORD PTR [rsp],rax
  401d71:	b0 00                	mov    al,0x0
  401d73:	e8 f8 f2 ff ff       	call   401070 <printf@plt>
  401d78:	c7 45 fc 01 00 00 00 	mov    DWORD PTR [rbp-0x4],0x1
  401d7f:	e9 14 00 00 00       	jmp    401d98 <test_write_normal+0x258>
  401d84:	8b 85 e4 f7 ff ff    	mov    eax,DWORD PTR [rbp-0x81c]
  401d8a:	83 c0 01             	add    eax,0x1
  401d8d:	89 85 e4 f7 ff ff    	mov    DWORD PTR [rbp-0x81c],eax
  401d93:	e9 ed fd ff ff       	jmp    401b85 <test_write_normal+0x45>
  401d98:	48 8b 85 e8 f7 ff ff 	mov    rax,QWORD PTR [rbp-0x818]
  401d9f:	8b 78 04             	mov    edi,DWORD PTR [rax+0x4]
  401da2:	e8 f9 f2 ff ff       	call   4010a0 <close@plt>
  401da7:	48 8b 85 e8 f7 ff ff 	mov    rax,QWORD PTR [rbp-0x818]
  401dae:	8b 38                	mov    edi,DWORD PTR [rax]
  401db0:	e8 eb f2 ff ff       	call   4010a0 <close@plt>
  401db5:	83 7d fc 00          	cmp    DWORD PTR [rbp-0x4],0x0
  401db9:	0f 84 1a 00 00 00    	je     401dd9 <test_write_normal+0x299>
  401dbf:	48 8d 3d 91 12 00 00 	lea    rdi,[rip+0x1291]        # 403057 <_IO_stdin_used+0x57>
  401dc6:	48 8d 35 2f 13 00 00 	lea    rsi,[rip+0x132f]        # 4030fc <_IO_stdin_used+0xfc>
  401dcd:	b0 00                	mov    al,0x0
  401dcf:	e8 9c f2 ff ff       	call   401070 <printf@plt>
  401dd4:	e9 15 00 00 00       	jmp    401dee <test_write_normal+0x2ae>
  401dd9:	48 8d 3d 8c 12 00 00 	lea    rdi,[rip+0x128c]        # 40306c <_IO_stdin_used+0x6c>
  401de0:	48 8d 35 15 13 00 00 	lea    rsi,[rip+0x1315]        # 4030fc <_IO_stdin_used+0xfc>
  401de7:	b0 00                	mov    al,0x0
  401de9:	e8 82 f2 ff ff       	call   401070 <printf@plt>
  401dee:	48 81 c4 60 08 00 00 	add    rsp,0x860
  401df5:	5d                   	pop    rbp
  401df6:	c3                   	ret    
  401df7:	66 0f 1f 84 00 00 00 	nop    WORD PTR [rax+rax*1+0x0]
  401dfe:	00 00 

0000000000401e00 <test_write_error>:
  401e00:	55                   	push   rbp
  401e01:	48 89 e5             	mov    rbp,rsp
  401e04:	48 81 ec 90 00 00 00 	sub    rsp,0x90
  401e0b:	48 8b 05 2e 13 00 00 	mov    rax,QWORD PTR [rip+0x132e]        # 403140 <_IO_stdin_used+0x140>
  401e12:	48 89 45 e0          	mov    QWORD PTR [rbp-0x20],rax
  401e16:	48 8b 05 2b 13 00 00 	mov    rax,QWORD PTR [rip+0x132b]        # 403148 <_IO_stdin_used+0x148>
  401e1d:	48 89 45 e8          	mov    QWORD PTR [rbp-0x18],rax
  401e21:	8b 05 29 13 00 00    	mov    eax,DWORD PTR [rip+0x1329]        # 403150 <_IO_stdin_used+0x150>
  401e27:	89 45 f0             	mov    DWORD PTR [rbp-0x10],eax
  401e2a:	c7 45 dc 05 00 00 00 	mov    DWORD PTR [rbp-0x24],0x5
  401e31:	48 8d 7d d4          	lea    rdi,[rbp-0x2c]
  401e35:	31 f6                	xor    esi,esi
  401e37:	ba 08 00 00 00       	mov    edx,0x8
  401e3c:	e8 4f f2 ff ff       	call   401090 <memset@plt>
  401e41:	c7 45 d0 00 00 00 00 	mov    DWORD PTR [rbp-0x30],0x0
  401e48:	8b 45 d0             	mov    eax,DWORD PTR [rbp-0x30]
  401e4b:	3b 45 dc             	cmp    eax,DWORD PTR [rbp-0x24]
  401e4e:	0f 8d ed 00 00 00    	jge    401f41 <test_write_error+0x141>
  401e54:	e8 c7 f1 ff ff       	call   401020 <__errno_location@plt>
  401e59:	c7 00 00 00 00 00    	mov    DWORD PTR [rax],0x0
  401e5f:	48 63 45 d0          	movsxd rax,DWORD PTR [rbp-0x30]
  401e63:	8b 7c 85 e0          	mov    edi,DWORD PTR [rbp+rax*4-0x20]
  401e67:	48 8d 75 d4          	lea    rsi,[rbp-0x2c]
  401e6b:	ba 07 00 00 00       	mov    edx,0x7
  401e70:	e8 db f1 ff ff       	call   401050 <write@plt>
  401e75:	48 89 45 c0          	mov    QWORD PTR [rbp-0x40],rax
  401e79:	e8 a2 f1 ff ff       	call   401020 <__errno_location@plt>
  401e7e:	8b 00                	mov    eax,DWORD PTR [rax]
  401e80:	89 45 cc             	mov    DWORD PTR [rbp-0x34],eax
  401e83:	e8 98 f1 ff ff       	call   401020 <__errno_location@plt>
  401e88:	c7 00 00 00 00 00    	mov    DWORD PTR [rax],0x0
  401e8e:	48 63 45 d0          	movsxd rax,DWORD PTR [rbp-0x30]
  401e92:	8b 7c 85 e0          	mov    edi,DWORD PTR [rbp+rax*4-0x20]
  401e96:	48 8d 75 d4          	lea    rsi,[rbp-0x2c]
  401e9a:	ba 07 00 00 00       	mov    edx,0x7
  401e9f:	e8 ec 0b 00 00       	call   402a90 <ft_write>
  401ea4:	48 89 45 b8          	mov    QWORD PTR [rbp-0x48],rax
  401ea8:	e8 73 f1 ff ff       	call   401020 <__errno_location@plt>
  401ead:	8b 00                	mov    eax,DWORD PTR [rax]
  401eaf:	89 45 c8             	mov    DWORD PTR [rbp-0x38],eax
  401eb2:	8b 45 cc             	mov    eax,DWORD PTR [rbp-0x34]
  401eb5:	3b 45 c8             	cmp    eax,DWORD PTR [rbp-0x38]
  401eb8:	0f 85 13 00 00 00    	jne    401ed1 <test_write_error+0xd1>
  401ebe:	48 8b 45 c0          	mov    rax,QWORD PTR [rbp-0x40]
  401ec2:	48 3b 45 b8          	cmp    rax,QWORD PTR [rbp-0x48]
  401ec6:	0f 85 05 00 00 00    	jne    401ed1 <test_write_error+0xd1>
  401ecc:	e9 62 00 00 00       	jmp    401f33 <test_write_error+0x133>
  401ed1:	8b 75 d0             	mov    esi,DWORD PTR [rbp-0x30]
  401ed4:	83 c6 01             	add    esi,0x1
  401ed7:	48 8d 3d cb 11 00 00 	lea    rdi,[rip+0x11cb]        # 4030a9 <_IO_stdin_used+0xa9>
  401ede:	b0 00                	mov    al,0x0
  401ee0:	e8 8b f1 ff ff       	call   401070 <printf@plt>
  401ee5:	8b 7d cc             	mov    edi,DWORD PTR [rbp-0x34]
  401ee8:	e8 23 f2 ff ff       	call   401110 <strerror@plt>
  401eed:	48 89 45 90          	mov    QWORD PTR [rbp-0x70],rax
  401ef1:	8b 45 cc             	mov    eax,DWORD PTR [rbp-0x34]
  401ef4:	89 45 9c             	mov    DWORD PTR [rbp-0x64],eax
  401ef7:	8b 7d c8             	mov    edi,DWORD PTR [rbp-0x38]
  401efa:	e8 11 f2 ff ff       	call   401110 <strerror@plt>
  401eff:	48 8b 75 90          	mov    rsi,QWORD PTR [rbp-0x70]
  401f03:	8b 55 9c             	mov    edx,DWORD PTR [rbp-0x64]
  401f06:	48 89 c1             	mov    rcx,rax
  401f09:	44 8b 45 c8          	mov    r8d,DWORD PTR [rbp-0x38]
  401f0d:	4c 8b 4d c0          	mov    r9,QWORD PTR [rbp-0x40]
  401f11:	48 8b 45 b8          	mov    rax,QWORD PTR [rbp-0x48]
  401f15:	48 8d 3d 92 11 00 00 	lea    rdi,[rip+0x1192]        # 4030ae <_IO_stdin_used+0xae>
  401f1c:	48 89 04 24          	mov    QWORD PTR [rsp],rax
  401f20:	b0 00                	mov    al,0x0
  401f22:	e8 49 f1 ff ff       	call   401070 <printf@plt>
  401f27:	c7 45 fc 01 00 00 00 	mov    DWORD PTR [rbp-0x4],0x1
  401f2e:	e9 0e 00 00 00       	jmp    401f41 <test_write_error+0x141>
  401f33:	8b 45 d0             	mov    eax,DWORD PTR [rbp-0x30]
  401f36:	83 c0 01             	add    eax,0x1
  401f39:	89 45 d0             	mov    DWORD PTR [rbp-0x30],eax
  401f3c:	e9 07 ff ff ff       	jmp    401e48 <test_write_error+0x48>
  401f41:	e8 da f0 ff ff       	call   401020 <__errno_location@plt>
  401f46:	c7 00 00 00 00 00    	mov    DWORD PTR [rax],0x0
  401f4c:	48 8d 75 d4          	lea    rsi,[rbp-0x2c]
  401f50:	31 ff                	xor    edi,edi
  401f52:	48 c7 c2 ff ff ff ff 	mov    rdx,0xffffffffffffffff
  401f59:	e8 f2 f0 ff ff       	call   401050 <write@plt>
  401f5e:	48 89 45 a8          	mov    QWORD PTR [rbp-0x58],rax
  401f62:	e8 b9 f0 ff ff       	call   401020 <__errno_location@plt>
  401f67:	8b 00                	mov    eax,DWORD PTR [rax]
  401f69:	89 45 b4             	mov    DWORD PTR [rbp-0x4c],eax
  401f6c:	e8 af f0 ff ff       	call   401020 <__errno_location@plt>
  401f71:	c7 00 00 00 00 00    	mov    DWORD PTR [rax],0x0
  401f77:	48 8d 75 d4          	lea    rsi,[rbp-0x2c]
  401f7b:	31 ff                	xor    edi,edi
  401f7d:	48 c7 c2 ff ff ff ff 	mov    rdx,0xffffffffffffffff
  401f84:	e8 07 0b 00 00       	call   402a90 <ft_write>
  401f89:	48 89 45 a0          	mov    QWORD PTR [rbp-0x60],rax
  401f8d:	e8 8e f0 ff ff       	call   401020 <__errno_location@plt>
  401f92:	8b 00                	mov    eax,DWORD PTR [rax]
  401f94:	89 45 b0             	mov    DWORD PTR [rbp-0x50],eax
  401f97:	8b 45 b4             	mov    eax,DWORD PTR [rbp-0x4c]
  401f9a:	3b 45 b0             	cmp    eax,DWORD PTR [rbp-0x50]
  401f9d:	0f 85 0e 00 00 00    	jne    401fb1 <test_write_error+0x1b1>
  401fa3:	48 8b 45 a8          	mov    rax,QWORD PTR [rbp-0x58]
  401fa7:	48 3b 45 a0          	cmp    rax,QWORD PTR [rbp-0x60]
  401fab:	0f 84 57 00 00 00    	je     402008 <test_write_error+0x208>
  401fb1:	48 8d 3d 30 11 00 00 	lea    rdi,[rip+0x1130]        # 4030e8 <_IO_stdin_used+0xe8>
  401fb8:	b0 00                	mov    al,0x0
  401fba:	e8 b1 f0 ff ff       	call   401070 <printf@plt>
  401fbf:	8b 7d b4             	mov    edi,DWORD PTR [rbp-0x4c]
  401fc2:	e8 49 f1 ff ff       	call   401110 <strerror@plt>
  401fc7:	48 89 45 80          	mov    QWORD PTR [rbp-0x80],rax
  401fcb:	8b 45 b4             	mov    eax,DWORD PTR [rbp-0x4c]
  401fce:	89 45 8c             	mov    DWORD PTR [rbp-0x74],eax
  401fd1:	8b 7d b0             	mov    edi,DWORD PTR [rbp-0x50]
  401fd4:	e8 37 f1 ff ff       	call   401110 <strerror@plt>
  401fd9:	48 8b 75 80          	mov    rsi,QWORD PTR [rbp-0x80]
  401fdd:	8b 55 8c             	mov    edx,DWORD PTR [rbp-0x74]
  401fe0:	48 89 c1             	mov    rcx,rax
  401fe3:	44 8b 45 b0          	mov    r8d,DWORD PTR [rbp-0x50]
  401fe7:	4c 8b 4d a8          	mov    r9,QWORD PTR [rbp-0x58]
  401feb:	48 8b 45 a0          	mov    rax,QWORD PTR [rbp-0x60]
  401fef:	48 8d 3d b8 10 00 00 	lea    rdi,[rip+0x10b8]        # 4030ae <_IO_stdin_used+0xae>
  401ff6:	48 89 04 24          	mov    QWORD PTR [rsp],rax
  401ffa:	b0 00                	mov    al,0x0
  401ffc:	e8 6f f0 ff ff       	call   401070 <printf@plt>
  402001:	c7 45 fc 01 00 00 00 	mov    DWORD PTR [rbp-0x4],0x1
  402008:	83 7d fc 00          	cmp    DWORD PTR [rbp-0x4],0x0
  40200c:	0f 84 1a 00 00 00    	je     40202c <test_write_error+0x22c>
  402012:	48 8d 3d 3e 10 00 00 	lea    rdi,[rip+0x103e]        # 403057 <_IO_stdin_used+0x57>
  402019:	48 8d 35 ee 10 00 00 	lea    rsi,[rip+0x10ee]        # 40310e <_IO_stdin_used+0x10e>
  402020:	b0 00                	mov    al,0x0
  402022:	e8 49 f0 ff ff       	call   401070 <printf@plt>
  402027:	e9 15 00 00 00       	jmp    402041 <test_write_error+0x241>
  40202c:	48 8d 3d 39 10 00 00 	lea    rdi,[rip+0x1039]        # 40306c <_IO_stdin_used+0x6c>
  402033:	48 8d 35 d4 10 00 00 	lea    rsi,[rip+0x10d4]        # 40310e <_IO_stdin_used+0x10e>
  40203a:	b0 00                	mov    al,0x0
  40203c:	e8 2f f0 ff ff       	call   401070 <printf@plt>
  402041:	48 81 c4 90 00 00 00 	add    rsp,0x90
  402048:	5d                   	pop    rbp
  402049:	c3                   	ret    
  40204a:	66 0f 1f 44 00 00    	nop    WORD PTR [rax+rax*1+0x0]

0000000000402050 <test_atoi_base>:
  402050:	55                   	push   rbp
  402051:	48 89 e5             	mov    rbp,rsp
  402054:	e8 17 00 00 00       	call   402070 <test_atoi_base_whitespace>
  402059:	e8 22 00 00 00       	call   402080 <test_atoi_base_sign>
  40205e:	e8 2d 00 00 00       	call   402090 <test_atoi_base_random>
  402063:	5d                   	pop    rbp
  402064:	c3                   	ret    
  402065:	66 2e 0f 1f 84 00 00 	cs nop WORD PTR [rax+rax*1+0x0]
  40206c:	00 00 00 
  40206f:	90                   	nop

0000000000402070 <test_atoi_base_whitespace>:
  402070:	55                   	push   rbp
  402071:	48 89 e5             	mov    rbp,rsp
  402074:	5d                   	pop    rbp
  402075:	c3                   	ret    
  402076:	66 2e 0f 1f 84 00 00 	cs nop WORD PTR [rax+rax*1+0x0]
  40207d:	00 00 00 

0000000000402080 <test_atoi_base_sign>:
  402080:	55                   	push   rbp
  402081:	48 89 e5             	mov    rbp,rsp
  402084:	5d                   	pop    rbp
  402085:	c3                   	ret    
  402086:	66 2e 0f 1f 84 00 00 	cs nop WORD PTR [rax+rax*1+0x0]
  40208d:	00 00 00 

0000000000402090 <test_atoi_base_random>:
  402090:	55                   	push   rbp
  402091:	48 89 e5             	mov    rbp,rsp
  402094:	48 83 ec 30          	sub    rsp,0x30
  402098:	c6 45 ff 00          	mov    BYTE PTR [rbp-0x1],0x0
  40209c:	e8 0f 01 00 00       	call   4021b0 <generate_testcase>
  4020a1:	c7 45 f8 00 00 00 00 	mov    DWORD PTR [rbp-0x8],0x0
  4020a8:	48 63 45 f8          	movsxd rax,DWORD PTR [rbp-0x8]
  4020ac:	48 3b 05 7d 30 00 00 	cmp    rax,QWORD PTR [rip+0x307d]        # 405130 <g_tclen>
  4020b3:	0f 83 ac 00 00 00    	jae    402165 <test_atoi_base_random+0xd5>
  4020b9:	48 63 4d f8          	movsxd rcx,DWORD PTR [rbp-0x8]
  4020bd:	48 8d 05 ac 30 00 00 	lea    rax,[rip+0x30ac]        # 405170 <g_tc>
  4020c4:	48 c1 e1 07          	shl    rcx,0x7
  4020c8:	48 01 c8             	add    rax,rcx
  4020cb:	48 83 c0 65          	add    rax,0x65
  4020cf:	48 89 45 f0          	mov    QWORD PTR [rbp-0x10],rax
  4020d3:	48 63 4d f8          	movsxd rcx,DWORD PTR [rbp-0x8]
  4020d7:	48 8d 05 92 30 00 00 	lea    rax,[rip+0x3092]        # 405170 <g_tc>
  4020de:	48 c1 e1 07          	shl    rcx,0x7
  4020e2:	48 01 c8             	add    rax,rcx
  4020e5:	48 89 45 e8          	mov    QWORD PTR [rbp-0x18],rax
  4020e9:	48 63 4d f8          	movsxd rcx,DWORD PTR [rbp-0x8]
  4020ed:	48 8d 05 7c 30 00 00 	lea    rax,[rip+0x307c]        # 405170 <g_tc>
  4020f4:	48 c1 e1 07          	shl    rcx,0x7
  4020f8:	48 01 c8             	add    rax,rcx
  4020fb:	8b 40 7c             	mov    eax,DWORD PTR [rax+0x7c]
  4020fe:	89 45 e4             	mov    DWORD PTR [rbp-0x1c],eax
  402101:	48 8b 7d e8          	mov    rdi,QWORD PTR [rbp-0x18]
  402105:	48 8b 75 f0          	mov    rsi,QWORD PTR [rbp-0x10]
  402109:	e8 b2 09 00 00       	call   402ac0 <ft_atoi_base>
  40210e:	89 45 e0             	mov    DWORD PTR [rbp-0x20],eax
  402111:	48 8b 7d e8          	mov    rdi,QWORD PTR [rbp-0x18]
  402115:	48 8b 75 f0          	mov    rsi,QWORD PTR [rbp-0x10]
  402119:	e8 e2 03 00 00       	call   402500 <ft_atoi_base_ref>
  40211e:	89 45 dc             	mov    DWORD PTR [rbp-0x24],eax
  402121:	8b 45 e0             	mov    eax,DWORD PTR [rbp-0x20]
  402124:	3b 45 e4             	cmp    eax,DWORD PTR [rbp-0x1c]
  402127:	0f 84 25 00 00 00    	je     402152 <test_atoi_base_random+0xc2>
  40212d:	48 8b 75 f0          	mov    rsi,QWORD PTR [rbp-0x10]
  402131:	48 8b 55 e8          	mov    rdx,QWORD PTR [rbp-0x18]
  402135:	8b 4d e4             	mov    ecx,DWORD PTR [rbp-0x1c]
  402138:	44 8b 45 e0          	mov    r8d,DWORD PTR [rbp-0x20]
  40213c:	44 8b 4d dc          	mov    r9d,DWORD PTR [rbp-0x24]
  402140:	48 8d 3d 0d 10 00 00 	lea    rdi,[rip+0x100d]        # 403154 <_IO_stdin_used+0x154>
  402147:	b0 00                	mov    al,0x0
  402149:	e8 22 ef ff ff       	call   401070 <printf@plt>
  40214e:	c6 45 ff 01          	mov    BYTE PTR [rbp-0x1],0x1
  402152:	e9 00 00 00 00       	jmp    402157 <test_atoi_base_random+0xc7>
  402157:	8b 45 f8             	mov    eax,DWORD PTR [rbp-0x8]
  40215a:	83 c0 01             	add    eax,0x1
  40215d:	89 45 f8             	mov    DWORD PTR [rbp-0x8],eax
  402160:	e9 43 ff ff ff       	jmp    4020a8 <test_atoi_base_random+0x18>
  402165:	80 7d ff 00          	cmp    BYTE PTR [rbp-0x1],0x0
  402169:	0f 84 1a 00 00 00    	je     402189 <test_atoi_base_random+0xf9>
  40216f:	48 8d 3d e1 0e 00 00 	lea    rdi,[rip+0xee1]        # 403057 <_IO_stdin_used+0x57>
  402176:	48 8d 35 02 10 00 00 	lea    rsi,[rip+0x1002]        # 40317f <_IO_stdin_used+0x17f>
  40217d:	b0 00                	mov    al,0x0
  40217f:	e8 ec ee ff ff       	call   401070 <printf@plt>
  402184:	e9 15 00 00 00       	jmp    40219e <test_atoi_base_random+0x10e>
  402189:	48 8d 3d dc 0e 00 00 	lea    rdi,[rip+0xedc]        # 40306c <_IO_stdin_used+0x6c>
  402190:	48 8d 35 e8 0f 00 00 	lea    rsi,[rip+0xfe8]        # 40317f <_IO_stdin_used+0x17f>
  402197:	b0 00                	mov    al,0x0
  402199:	e8 d2 ee ff ff       	call   401070 <printf@plt>
  40219e:	48 83 c4 30          	add    rsp,0x30
  4021a2:	5d                   	pop    rbp
  4021a3:	c3                   	ret    
  4021a4:	66 2e 0f 1f 84 00 00 	cs nop WORD PTR [rax+rax*1+0x0]
  4021ab:	00 00 00 
  4021ae:	66 90                	xchg   ax,ax

00000000004021b0 <generate_testcase>:
  4021b0:	55                   	push   rbp
  4021b1:	48 89 e5             	mov    rbp,rsp
  4021b4:	48 81 ec e0 00 00 00 	sub    rsp,0xe0
  4021bb:	48 8d 7d f0          	lea    rdi,[rbp-0x10]
  4021bf:	31 c0                	xor    eax,eax
  4021c1:	89 c6                	mov    esi,eax
  4021c3:	e8 b8 ee ff ff       	call   401080 <gettimeofday@plt>
  4021c8:	48 8b 45 f0          	mov    rax,QWORD PTR [rbp-0x10]
  4021cc:	89 c7                	mov    edi,eax
  4021ce:	e8 5d ee ff ff       	call   401030 <srandom@plt>
  4021d3:	c7 45 ec 00 00 00 00 	mov    DWORD PTR [rbp-0x14],0x0
  4021da:	48 63 45 ec          	movsxd rax,DWORD PTR [rbp-0x14]
  4021de:	48 3b 05 4b 2f 00 00 	cmp    rax,QWORD PTR [rip+0x2f4b]        # 405130 <g_tclen>
  4021e5:	0f 83 00 03 00 00    	jae    4024eb <generate_testcase+0x33b>
  4021eb:	c7 45 e8 00 00 00 00 	mov    DWORD PTR [rbp-0x18],0x0
  4021f2:	48 8d bd 60 ff ff ff 	lea    rdi,[rbp-0xa0]
  4021f9:	31 f6                	xor    esi,esi
  4021fb:	ba 80 00 00 00       	mov    edx,0x80
  402200:	e8 8b ee ff ff       	call   401090 <memset@plt>
  402205:	48 83 3d 2b 2f 00 00 	cmp    QWORD PTR [rip+0x2f2b],0x2        # 405138 <g_max_base_len>
  40220c:	02 
  40220d:	0f 85 11 00 00 00    	jne    402224 <generate_testcase+0x74>
  402213:	b8 02 00 00 00       	mov    eax,0x2
  402218:	48 89 85 38 ff ff ff 	mov    QWORD PTR [rbp-0xc8],rax
  40221f:	e9 23 00 00 00       	jmp    402247 <generate_testcase+0x97>
  402224:	e8 b7 ee ff ff       	call   4010e0 <random@plt>
  402229:	48 8b 0d 08 2f 00 00 	mov    rcx,QWORD PTR [rip+0x2f08]        # 405138 <g_max_base_len>
  402230:	48 83 e9 02          	sub    rcx,0x2
  402234:	31 d2                	xor    edx,edx
  402236:	48 f7 f1             	div    rcx
  402239:	48 89 d0             	mov    rax,rdx
  40223c:	48 83 c0 02          	add    rax,0x2
  402240:	48 89 85 38 ff ff ff 	mov    QWORD PTR [rbp-0xc8],rax
  402247:	48 8b 85 38 ff ff ff 	mov    rax,QWORD PTR [rbp-0xc8]
  40224e:	89 85 5c ff ff ff    	mov    DWORD PTR [rbp-0xa4],eax
  402254:	48 83 3d e4 2e 00 00 	cmp    QWORD PTR [rip+0x2ee4],0x1        # 405140 <g_max_str_len>
  40225b:	01 
  40225c:	0f 85 11 00 00 00    	jne    402273 <generate_testcase+0xc3>
  402262:	b8 01 00 00 00       	mov    eax,0x1
  402267:	48 89 85 30 ff ff ff 	mov    QWORD PTR [rbp-0xd0],rax
  40226e:	e9 23 00 00 00       	jmp    402296 <generate_testcase+0xe6>
  402273:	e8 68 ee ff ff       	call   4010e0 <random@plt>
  402278:	48 8b 0d c1 2e 00 00 	mov    rcx,QWORD PTR [rip+0x2ec1]        # 405140 <g_max_str_len>
  40227f:	48 83 e9 01          	sub    rcx,0x1
  402283:	31 d2                	xor    edx,edx
  402285:	48 f7 f1             	div    rcx
  402288:	48 89 d0             	mov    rax,rdx
  40228b:	48 83 c0 01          	add    rax,0x1
  40228f:	48 89 85 30 ff ff ff 	mov    QWORD PTR [rbp-0xd0],rax
  402296:	48 8b 85 30 ff ff ff 	mov    rax,QWORD PTR [rbp-0xd0]
  40229d:	89 85 58 ff ff ff    	mov    DWORD PTR [rbp-0xa8],eax
  4022a3:	c7 85 54 ff ff ff 00 	mov    DWORD PTR [rbp-0xac],0x0
  4022aa:	00 00 00 
  4022ad:	8b 85 54 ff ff ff    	mov    eax,DWORD PTR [rbp-0xac]
  4022b3:	3b 85 5c ff ff ff    	cmp    eax,DWORD PTR [rbp-0xa4]
  4022b9:	0f 8d d0 00 00 00    	jge    40238f <generate_testcase+0x1df>
  4022bf:	e9 00 00 00 00       	jmp    4022c4 <generate_testcase+0x114>
  4022c4:	e8 17 ee ff ff       	call   4010e0 <random@plt>
  4022c9:	b9 5e 00 00 00       	mov    ecx,0x5e
  4022ce:	48 99                	cqo    
  4022d0:	48 f7 f9             	idiv   rcx
  4022d3:	48 83 c2 21          	add    rdx,0x21
  4022d7:	88 d0                	mov    al,dl
  4022d9:	88 85 53 ff ff ff    	mov    BYTE PTR [rbp-0xad],al
  4022df:	0f be c8             	movsx  ecx,al
  4022e2:	b0 01                	mov    al,0x1
  4022e4:	83 f9 2b             	cmp    ecx,0x2b
  4022e7:	88 85 2f ff ff ff    	mov    BYTE PTR [rbp-0xd1],al
  4022ed:	0f 84 34 00 00 00    	je     402327 <generate_testcase+0x177>
  4022f3:	0f be 8d 53 ff ff ff 	movsx  ecx,BYTE PTR [rbp-0xad]
  4022fa:	b0 01                	mov    al,0x1
  4022fc:	83 f9 2d             	cmp    ecx,0x2d
  4022ff:	88 85 2f ff ff ff    	mov    BYTE PTR [rbp-0xd1],al
  402305:	0f 84 1c 00 00 00    	je     402327 <generate_testcase+0x177>
  40230b:	48 0f be 85 53 ff ff 	movsx  rax,BYTE PTR [rbp-0xad]
  402312:	ff 
  402313:	0f b6 84 05 60 ff ff 	movzx  eax,BYTE PTR [rbp+rax*1-0xa0]
  40231a:	ff 
  40231b:	83 f8 00             	cmp    eax,0x0
  40231e:	0f 95 c0             	setne  al
  402321:	88 85 2f ff ff ff    	mov    BYTE PTR [rbp-0xd1],al
  402327:	8a 85 2f ff ff ff    	mov    al,BYTE PTR [rbp-0xd1]
  40232d:	a8 01                	test   al,0x1
  40232f:	0f 85 05 00 00 00    	jne    40233a <generate_testcase+0x18a>
  402335:	e9 05 00 00 00       	jmp    40233f <generate_testcase+0x18f>
  40233a:	e9 85 ff ff ff       	jmp    4022c4 <generate_testcase+0x114>
  40233f:	48 0f be 85 53 ff ff 	movsx  rax,BYTE PTR [rbp-0xad]
  402346:	ff 
  402347:	8a 8c 05 60 ff ff ff 	mov    cl,BYTE PTR [rbp+rax*1-0xa0]
  40234e:	80 c1 01             	add    cl,0x1
  402351:	88 8c 05 60 ff ff ff 	mov    BYTE PTR [rbp+rax*1-0xa0],cl
  402358:	8a 95 53 ff ff ff    	mov    dl,BYTE PTR [rbp-0xad]
  40235e:	48 63 4d ec          	movsxd rcx,DWORD PTR [rbp-0x14]
  402362:	48 8d 05 07 2e 00 00 	lea    rax,[rip+0x2e07]        # 405170 <g_tc>
  402369:	48 c1 e1 07          	shl    rcx,0x7
  40236d:	48 01 c8             	add    rax,rcx
  402370:	48 63 8d 54 ff ff ff 	movsxd rcx,DWORD PTR [rbp-0xac]
  402377:	88 54 08 65          	mov    BYTE PTR [rax+rcx*1+0x65],dl
  40237b:	8b 85 54 ff ff ff    	mov    eax,DWORD PTR [rbp-0xac]
  402381:	83 c0 01             	add    eax,0x1
  402384:	89 85 54 ff ff ff    	mov    DWORD PTR [rbp-0xac],eax
  40238a:	e9 1e ff ff ff       	jmp    4022ad <generate_testcase+0xfd>
  40238f:	48 63 4d ec          	movsxd rcx,DWORD PTR [rbp-0x14]
  402393:	48 8d 05 d6 2d 00 00 	lea    rax,[rip+0x2dd6]        # 405170 <g_tc>
  40239a:	48 c1 e1 07          	shl    rcx,0x7
  40239e:	48 01 c8             	add    rax,rcx
  4023a1:	48 63 8d 5c ff ff ff 	movsxd rcx,DWORD PTR [rbp-0xa4]
  4023a8:	c6 44 08 65 00       	mov    BYTE PTR [rax+rcx*1+0x65],0x0
  4023ad:	c7 85 4c ff ff ff 01 	mov    DWORD PTR [rbp-0xb4],0x1
  4023b4:	00 00 00 
  4023b7:	8b 85 4c ff ff ff    	mov    eax,DWORD PTR [rbp-0xb4]
  4023bd:	3b 85 58 ff ff ff    	cmp    eax,DWORD PTR [rbp-0xa8]
  4023c3:	0f 8d 7b 00 00 00    	jge    402444 <generate_testcase+0x294>
  4023c9:	e8 12 ed ff ff       	call   4010e0 <random@plt>
  4023ce:	48 63 8d 5c ff ff ff 	movsxd rcx,DWORD PTR [rbp-0xa4]
  4023d5:	48 99                	cqo    
  4023d7:	48 f7 f9             	idiv   rcx
  4023da:	89 d0                	mov    eax,edx
  4023dc:	89 85 48 ff ff ff    	mov    DWORD PTR [rbp-0xb8],eax
  4023e2:	48 63 4d ec          	movsxd rcx,DWORD PTR [rbp-0x14]
  4023e6:	48 8d 05 83 2d 00 00 	lea    rax,[rip+0x2d83]        # 405170 <g_tc>
  4023ed:	48 c1 e1 07          	shl    rcx,0x7
  4023f1:	48 01 c8             	add    rax,rcx
  4023f4:	48 63 8d 48 ff ff ff 	movsxd rcx,DWORD PTR [rbp-0xb8]
  4023fb:	8a 54 08 65          	mov    dl,BYTE PTR [rax+rcx*1+0x65]
  4023ff:	48 63 4d ec          	movsxd rcx,DWORD PTR [rbp-0x14]
  402403:	48 8d 05 66 2d 00 00 	lea    rax,[rip+0x2d66]        # 405170 <g_tc>
  40240a:	48 c1 e1 07          	shl    rcx,0x7
  40240e:	48 01 c8             	add    rax,rcx
  402411:	48 63 8d 4c ff ff ff 	movsxd rcx,DWORD PTR [rbp-0xb4]
  402418:	88 14 08             	mov    BYTE PTR [rax+rcx*1],dl
  40241b:	8b 85 48 ff ff ff    	mov    eax,DWORD PTR [rbp-0xb8]
  402421:	8b 4d e8             	mov    ecx,DWORD PTR [rbp-0x18]
  402424:	0f af 8d 5c ff ff ff 	imul   ecx,DWORD PTR [rbp-0xa4]
  40242b:	01 c8                	add    eax,ecx
  40242d:	89 45 e8             	mov    DWORD PTR [rbp-0x18],eax
  402430:	8b 85 4c ff ff ff    	mov    eax,DWORD PTR [rbp-0xb4]
  402436:	83 c0 01             	add    eax,0x1
  402439:	89 85 4c ff ff ff    	mov    DWORD PTR [rbp-0xb4],eax
  40243f:	e9 73 ff ff ff       	jmp    4023b7 <generate_testcase+0x207>
  402444:	48 63 4d ec          	movsxd rcx,DWORD PTR [rbp-0x14]
  402448:	48 8d 05 21 2d 00 00 	lea    rax,[rip+0x2d21]        # 405170 <g_tc>
  40244f:	48 c1 e1 07          	shl    rcx,0x7
  402453:	48 01 c8             	add    rax,rcx
  402456:	48 63 8d 58 ff ff ff 	movsxd rcx,DWORD PTR [rbp-0xa8]
  40245d:	c6 04 08 00          	mov    BYTE PTR [rax+rcx*1],0x0
  402461:	e8 7a ec ff ff       	call   4010e0 <random@plt>
  402466:	48 83 e0 01          	and    rax,0x1
  40246a:	89 85 44 ff ff ff    	mov    DWORD PTR [rbp-0xbc],eax
  402470:	8b 95 44 ff ff ff    	mov    edx,DWORD PTR [rbp-0xbc]
  402476:	b8 2b 00 00 00       	mov    eax,0x2b
  40247b:	b9 2d 00 00 00       	mov    ecx,0x2d
  402480:	83 fa 00             	cmp    edx,0x0
  402483:	0f 45 c1             	cmovne eax,ecx
  402486:	88 c1                	mov    cl,al
  402488:	48 63 55 ec          	movsxd rdx,DWORD PTR [rbp-0x14]
  40248c:	48 8d 05 dd 2c 00 00 	lea    rax,[rip+0x2cdd]        # 405170 <g_tc>
  402493:	48 c1 e2 07          	shl    rdx,0x7
  402497:	48 01 d0             	add    rax,rdx
  40249a:	88 08                	mov    BYTE PTR [rax],cl
  40249c:	83 bd 44 ff ff ff 00 	cmp    DWORD PTR [rbp-0xbc],0x0
  4024a3:	0f 84 10 00 00 00    	je     4024b9 <generate_testcase+0x309>
  4024a9:	31 c0                	xor    eax,eax
  4024ab:	2b 45 e8             	sub    eax,DWORD PTR [rbp-0x18]
  4024ae:	89 85 28 ff ff ff    	mov    DWORD PTR [rbp-0xd8],eax
  4024b4:	e9 09 00 00 00       	jmp    4024c2 <generate_testcase+0x312>
  4024b9:	8b 45 e8             	mov    eax,DWORD PTR [rbp-0x18]
  4024bc:	89 85 28 ff ff ff    	mov    DWORD PTR [rbp-0xd8],eax
  4024c2:	8b 8d 28 ff ff ff    	mov    ecx,DWORD PTR [rbp-0xd8]
  4024c8:	48 63 55 ec          	movsxd rdx,DWORD PTR [rbp-0x14]
  4024cc:	48 8d 05 9d 2c 00 00 	lea    rax,[rip+0x2c9d]        # 405170 <g_tc>
  4024d3:	48 c1 e2 07          	shl    rdx,0x7
  4024d7:	48 01 d0             	add    rax,rdx
  4024da:	89 48 7c             	mov    DWORD PTR [rax+0x7c],ecx
  4024dd:	8b 45 ec             	mov    eax,DWORD PTR [rbp-0x14]
  4024e0:	83 c0 01             	add    eax,0x1
  4024e3:	89 45 ec             	mov    DWORD PTR [rbp-0x14],eax
  4024e6:	e9 ef fc ff ff       	jmp    4021da <generate_testcase+0x2a>
  4024eb:	48 81 c4 e0 00 00 00 	add    rsp,0xe0
  4024f2:	5d                   	pop    rbp
  4024f3:	c3                   	ret    
  4024f4:	66 2e 0f 1f 84 00 00 	cs nop WORD PTR [rax+rax*1+0x0]
  4024fb:	00 00 00 
  4024fe:	66 90                	xchg   ax,ax

0000000000402500 <ft_atoi_base_ref>:
  402500:	55                   	push   rbp
  402501:	48 89 e5             	mov    rbp,rsp
  402504:	48 83 ec 30          	sub    rsp,0x30
  402508:	48 89 7d f0          	mov    QWORD PTR [rbp-0x10],rdi
  40250c:	48 89 75 e8          	mov    QWORD PTR [rbp-0x18],rsi
  402510:	48 8b 7d e8          	mov    rdi,QWORD PTR [rbp-0x18]
  402514:	e8 47 01 00 00       	call   402660 <base_validity>
  402519:	89 45 e4             	mov    DWORD PTR [rbp-0x1c],eax
  40251c:	83 7d e4 01          	cmp    DWORD PTR [rbp-0x1c],0x1
  402520:	0f 85 0c 00 00 00    	jne    402532 <ft_atoi_base_ref+0x32>
  402526:	c7 45 fc 00 00 00 00 	mov    DWORD PTR [rbp-0x4],0x0
  40252d:	e9 16 01 00 00       	jmp    402648 <ft_atoi_base_ref+0x148>
  402532:	e9 00 00 00 00       	jmp    402537 <ft_atoi_base_ref+0x37>
  402537:	48 8b 45 f0          	mov    rax,QWORD PTR [rbp-0x10]
  40253b:	0f be 00             	movsx  eax,BYTE PTR [rax]
  40253e:	83 f8 09             	cmp    eax,0x9
  402541:	0f 8c 15 00 00 00    	jl     40255c <ft_atoi_base_ref+0x5c>
  402547:	48 8b 45 f0          	mov    rax,QWORD PTR [rbp-0x10]
  40254b:	0f be 08             	movsx  ecx,BYTE PTR [rax]
  40254e:	b0 01                	mov    al,0x1
  402550:	83 f9 0d             	cmp    ecx,0xd
  402553:	88 45 d7             	mov    BYTE PTR [rbp-0x29],al
  402556:	0f 8e 10 00 00 00    	jle    40256c <ft_atoi_base_ref+0x6c>
  40255c:	48 8b 45 f0          	mov    rax,QWORD PTR [rbp-0x10]
  402560:	0f be 00             	movsx  eax,BYTE PTR [rax]
  402563:	83 f8 20             	cmp    eax,0x20
  402566:	0f 94 c0             	sete   al
  402569:	88 45 d7             	mov    BYTE PTR [rbp-0x29],al
  40256c:	8a 45 d7             	mov    al,BYTE PTR [rbp-0x29]
  40256f:	a8 01                	test   al,0x1
  402571:	0f 85 05 00 00 00    	jne    40257c <ft_atoi_base_ref+0x7c>
  402577:	e9 11 00 00 00       	jmp    40258d <ft_atoi_base_ref+0x8d>
  40257c:	48 8b 45 f0          	mov    rax,QWORD PTR [rbp-0x10]
  402580:	48 83 c0 01          	add    rax,0x1
  402584:	48 89 45 f0          	mov    QWORD PTR [rbp-0x10],rax
  402588:	e9 aa ff ff ff       	jmp    402537 <ft_atoi_base_ref+0x37>
  40258d:	c7 45 dc 00 00 00 00 	mov    DWORD PTR [rbp-0x24],0x0
  402594:	48 8b 45 f0          	mov    rax,QWORD PTR [rbp-0x10]
  402598:	0f be 08             	movsx  ecx,BYTE PTR [rax]
  40259b:	b0 01                	mov    al,0x1
  40259d:	83 f9 2d             	cmp    ecx,0x2d
  4025a0:	88 45 d6             	mov    BYTE PTR [rbp-0x2a],al
  4025a3:	0f 84 10 00 00 00    	je     4025b9 <ft_atoi_base_ref+0xb9>
  4025a9:	48 8b 45 f0          	mov    rax,QWORD PTR [rbp-0x10]
  4025ad:	0f be 00             	movsx  eax,BYTE PTR [rax]
  4025b0:	83 f8 2b             	cmp    eax,0x2b
  4025b3:	0f 94 c0             	sete   al
  4025b6:	88 45 d6             	mov    BYTE PTR [rbp-0x2a],al
  4025b9:	8a 45 d6             	mov    al,BYTE PTR [rbp-0x2a]
  4025bc:	a8 01                	test   al,0x1
  4025be:	0f 85 05 00 00 00    	jne    4025c9 <ft_atoi_base_ref+0xc9>
  4025c4:	e9 29 00 00 00       	jmp    4025f2 <ft_atoi_base_ref+0xf2>
  4025c9:	48 8b 45 f0          	mov    rax,QWORD PTR [rbp-0x10]
  4025cd:	0f be 00             	movsx  eax,BYTE PTR [rax]
  4025d0:	83 f8 2d             	cmp    eax,0x2d
  4025d3:	0f 94 c0             	sete   al
  4025d6:	24 01                	and    al,0x1
  4025d8:	0f b6 c0             	movzx  eax,al
  4025db:	03 45 dc             	add    eax,DWORD PTR [rbp-0x24]
  4025de:	89 45 dc             	mov    DWORD PTR [rbp-0x24],eax
  4025e1:	48 8b 45 f0          	mov    rax,QWORD PTR [rbp-0x10]
  4025e5:	48 83 c0 01          	add    rax,0x1
  4025e9:	48 89 45 f0          	mov    QWORD PTR [rbp-0x10],rax
  4025ed:	e9 a2 ff ff ff       	jmp    402594 <ft_atoi_base_ref+0x94>
  4025f2:	48 8b 7d f0          	mov    rdi,QWORD PTR [rbp-0x10]
  4025f6:	48 8b 75 e8          	mov    rsi,QWORD PTR [rbp-0x18]
  4025fa:	e8 c1 01 00 00       	call   4027c0 <strlen_base>
  4025ff:	89 45 e0             	mov    DWORD PTR [rbp-0x20],eax
  402602:	83 7d e0 00          	cmp    DWORD PTR [rbp-0x20],0x0
  402606:	0f 85 0c 00 00 00    	jne    402618 <ft_atoi_base_ref+0x118>
  40260c:	c7 45 fc 00 00 00 00 	mov    DWORD PTR [rbp-0x4],0x0
  402613:	e9 30 00 00 00       	jmp    402648 <ft_atoi_base_ref+0x148>
  402618:	48 8b 7d f0          	mov    rdi,QWORD PTR [rbp-0x10]
  40261c:	48 63 45 e0          	movsxd rax,DWORD PTR [rbp-0x20]
  402620:	48 01 c7             	add    rdi,rax
  402623:	48 83 c7 ff          	add    rdi,0xffffffffffffffff
  402627:	48 8b 75 e8          	mov    rsi,QWORD PTR [rbp-0x18]
  40262b:	8b 55 e4             	mov    edx,DWORD PTR [rbp-0x1c]
  40262e:	8b 4d e0             	mov    ecx,DWORD PTR [rbp-0x20]
  402631:	e8 3a 02 00 00       	call   402870 <str_decode>
  402636:	89 45 d8             	mov    DWORD PTR [rbp-0x28],eax
  402639:	8b 75 dc             	mov    esi,DWORD PTR [rbp-0x24]
  40263c:	48 8d 7d d8          	lea    rdi,[rbp-0x28]
  402640:	e8 eb 02 00 00       	call   402930 <ret_check>
  402645:	89 45 fc             	mov    DWORD PTR [rbp-0x4],eax
  402648:	8b 45 fc             	mov    eax,DWORD PTR [rbp-0x4]
  40264b:	48 83 c4 30          	add    rsp,0x30
  40264f:	5d                   	pop    rbp
  402650:	c3                   	ret    
  402651:	66 2e 0f 1f 84 00 00 	cs nop WORD PTR [rax+rax*1+0x0]
  402658:	00 00 00 
  40265b:	0f 1f 44 00 00       	nop    DWORD PTR [rax+rax*1+0x0]

0000000000402660 <base_validity>:
  402660:	55                   	push   rbp
  402661:	48 89 e5             	mov    rbp,rsp
  402664:	48 89 7d f0          	mov    QWORD PTR [rbp-0x10],rdi
  402668:	c7 45 8c 00 00 00 00 	mov    DWORD PTR [rbp-0x74],0x0
  40266f:	83 7d 8c 60          	cmp    DWORD PTR [rbp-0x74],0x60
  402673:	0f 8d 17 00 00 00    	jge    402690 <base_validity+0x30>
  402679:	8b 45 8c             	mov    eax,DWORD PTR [rbp-0x74]
  40267c:	89 c1                	mov    ecx,eax
  40267e:	83 c1 01             	add    ecx,0x1
  402681:	89 4d 8c             	mov    DWORD PTR [rbp-0x74],ecx
  402684:	48 98                	cdqe   
  402686:	c6 44 05 90 00       	mov    BYTE PTR [rbp+rax*1-0x70],0x0
  40268b:	e9 df ff ff ff       	jmp    40266f <base_validity+0xf>
  402690:	c7 45 8c 00 00 00 00 	mov    DWORD PTR [rbp-0x74],0x0
  402697:	48 8b 45 f0          	mov    rax,QWORD PTR [rbp-0x10]
  40269b:	0f be 00             	movsx  eax,BYTE PTR [rax]
  40269e:	83 f8 00             	cmp    eax,0x0
  4026a1:	0f 84 f1 00 00 00    	je     402798 <base_validity+0x138>
  4026a7:	48 8b 45 f0          	mov    rax,QWORD PTR [rbp-0x10]
  4026ab:	0f be 00             	movsx  eax,BYTE PTR [rax]
  4026ae:	83 e8 20             	sub    eax,0x20
  4026b1:	48 98                	cdqe   
  4026b3:	80 7c 05 90 00       	cmp    BYTE PTR [rbp+rax*1-0x70],0x0
  4026b8:	0f 84 0c 00 00 00    	je     4026ca <base_validity+0x6a>
  4026be:	c7 45 fc 01 00 00 00 	mov    DWORD PTR [rbp-0x4],0x1
  4026c5:	e9 ea 00 00 00       	jmp    4027b4 <base_validity+0x154>
  4026ca:	48 8b 45 f0          	mov    rax,QWORD PTR [rbp-0x10]
  4026ce:	0f be 00             	movsx  eax,BYTE PTR [rax]
  4026d1:	83 f8 2b             	cmp    eax,0x2b
  4026d4:	0f 84 10 00 00 00    	je     4026ea <base_validity+0x8a>
  4026da:	48 8b 45 f0          	mov    rax,QWORD PTR [rbp-0x10]
  4026de:	0f be 00             	movsx  eax,BYTE PTR [rax]
  4026e1:	83 f8 2d             	cmp    eax,0x2d
  4026e4:	0f 85 0c 00 00 00    	jne    4026f6 <base_validity+0x96>
  4026ea:	c7 45 fc 01 00 00 00 	mov    DWORD PTR [rbp-0x4],0x1
  4026f1:	e9 be 00 00 00       	jmp    4027b4 <base_validity+0x154>
  4026f6:	48 8b 45 f0          	mov    rax,QWORD PTR [rbp-0x10]
  4026fa:	0f be 00             	movsx  eax,BYTE PTR [rax]
  4026fd:	83 f8 20             	cmp    eax,0x20
  402700:	0f 84 20 00 00 00    	je     402726 <base_validity+0xc6>
  402706:	48 8b 45 f0          	mov    rax,QWORD PTR [rbp-0x10]
  40270a:	0f be 00             	movsx  eax,BYTE PTR [rax]
  40270d:	83 f8 09             	cmp    eax,0x9
  402710:	0f 8c 1c 00 00 00    	jl     402732 <base_validity+0xd2>
  402716:	48 8b 45 f0          	mov    rax,QWORD PTR [rbp-0x10]
  40271a:	0f be 00             	movsx  eax,BYTE PTR [rax]
  40271d:	83 f8 0d             	cmp    eax,0xd
  402720:	0f 8f 0c 00 00 00    	jg     402732 <base_validity+0xd2>
  402726:	c7 45 fc 01 00 00 00 	mov    DWORD PTR [rbp-0x4],0x1
  40272d:	e9 82 00 00 00       	jmp    4027b4 <base_validity+0x154>
  402732:	48 8b 45 f0          	mov    rax,QWORD PTR [rbp-0x10]
  402736:	0f be 00             	movsx  eax,BYTE PTR [rax]
  402739:	83 f8 20             	cmp    eax,0x20
  40273c:	0f 8c 10 00 00 00    	jl     402752 <base_validity+0xf2>
  402742:	48 8b 45 f0          	mov    rax,QWORD PTR [rbp-0x10]
  402746:	0f be 00             	movsx  eax,BYTE PTR [rax]
  402749:	83 f8 7f             	cmp    eax,0x7f
  40274c:	0f 85 0c 00 00 00    	jne    40275e <base_validity+0xfe>
  402752:	c7 45 fc 01 00 00 00 	mov    DWORD PTR [rbp-0x4],0x1
  402759:	e9 56 00 00 00       	jmp    4027b4 <base_validity+0x154>
  40275e:	e9 00 00 00 00       	jmp    402763 <base_validity+0x103>
  402763:	e9 00 00 00 00       	jmp    402768 <base_validity+0x108>
  402768:	e9 00 00 00 00       	jmp    40276d <base_validity+0x10d>
  40276d:	48 8b 45 f0          	mov    rax,QWORD PTR [rbp-0x10]
  402771:	0f be 00             	movsx  eax,BYTE PTR [rax]
  402774:	83 e8 20             	sub    eax,0x20
  402777:	48 98                	cdqe   
  402779:	c6 44 05 90 01       	mov    BYTE PTR [rbp+rax*1-0x70],0x1
  40277e:	48 8b 45 f0          	mov    rax,QWORD PTR [rbp-0x10]
  402782:	48 83 c0 01          	add    rax,0x1
  402786:	48 89 45 f0          	mov    QWORD PTR [rbp-0x10],rax
  40278a:	8b 45 8c             	mov    eax,DWORD PTR [rbp-0x74]
  40278d:	83 c0 01             	add    eax,0x1
  402790:	89 45 8c             	mov    DWORD PTR [rbp-0x74],eax
  402793:	e9 ff fe ff ff       	jmp    402697 <base_validity+0x37>
  402798:	83 7d 8c 02          	cmp    DWORD PTR [rbp-0x74],0x2
  40279c:	0f 8d 0c 00 00 00    	jge    4027ae <base_validity+0x14e>
  4027a2:	c7 45 fc 01 00 00 00 	mov    DWORD PTR [rbp-0x4],0x1
  4027a9:	e9 06 00 00 00       	jmp    4027b4 <base_validity+0x154>
  4027ae:	8b 45 8c             	mov    eax,DWORD PTR [rbp-0x74]
  4027b1:	89 45 fc             	mov    DWORD PTR [rbp-0x4],eax
  4027b4:	8b 45 fc             	mov    eax,DWORD PTR [rbp-0x4]
  4027b7:	5d                   	pop    rbp
  4027b8:	c3                   	ret    
  4027b9:	0f 1f 80 00 00 00 00 	nop    DWORD PTR [rax+0x0]

00000000004027c0 <strlen_base>:
  4027c0:	55                   	push   rbp
  4027c1:	48 89 e5             	mov    rbp,rsp
  4027c4:	48 89 7d f8          	mov    QWORD PTR [rbp-0x8],rdi
  4027c8:	48 89 75 f0          	mov    QWORD PTR [rbp-0x10],rsi
  4027cc:	c7 45 ec 00 00 00 00 	mov    DWORD PTR [rbp-0x14],0x0
  4027d3:	48 8b 45 f8          	mov    rax,QWORD PTR [rbp-0x8]
  4027d7:	0f be 00             	movsx  eax,BYTE PTR [rax]
  4027da:	83 f8 00             	cmp    eax,0x0
  4027dd:	0f 84 7c 00 00 00    	je     40285f <strlen_base+0x9f>
  4027e3:	c7 45 e4 00 00 00 00 	mov    DWORD PTR [rbp-0x1c],0x0
  4027ea:	c7 45 e8 00 00 00 00 	mov    DWORD PTR [rbp-0x18],0x0
  4027f1:	48 8b 45 f0          	mov    rax,QWORD PTR [rbp-0x10]
  4027f5:	48 63 4d e4          	movsxd rcx,DWORD PTR [rbp-0x1c]
  4027f9:	0f be 04 08          	movsx  eax,BYTE PTR [rax+rcx*1]
  4027fd:	83 f8 00             	cmp    eax,0x0
  402800:	0f 84 30 00 00 00    	je     402836 <strlen_base+0x76>
  402806:	48 8b 45 f0          	mov    rax,QWORD PTR [rbp-0x10]
  40280a:	48 63 4d e4          	movsxd rcx,DWORD PTR [rbp-0x1c]
  40280e:	0f be 04 08          	movsx  eax,BYTE PTR [rax+rcx*1]
  402812:	48 8b 4d f8          	mov    rcx,QWORD PTR [rbp-0x8]
  402816:	0f be 09             	movsx  ecx,BYTE PTR [rcx]
  402819:	39 c8                	cmp    eax,ecx
  40281b:	0f 85 07 00 00 00    	jne    402828 <strlen_base+0x68>
  402821:	c7 45 e8 01 00 00 00 	mov    DWORD PTR [rbp-0x18],0x1
  402828:	8b 45 e4             	mov    eax,DWORD PTR [rbp-0x1c]
  40282b:	83 c0 01             	add    eax,0x1
  40282e:	89 45 e4             	mov    DWORD PTR [rbp-0x1c],eax
  402831:	e9 bb ff ff ff       	jmp    4027f1 <strlen_base+0x31>
  402836:	83 7d e8 00          	cmp    DWORD PTR [rbp-0x18],0x0
  40283a:	0f 85 05 00 00 00    	jne    402845 <strlen_base+0x85>
  402840:	e9 1a 00 00 00       	jmp    40285f <strlen_base+0x9f>
  402845:	8b 45 ec             	mov    eax,DWORD PTR [rbp-0x14]
  402848:	83 c0 01             	add    eax,0x1
  40284b:	89 45 ec             	mov    DWORD PTR [rbp-0x14],eax
  40284e:	48 8b 45 f8          	mov    rax,QWORD PTR [rbp-0x8]
  402852:	48 83 c0 01          	add    rax,0x1
  402856:	48 89 45 f8          	mov    QWORD PTR [rbp-0x8],rax
  40285a:	e9 74 ff ff ff       	jmp    4027d3 <strlen_base+0x13>
  40285f:	8b 45 ec             	mov    eax,DWORD PTR [rbp-0x14]
  402862:	5d                   	pop    rbp
  402863:	c3                   	ret    
  402864:	66 2e 0f 1f 84 00 00 	cs nop WORD PTR [rax+rax*1+0x0]
  40286b:	00 00 00 
  40286e:	66 90                	xchg   ax,ax

0000000000402870 <str_decode>:
  402870:	55                   	push   rbp
  402871:	48 89 e5             	mov    rbp,rsp
  402874:	48 83 ec 30          	sub    rsp,0x30
  402878:	48 89 7d f0          	mov    QWORD PTR [rbp-0x10],rdi
  40287c:	48 89 75 e8          	mov    QWORD PTR [rbp-0x18],rsi
  402880:	89 55 e4             	mov    DWORD PTR [rbp-0x1c],edx
  402883:	89 4d e0             	mov    DWORD PTR [rbp-0x20],ecx
  402886:	83 7d e0 00          	cmp    DWORD PTR [rbp-0x20],0x0
  40288a:	0f 85 0c 00 00 00    	jne    40289c <str_decode+0x2c>
  402890:	c7 45 fc 00 00 00 00 	mov    DWORD PTR [rbp-0x4],0x0
  402897:	e9 80 00 00 00       	jmp    40291c <str_decode+0xac>
  40289c:	c7 45 dc 00 00 00 00 	mov    DWORD PTR [rbp-0x24],0x0
  4028a3:	48 8b 45 e8          	mov    rax,QWORD PTR [rbp-0x18]
  4028a7:	48 63 4d dc          	movsxd rcx,DWORD PTR [rbp-0x24]
  4028ab:	0f be 04 08          	movsx  eax,BYTE PTR [rax+rcx*1]
  4028af:	83 f8 00             	cmp    eax,0x0
  4028b2:	0f 84 2e 00 00 00    	je     4028e6 <str_decode+0x76>
  4028b8:	48 8b 45 e8          	mov    rax,QWORD PTR [rbp-0x18]
  4028bc:	48 63 4d dc          	movsxd rcx,DWORD PTR [rbp-0x24]
  4028c0:	0f be 04 08          	movsx  eax,BYTE PTR [rax+rcx*1]
  4028c4:	48 8b 4d f0          	mov    rcx,QWORD PTR [rbp-0x10]
  4028c8:	0f be 09             	movsx  ecx,BYTE PTR [rcx]
  4028cb:	39 c8                	cmp    eax,ecx
  4028cd:	0f 85 05 00 00 00    	jne    4028d8 <str_decode+0x68>
  4028d3:	e9 0e 00 00 00       	jmp    4028e6 <str_decode+0x76>
  4028d8:	8b 45 dc             	mov    eax,DWORD PTR [rbp-0x24]
  4028db:	83 c0 01             	add    eax,0x1
  4028de:	89 45 dc             	mov    DWORD PTR [rbp-0x24],eax
  4028e1:	e9 bd ff ff ff       	jmp    4028a3 <str_decode+0x33>
  4028e6:	8b 45 dc             	mov    eax,DWORD PTR [rbp-0x24]
  4028e9:	89 45 d8             	mov    DWORD PTR [rbp-0x28],eax
  4028ec:	8b 45 e4             	mov    eax,DWORD PTR [rbp-0x1c]
  4028ef:	89 45 d4             	mov    DWORD PTR [rbp-0x2c],eax
  4028f2:	48 8b 7d f0          	mov    rdi,QWORD PTR [rbp-0x10]
  4028f6:	48 83 c7 ff          	add    rdi,0xffffffffffffffff
  4028fa:	48 8b 75 e8          	mov    rsi,QWORD PTR [rbp-0x18]
  4028fe:	8b 55 e4             	mov    edx,DWORD PTR [rbp-0x1c]
  402901:	8b 4d e0             	mov    ecx,DWORD PTR [rbp-0x20]
  402904:	83 e9 01             	sub    ecx,0x1
  402907:	e8 64 ff ff ff       	call   402870 <str_decode>
  40290c:	8b 4d d4             	mov    ecx,DWORD PTR [rbp-0x2c]
  40290f:	89 c2                	mov    edx,eax
  402911:	8b 45 d8             	mov    eax,DWORD PTR [rbp-0x28]
  402914:	0f af ca             	imul   ecx,edx
  402917:	01 c8                	add    eax,ecx
  402919:	89 45 fc             	mov    DWORD PTR [rbp-0x4],eax
  40291c:	8b 45 fc             	mov    eax,DWORD PTR [rbp-0x4]
  40291f:	48 83 c4 30          	add    rsp,0x30
  402923:	5d                   	pop    rbp
  402924:	c3                   	ret    
  402925:	66 2e 0f 1f 84 00 00 	cs nop WORD PTR [rax+rax*1+0x0]
  40292c:	00 00 00 
  40292f:	90                   	nop

0000000000402930 <ret_check>:
  402930:	55                   	push   rbp
  402931:	48 89 e5             	mov    rbp,rsp
  402934:	48 89 7d f0          	mov    QWORD PTR [rbp-0x10],rdi
  402938:	89 75 ec             	mov    DWORD PTR [rbp-0x14],esi
  40293b:	48 8b 45 f0          	mov    rax,QWORD PTR [rbp-0x10]
  40293f:	48 63 00             	movsxd rax,DWORD PTR [rax]
  402942:	48 3d 00 00 00 80    	cmp    rax,0xffffffff80000000
  402948:	0f 85 0c 00 00 00    	jne    40295a <ret_check+0x2a>
  40294e:	c7 45 fc 00 00 00 80 	mov    DWORD PTR [rbp-0x4],0x80000000
  402955:	e9 34 00 00 00       	jmp    40298e <ret_check+0x5e>
  40295a:	8b 45 ec             	mov    eax,DWORD PTR [rbp-0x14]
  40295d:	b9 02 00 00 00       	mov    ecx,0x2
  402962:	99                   	cdq    
  402963:	f7 f9                	idiv   ecx
  402965:	83 fa 01             	cmp    edx,0x1
  402968:	0f 85 12 00 00 00    	jne    402980 <ret_check+0x50>
  40296e:	48 8b 45 f0          	mov    rax,QWORD PTR [rbp-0x10]
  402972:	69 00 ff ff ff ff    	imul   eax,DWORD PTR [rax],0xffffffff
  402978:	89 45 fc             	mov    DWORD PTR [rbp-0x4],eax
  40297b:	e9 0e 00 00 00       	jmp    40298e <ret_check+0x5e>
  402980:	e9 00 00 00 00       	jmp    402985 <ret_check+0x55>
  402985:	48 8b 45 f0          	mov    rax,QWORD PTR [rbp-0x10]
  402989:	8b 00                	mov    eax,DWORD PTR [rax]
  40298b:	89 45 fc             	mov    DWORD PTR [rbp-0x4],eax
  40298e:	8b 45 fc             	mov    eax,DWORD PTR [rbp-0x4]
  402991:	5d                   	pop    rbp
  402992:	c3                   	ret    
  402993:	66 2e 0f 1f 84 00 00 	cs nop WORD PTR [rax+rax*1+0x0]
  40299a:	00 00 00 
  40299d:	0f 1f 00             	nop    DWORD PTR [rax]

00000000004029a0 <ft_strlen>:
  4029a0:	48 89 f8             	mov    rax,rdi
  4029a3:	48 ff c8             	dec    rax

00000000004029a6 <loop>:
  4029a6:	48 ff c0             	inc    rax
  4029a9:	40 8a 30             	mov    sil,BYTE PTR [rax]
  4029ac:	40 80 fe 00          	cmp    sil,0x0
  4029b0:	75 f4                	jne    4029a6 <loop>
  4029b2:	48 29 f8             	sub    rax,rdi
  4029b5:	c3                   	ret    
  4029b6:	66 2e 0f 1f 84 00 00 	cs nop WORD PTR [rax+rax*1+0x0]
  4029bd:	00 00 00 

00000000004029c0 <ft_strcpy>:
  4029c0:	48 89 f8             	mov    rax,rdi

00000000004029c3 <loop>:
  4029c3:	8a 16                	mov    dl,BYTE PTR [rsi]
  4029c5:	88 17                	mov    BYTE PTR [rdi],dl
  4029c7:	48 ff c7             	inc    rdi
  4029ca:	48 ff c6             	inc    rsi
  4029cd:	80 fa 00             	cmp    dl,0x0
  4029d0:	75 f1                	jne    4029c3 <loop>
  4029d2:	c3                   	ret    
  4029d3:	66 2e 0f 1f 84 00 00 	cs nop WORD PTR [rax+rax*1+0x0]
  4029da:	00 00 00 
  4029dd:	0f 1f 00             	nop    DWORD PTR [rax]

00000000004029e0 <ft_strcmp>:
  4029e0:	31 d2                	xor    edx,edx
  4029e2:	31 c9                	xor    ecx,ecx

00000000004029e4 <loop>:
  4029e4:	8a 17                	mov    dl,BYTE PTR [rdi]
  4029e6:	8a 0e                	mov    cl,BYTE PTR [rsi]
  4029e8:	48 ff c7             	inc    rdi
  4029eb:	48 ff c6             	inc    rsi
  4029ee:	80 fa 00             	cmp    dl,0x0
  4029f1:	0f 94 c0             	sete   al
  4029f4:	80 f9 00             	cmp    cl,0x0
  4029f7:	41 0f 94 c0          	sete   r8b
  4029fb:	44 08 c0             	or     al,r8b
  4029fe:	38 ca                	cmp    dl,cl
  402a00:	41 0f 95 c0          	setne  r8b
  402a04:	44 08 c0             	or     al,r8b
  402a07:	3c 00                	cmp    al,0x0
  402a09:	74 d9                	je     4029e4 <loop>
  402a0b:	31 c0                	xor    eax,eax
  402a0d:	29 ca                	sub    edx,ecx
  402a0f:	89 d0                	mov    eax,edx
  402a11:	c3                   	ret    
  402a12:	66 2e 0f 1f 84 00 00 	cs nop WORD PTR [rax+rax*1+0x0]
  402a19:	00 00 00 
  402a1c:	0f 1f 40 00          	nop    DWORD PTR [rax+0x0]

0000000000402a20 <ft_strdup>:
  402a20:	41 54                	push   r12
  402a22:	41 55                	push   r13
  402a24:	49 89 fc             	mov    r12,rdi

0000000000402a27 <loop0>:
  402a27:	8a 1f                	mov    bl,BYTE PTR [rdi]
  402a29:	48 ff c7             	inc    rdi
  402a2c:	80 fb 00             	cmp    bl,0x0
  402a2f:	75 f6                	jne    402a27 <loop0>
  402a31:	49 89 fd             	mov    r13,rdi
  402a34:	4c 29 e7             	sub    rdi,r12
  402a37:	e8 b4 e6 ff ff       	call   4010f0 <malloc@plt>
  402a3c:	48 89 c7             	mov    rdi,rax
  402a3f:	48 31 f6             	xor    rsi,rsi

0000000000402a42 <loop1>:
  402a42:	41 8a 34 24          	mov    sil,BYTE PTR [r12]
  402a46:	40 88 37             	mov    BYTE PTR [rdi],sil
  402a49:	49 ff c4             	inc    r12
  402a4c:	48 ff c7             	inc    rdi
  402a4f:	4d 39 e5             	cmp    r13,r12
  402a52:	75 ee                	jne    402a42 <loop1>
  402a54:	c6 07 00             	mov    BYTE PTR [rdi],0x0
  402a57:	41 5d                	pop    r13
  402a59:	41 5c                	pop    r12
  402a5b:	c3                   	ret    
  402a5c:	0f 1f 40 00          	nop    DWORD PTR [rax+0x0]

0000000000402a60 <ft_read>:
  402a60:	55                   	push   rbp
  402a61:	48 89 e5             	mov    rbp,rsp
  402a64:	b8 00 00 00 00       	mov    eax,0x0
  402a69:	0f 05                	syscall 
  402a6b:	48 83 f8 00          	cmp    rax,0x0
  402a6f:	7d 14                	jge    402a85 <exit>
  402a71:	48 f7 d8             	neg    rax
  402a74:	50                   	push   rax
  402a75:	e8 a6 e5 ff ff       	call   401020 <__errno_location@plt>
  402a7a:	5f                   	pop    rdi
  402a7b:	48 89 38             	mov    QWORD PTR [rax],rdi
  402a7e:	48 c7 c0 ff ff ff ff 	mov    rax,0xffffffffffffffff

0000000000402a85 <exit>:
  402a85:	5d                   	pop    rbp
  402a86:	c3                   	ret    
  402a87:	66 0f 1f 84 00 00 00 	nop    WORD PTR [rax+rax*1+0x0]
  402a8e:	00 00 

0000000000402a90 <ft_write>:
  402a90:	55                   	push   rbp
  402a91:	48 89 e5             	mov    rbp,rsp
  402a94:	b8 01 00 00 00       	mov    eax,0x1
  402a99:	0f 05                	syscall 
  402a9b:	48 83 f8 00          	cmp    rax,0x0
  402a9f:	7d 14                	jge    402ab5 <exit>
  402aa1:	48 f7 d8             	neg    rax
  402aa4:	50                   	push   rax
  402aa5:	e8 76 e5 ff ff       	call   401020 <__errno_location@plt>
  402aaa:	5f                   	pop    rdi
  402aab:	48 89 38             	mov    QWORD PTR [rax],rdi
  402aae:	48 c7 c0 ff ff ff ff 	mov    rax,0xffffffffffffffff

0000000000402ab5 <exit>:
  402ab5:	5d                   	pop    rbp
  402ab6:	c3                   	ret    
  402ab7:	66 0f 1f 84 00 00 00 	nop    WORD PTR [rax+rax*1+0x0]
  402abe:	00 00 

0000000000402ac0 <ft_atoi_base>:
  402ac0:	55                   	push   rbp
  402ac1:	53                   	push   rbx
  402ac2:	48 89 e5             	mov    rbp,rsp
  402ac5:	48 83 ec 18          	sub    rsp,0x18
  402ac9:	48 89 74 24 08       	mov    QWORD PTR [rsp+0x8],rsi
  402ace:	48 89 3c 24          	mov    QWORD PTR [rsp],rdi
  402ad2:	48 89 f7             	mov    rdi,rsi
  402ad5:	e8 3a 00 00 00       	call   402b14 <verify_base>
  402ada:	48 83 f8 01          	cmp    rax,0x1
  402ade:	76 2c                	jbe    402b0c <error>
  402ae0:	48 89 c3             	mov    rbx,rax
  402ae3:	48 89 e7             	mov    rdi,rsp
  402ae6:	e8 b7 00 00 00       	call   402ba2 <decide_sign>
  402aeb:	88 44 24 10          	mov    BYTE PTR [rsp+0x10],al
  402aef:	48 8b 3c 24          	mov    rdi,QWORD PTR [rsp]
  402af3:	48 8b 74 24 08       	mov    rsi,QWORD PTR [rsp+0x8]
  402af8:	48 89 da             	mov    rdx,rbx
  402afb:	e8 ec 00 00 00       	call   402bec <calc_sum>
  402b00:	80 7c 24 10 00       	cmp    BYTE PTR [rsp+0x10],0x0
  402b05:	74 07                	je     402b0e <ret>
  402b07:	48 f7 d8             	neg    rax
  402b0a:	eb 02                	jmp    402b0e <ret>

0000000000402b0c <error>:
  402b0c:	31 c0                	xor    eax,eax

0000000000402b0e <ret>:
  402b0e:	48 89 ec             	mov    rsp,rbp
  402b11:	5b                   	pop    rbx
  402b12:	5d                   	pop    rbp
  402b13:	c3                   	ret    

0000000000402b14 <verify_base>:
  402b14:	55                   	push   rbp
  402b15:	53                   	push   rbx
  402b16:	48 89 e5             	mov    rbp,rsp
  402b19:	48 89 fa             	mov    rdx,rdi
  402b1c:	48 31 db             	xor    rbx,rbx
  402b1f:	48 81 ec 00 04 00 00 	sub    rsp,0x400
  402b26:	48 31 c0             	xor    rax,rax
  402b29:	b9 80 00 00 00       	mov    ecx,0x80
  402b2e:	48 8d 3c 24          	lea    rdi,[rsp]
  402b32:	f3 48 ab             	rep stos QWORD PTR es:[rdi],rax

0000000000402b35 <verify_base_loop>:
  402b35:	48 0f b6 3a          	movzx  rdi,BYTE PTR [rdx]
  402b39:	40 80 ff 00          	cmp    dil,0x0
  402b3d:	74 3c                	je     402b7b <verify_base_ret>
  402b3f:	e8 40 00 00 00       	call   402b84 <is_space>
  402b44:	3c 00                	cmp    al,0x0
  402b46:	0f 94 c0             	sete   al
  402b49:	48 8b 34 fc          	mov    rsi,QWORD PTR [rsp+rdi*8]
  402b4d:	48 83 fe 00          	cmp    rsi,0x0
  402b51:	0f 94 c1             	sete   cl
  402b54:	20 c8                	and    al,cl
  402b56:	40 80 ff 2d          	cmp    dil,0x2d
  402b5a:	0f 95 c1             	setne  cl
  402b5d:	20 c8                	and    al,cl
  402b5f:	40 80 ff 2b          	cmp    dil,0x2b
  402b63:	0f 95 c1             	setne  cl
  402b66:	20 c8                	and    al,cl
  402b68:	3c 00                	cmp    al,0x0
  402b6a:	74 0c                	je     402b78 <verify_base_false>
  402b6c:	48 ff 04 fc          	inc    QWORD PTR [rsp+rdi*8]
  402b70:	48 ff c2             	inc    rdx
  402b73:	48 ff c3             	inc    rbx
  402b76:	eb bd                	jmp    402b35 <verify_base_loop>

0000000000402b78 <verify_base_false>:
  402b78:	48 31 db             	xor    rbx,rbx

0000000000402b7b <verify_base_ret>:
  402b7b:	48 89 d8             	mov    rax,rbx
  402b7e:	48 89 ec             	mov    rsp,rbp
  402b81:	5b                   	pop    rbx
  402b82:	5d                   	pop    rbp
  402b83:	c3                   	ret    

0000000000402b84 <is_space>:
  402b84:	40 80 ff 09          	cmp    dil,0x9
  402b88:	0f 9d c0             	setge  al
  402b8b:	40 80 ff 0d          	cmp    dil,0xd
  402b8f:	40 0f 9e c6          	setle  sil
  402b93:	40 20 f0             	and    al,sil
  402b96:	40 80 ff 20          	cmp    dil,0x20
  402b9a:	40 0f 94 c6          	sete   sil
  402b9e:	40 08 f0             	or     al,sil
  402ba1:	c3                   	ret    

0000000000402ba2 <decide_sign>:
  402ba2:	53                   	push   rbx
  402ba3:	48 89 fb             	mov    rbx,rdi
  402ba6:	48 8b 17             	mov    rdx,QWORD PTR [rdi]
  402ba9:	48 ff ca             	dec    rdx

0000000000402bac <decide_sign_loop0>:
  402bac:	48 ff c2             	inc    rdx
  402baf:	40 8a 3a             	mov    dil,BYTE PTR [rdx]
  402bb2:	e8 cd ff ff ff       	call   402b84 <is_space>
  402bb7:	3c 00                	cmp    al,0x0
  402bb9:	75 f1                	jne    402bac <decide_sign_loop0>
  402bbb:	48 31 c0             	xor    rax,rax
  402bbe:	48 ff ca             	dec    rdx

0000000000402bc1 <decide_sign_loop1>:
  402bc1:	48 ff c2             	inc    rdx
  402bc4:	40 8a 3a             	mov    dil,BYTE PTR [rdx]
  402bc7:	40 80 ff 2d          	cmp    dil,0x2d
  402bcb:	40 0f 94 c6          	sete   sil
  402bcf:	48 0f b6 f6          	movzx  rsi,sil
  402bd3:	48 01 f0             	add    rax,rsi
  402bd6:	40 80 ff 2b          	cmp    dil,0x2b
  402bda:	0f 94 c1             	sete   cl
  402bdd:	40 08 f1             	or     cl,sil
  402be0:	80 f9 01             	cmp    cl,0x1
  402be3:	74 dc                	je     402bc1 <decide_sign_loop1>

0000000000402be5 <decide_sign_exit>:
  402be5:	24 01                	and    al,0x1
  402be7:	48 89 13             	mov    QWORD PTR [rbx],rdx
  402bea:	5b                   	pop    rbx
  402beb:	c3                   	ret    

0000000000402bec <calc_sum>:
  402bec:	55                   	push   rbp
  402bed:	53                   	push   rbx
  402bee:	41 54                	push   r12
  402bf0:	41 55                	push   r13
  402bf2:	41 56                	push   r14
  402bf4:	48 89 e5             	mov    rbp,rsp
  402bf7:	48 89 fb             	mov    rbx,rdi
  402bfa:	49 89 f4             	mov    r12,rsi
  402bfd:	49 89 d5             	mov    r13,rdx
  402c00:	4d 31 f6             	xor    r14,r14

0000000000402c03 <calc_sum_loop>:
  402c03:	40 8a 3b             	mov    dil,BYTE PTR [rbx]
  402c06:	40 80 ff 00          	cmp    dil,0x0
  402c0a:	74 14                	je     402c20 <calc_sum_ret>
  402c0c:	4c 89 e6             	mov    rsi,r12
  402c0f:	e8 1b 00 00 00       	call   402c2f <get_base_idx>
  402c14:	4d 0f af f5          	imul   r14,r13
  402c18:	49 01 c6             	add    r14,rax
  402c1b:	48 ff c3             	inc    rbx
  402c1e:	eb e3                	jmp    402c03 <calc_sum_loop>

0000000000402c20 <calc_sum_ret>:
  402c20:	4c 89 f0             	mov    rax,r14
  402c23:	48 89 ec             	mov    rsp,rbp
  402c26:	41 5e                	pop    r14
  402c28:	41 5d                	pop    r13
  402c2a:	41 5c                	pop    r12
  402c2c:	5b                   	pop    rbx
  402c2d:	5d                   	pop    rbp
  402c2e:	c3                   	ret    

0000000000402c2f <get_base_idx>:
  402c2f:	48 89 f0             	mov    rax,rsi

0000000000402c32 <get_base_idx_loop>:
  402c32:	8a 10                	mov    dl,BYTE PTR [rax]
  402c34:	80 fa 00             	cmp    dl,0x0
  402c37:	74 08                	je     402c41 <get_base_idx_ret>
  402c39:	48 ff c0             	inc    rax
  402c3c:	40 38 fa             	cmp    dl,dil
  402c3f:	75 f1                	jne    402c32 <get_base_idx_loop>

0000000000402c41 <get_base_idx_ret>:
  402c41:	48 29 f0             	sub    rax,rsi
  402c44:	48 ff c8             	dec    rax
  402c47:	c3                   	ret    
