
tester_Linux:     file format elf64-x86-64

SYMBOL TABLE:
0000000000000000 l    df *ABS*	0000000000000000              Scrt1.o
0000000000400320 l     O .note.ABI-tag	0000000000000020              __abi_tag
0000000000000000 l    df *ABS*	0000000000000000              test.c
0000000000000000 l    df *ABS*	0000000000000000              test_str.c
0000000000000000 l    df *ABS*	0000000000000000              test_syscall.c
0000000000000000 l    df *ABS*	0000000000000000              test_atoi_base.c
0000000000000000 l    df *ABS*	0000000000000000              ft_atoi_base_ref.c
0000000000000000 l    df *ABS*	0000000000000000              ft_strlen.s
0000000000402d76 l       .text	0000000000000000              loop
0000000000000000 l    df *ABS*	0000000000000000              ft_strcpy.s
0000000000402d93 l       .text	0000000000000000              loop
0000000000000000 l    df *ABS*	0000000000000000              ft_strcmp.s
0000000000402db4 l       .text	0000000000000000              loop
0000000000000000 l    df *ABS*	0000000000000000              ft_strdup.s
0000000000402df7 l       .text	0000000000000000              loop0
0000000000402e12 l       .text	0000000000000000              loop1
0000000000000000 l    df *ABS*	0000000000000000              ft_read.s
0000000000402e55 l       .text	0000000000000000              exit
0000000000000000 l    df *ABS*	0000000000000000              ft_write.s
0000000000402e85 l       .text	0000000000000000              exit
0000000000000000 l    df *ABS*	0000000000000000              ft_atoi_base.s
0000000000402edc l       .text	0000000000000000              error
0000000000402ede l       .text	0000000000000000              ret
0000000000402ee4 l       .text	0000000000000000              verify_base
0000000000402f05 l       .text	0000000000000000              verify_base_loop
0000000000402f48 l       .text	0000000000000000              verify_base_false
0000000000402f4b l       .text	0000000000000000              verify_base_ret
0000000000402f54 l       .text	0000000000000000              is_space
0000000000402f72 l       .text	0000000000000000              decide_sign
0000000000402f7c l       .text	0000000000000000              decide_sign_loop0
0000000000402f91 l       .text	0000000000000000              decide_sign_loop1
0000000000402fb5 l       .text	0000000000000000              decide_sign_exit
0000000000402fbc l       .text	0000000000000000              calc_sum
0000000000402fd3 l       .text	0000000000000000              calc_sum_loop
0000000000402ff5 l       .text	0000000000000000              calc_sum_ret
0000000000403004 l       .text	0000000000000000              get_base_idx
0000000000403007 l       .text	0000000000000000              get_base_idx_loop
0000000000403019 l       .text	0000000000000000              get_base_idx_ret
0000000000000000 l    df *ABS*	0000000000000000              
0000000000407e78 l     O .dynamic	0000000000000000              _DYNAMIC
0000000000408000 l     O .got.plt	0000000000000000              _GLOBAL_OFFSET_TABLE_
0000000000402080 g     F .text	0000000000000015              test_atoi_base
0000000000000000       F *UND*	0000000000000000              free@GLIBC_2.2.5
0000000000401220 g     F .text	00000000000000c5              test_strlen
0000000000000000       F *UND*	0000000000000000              __libc_start_main@GLIBC_2.34
0000000000402d90 g       .text	0000000000000000              ft_strcpy
0000000000000000       F *UND*	0000000000000000              __errno_location@GLIBC_2.2.5
0000000000000000       F *UND*	0000000000000000              srandom@GLIBC_2.2.5
00000000004080b0  w      .data	0000000000000000              data_start
0000000000000000       F *UND*	0000000000000000              strcpy@GLIBC_2.2.5
0000000000401910 g     F .text	000000000000024a              test_read_error
0000000000000000       F *UND*	0000000000000000              write@GLIBC_2.2.5
00000000004028d0 g     F .text	0000000000000151              ft_atoi_base_ref
0000000000402d70 g       .text	0000000000000000              ft_strlen
0000000000408140 g       .data	0000000000000000              _edata
0000000000401640 g     F .text	00000000000002c4              test_read_normal
0000000000402d00 g     F .text	0000000000000063              ret_check
0000000000000000       F *UND*	0000000000000000              strlen@GLIBC_2.2.5
0000000000402e60 g       .text	0000000000000000              ft_write
0000000000000000       F *UND*	0000000000000000              printf@GLIBC_2.2.5
0000000000000000       F *UND*	0000000000000000              gettimeofday@GLIBC_2.2.5
00000000004023e0 g     F .text	00000000000001a5              test_atoi_base_random
0000000000000000       F *UND*	0000000000000000              memset@GLIBC_2.2.5
0000000000000000       F *UND*	0000000000000000              close@GLIBC_2.2.5
0000000000000000       F *UND*	0000000000000000              pipe@GLIBC_2.2.5
0000000000000000       F *UND*	0000000000000000              read@GLIBC_2.2.5
00000000004080b0 g       .data	0000000000000000              __data_start
0000000000000000       F *UND*	0000000000000000              strcmp@GLIBC_2.2.5
00000000004012f0 g     F .text	000000000000011e              test_strcpy
0000000000402590 g     F .text	000000000000033e              generate_testcase
0000000000408140 g     O .bss	0000000000000008              g_long_string_len
0000000000402e90 g       .text	0000000000000000              ft_atoi_base
0000000000000000       F *UND*	0000000000000000              memcpy@GLIBC_2.14
0000000000408148 g     O .bss	0000000000000008              g_long_string
0000000000404000 g     O .rodata	0000000000000004              _IO_stdin_used
00000000004020a0 g     F .text	0000000000000196              test_atoi_base_whitespace
0000000000000000       F *UND*	0000000000000000              random@GLIBC_2.2.5
0000000000402df0 g       .text	0000000000000000              ft_strdup
0000000000000000       F *UND*	0000000000000000              malloc@GLIBC_2.2.5
0000000000401410 g     F .text	000000000000010e              test_strcmp
0000000000408158 g       .bss	0000000000000000              _end
0000000000401130 g     F .text	0000000000000026              _start
0000000000402a30 g     F .text	0000000000000159              base_validity
0000000000408140 g       .bss	0000000000000000              __bss_start
0000000000401b60 g     F .text	00000000000002c4              test_write_normal
0000000000401160 g     F .text	00000000000000ba              main
00000000004080c0 g     O .data	0000000000000008              g_random_num
0000000000402db0 g       .text	0000000000000000              ft_strcmp
0000000000402e30 g       .text	0000000000000000              ft_read
0000000000402b90 g     F .text	00000000000000a4              strlen_base
00000000004080d0 g     O .data	0000000000000070              g_cases
0000000000401520 g     F .text	0000000000000113              test_strdup
0000000000402c40 g     F .text	00000000000000b5              str_decode
0000000000401e30 g     F .text	000000000000024a              test_write_error
0000000000402240 g     F .text	0000000000000196              test_atoi_base_sign
0000000000000000       F *UND*	0000000000000000              strdup@GLIBC_2.2.5
0000000000000000       F *UND*	0000000000000000              strerror@GLIBC_2.2.5
0000000000408150 g     O .bss	0000000000000008              g_ncases


Contents of section .interp:
 4002e0 2f6c6962 36342f6c 642d6c69 6e75782d  /lib64/ld-linux-
 4002f0 7838362d 36342e73 6f2e3200           x86-64.so.2.    
Contents of section .note.gnu.property:
 400300 04000000 10000000 05000000 474e5500  ............GNU.
 400310 028000c0 04000000 01000000 00000000  ................
Contents of section .note.ABI-tag:
 400320 04000000 10000000 01000000 474e5500  ............GNU.
 400330 00000000 03000000 02000000 00000000  ................
Contents of section .hash:
 400340 11000000 14000000 03000000 00000000  ................
 400350 09000000 0b000000 07000000 10000000  ................
 400360 0e000000 0d000000 0f000000 00000000  ................
 400370 11000000 04000000 13000000 0a000000  ................
 400380 00000000 00000000 12000000 00000000  ................
 400390 00000000 00000000 00000000 00000000  ................
 4003a0 01000000 00000000 00000000 06000000  ................
 4003b0 00000000 00000000 00000000 00000000  ................
 4003c0 02000000 00000000 00000000 00000000  ................
 4003d0 08000000 0c000000 05000000           ............    
Contents of section .gnu.hash:
 4003e0 01000000 01000000 01000000 00000000  ................
 4003f0 00000000 00000000 00000000           ............    
Contents of section .dynsym:
 400400 00000000 00000000 00000000 00000000  ................
 400410 00000000 00000000 44000000 12000000  ........D.......
 400420 00000000 00000000 00000000 00000000  ................
 400430 01000000 12000000 00000000 00000000  ................
 400440 00000000 00000000 4e000000 12000000  ........N.......
 400450 00000000 00000000 00000000 00000000  ................
 400460 8d000000 12000000 00000000 00000000  ................
 400470 00000000 00000000 2f000000 12000000  ......../.......
 400480 00000000 00000000 00000000 00000000  ................
 400490 5f000000 12000000 00000000 00000000  _...............
 4004a0 00000000 00000000 21000000 12000000  ........!.......
 4004b0 00000000 00000000 00000000 00000000  ................
 4004c0 28000000 12000000 00000000 00000000  (...............
 4004d0 00000000 00000000 80000000 12000000  ................
 4004e0 00000000 00000000 00000000 00000000  ................
 4004f0 1a000000 12000000 00000000 00000000  ................
 400500 00000000 00000000 73000000 12000000  ........s.......
 400510 00000000 00000000 00000000 00000000  ................
 400520 49000000 12000000 00000000 00000000  I...............
 400530 00000000 00000000 65000000 12000000  ........e.......
 400540 00000000 00000000 00000000 00000000  ................
 400550 36000000 12000000 00000000 00000000  6...............
 400560 00000000 00000000 79000000 12000000  ........y.......
 400570 00000000 00000000 00000000 00000000  ................
 400580 8e000000 12000000 00000000 00000000  ................
 400590 00000000 00000000 13000000 12000000  ................
 4005a0 00000000 00000000 00000000 00000000  ................
 4005b0 3d000000 12000000 00000000 00000000  =...............
 4005c0 00000000 00000000 6a000000 12000000  ........j.......
 4005d0 00000000 00000000 00000000 00000000  ................
Contents of section .dynstr:
 4005e0 005f5f6c 6962635f 73746172 745f6d61  .__libc_start_ma
 4005f0 696e006d 616c6c6f 63006d65 6d736574  in.malloc.memset
 400600 00737472 6c656e00 7072696e 74660073  .strlen.printf.s
 400610 74726370 79007374 72636d70 00737472  trcpy.strcmp.str
 400620 64757000 66726565 00706970 65005f5f  dup.free.pipe.__
 400630 6572726e 6f5f6c6f 63617469 6f6e0077  errno_location.w
 400640 72697465 00726561 64007374 72657272  rite.read.strerr
 400650 6f720063 6c6f7365 006d656d 63707900  or.close.memcpy.
 400660 67657474 696d656f 66646179 00737261  gettimeofday.sra
 400670 6e646f6d 006c6962 632e736f 2e360047  ndom.libc.so.6.G
 400680 4c494243 5f322e31 3400474c 4942435f  LIBC_2.14.GLIBC_
 400690 322e3334 00474c49 42435f32 2e322e35  2.34.GLIBC_2.2.5
 4006a0 00                                   .               
Contents of section .gnu.version:
 4006a2 00000200 03000200 02000200 02000200  ................
 4006b2 02000200 02000200 02000200 02000400  ................
 4006c2 02000200 02000200                    ........        
Contents of section .gnu.version_r:
 4006d0 01000300 95000000 10000000 00000000  ................
 4006e0 94919606 00000400 9f000000 10000000  ................
 4006f0 b4919606 00000300 aa000000 10000000  ................
 400700 751a6909 00000200 b5000000 00000000  u.i.............
Contents of section .rela.dyn:
 400710 f87f4000 00000000 06000000 02000000  ..@.............
 400720 00000000 00000000                    ........        
Contents of section .rela.plt:
 400728 18804000 00000000 07000000 01000000  ..@.............
 400738 00000000 00000000 20804000 00000000  ........ .@.....
 400748 07000000 03000000 00000000 00000000  ................
 400758 28804000 00000000 07000000 04000000  (.@.............
 400768 00000000 00000000 30804000 00000000  ........0.@.....
 400778 07000000 05000000 00000000 00000000  ................
 400788 38804000 00000000 07000000 06000000  8.@.............
 400798 00000000 00000000 40804000 00000000  ........@.@.....
 4007a8 07000000 07000000 00000000 00000000  ................
 4007b8 48804000 00000000 07000000 08000000  H.@.............
 4007c8 00000000 00000000 50804000 00000000  ........P.@.....
 4007d8 07000000 09000000 00000000 00000000  ................
 4007e8 58804000 00000000 07000000 0a000000  X.@.............
 4007f8 00000000 00000000 60804000 00000000  ........`.@.....
 400808 07000000 0b000000 00000000 00000000  ................
 400818 68804000 00000000 07000000 0c000000  h.@.............
 400828 00000000 00000000 70804000 00000000  ........p.@.....
 400838 07000000 0d000000 00000000 00000000  ................
 400848 78804000 00000000 07000000 0e000000  x.@.............
 400858 00000000 00000000 80804000 00000000  ..........@.....
 400868 07000000 0f000000 00000000 00000000  ................
 400878 88804000 00000000 07000000 10000000  ..@.............
 400888 00000000 00000000 90804000 00000000  ..........@.....
 400898 07000000 11000000 00000000 00000000  ................
 4008a8 98804000 00000000 07000000 12000000  ..@.............
 4008b8 00000000 00000000 a0804000 00000000  ..........@.....
 4008c8 07000000 13000000 00000000 00000000  ................
Contents of section .plt:
 401000 ff350270 0000ff25 04700000 0f1f4000  .5.p...%.p....@.
 401010 ff250270 00006800 000000e9 e0ffffff  .%.p..h.........
 401020 ff25fa6f 00006801 000000e9 d0ffffff  .%.o..h.........
 401030 ff25f26f 00006802 000000e9 c0ffffff  .%.o..h.........
 401040 ff25ea6f 00006803 000000e9 b0ffffff  .%.o..h.........
 401050 ff25e26f 00006804 000000e9 a0ffffff  .%.o..h.........
 401060 ff25da6f 00006805 000000e9 90ffffff  .%.o..h.........
 401070 ff25d26f 00006806 000000e9 80ffffff  .%.o..h.........
 401080 ff25ca6f 00006807 000000e9 70ffffff  .%.o..h.....p...
 401090 ff25c26f 00006808 000000e9 60ffffff  .%.o..h.....`...
 4010a0 ff25ba6f 00006809 000000e9 50ffffff  .%.o..h.....P...
 4010b0 ff25b26f 0000680a 000000e9 40ffffff  .%.o..h.....@...
 4010c0 ff25aa6f 0000680b 000000e9 30ffffff  .%.o..h.....0...
 4010d0 ff25a26f 0000680c 000000e9 20ffffff  .%.o..h..... ...
 4010e0 ff259a6f 0000680d 000000e9 10ffffff  .%.o..h.........
 4010f0 ff25926f 0000680e 000000e9 00ffffff  .%.o..h.........
 401100 ff258a6f 0000680f 000000e9 f0feffff  .%.o..h.........
 401110 ff25826f 00006810 000000e9 e0feffff  .%.o..h.........
 401120 ff257a6f 00006811 000000e9 d0feffff  .%zo..h.........
Contents of section .text:
 401130 f30f1efa 31ed4989 d15e4889 e24883e4  ....1.I..^H..H..
 401140 f0505445 31c031c9 48c7c760 114000ff  .PTE1.1.H..`.@..
 401150 15a36e00 00f4662e 0f1f8400 00000000  ..n...f.........
 401160 554889e5 4883ec10 c745fc00 00000048  UH..H....E.....H
 401170 8b3dca6f 00004883 c702e881 ffffff48  .=.o..H........H
 401180 8905c26f 0000488b 3dbb6f00 00488b15  ...o..H.=.o..H..
 401190 ac6f0000 4883c202 be610000 00e8eefe  .o..H....a......
 4011a0 ffff488b 059f6f00 00488b0d 906f0000  ..H...o..H...o..
 4011b0 c6440801 0048c705 906f0000 0e000000  .D...H...o......
 4011c0 488b0d89 6f000048 83e90148 8b05766f  H...o..H...H..vo
 4011d0 00004889 45f0488d 05f36e00 00488b55  ..H.E.H...n..H.U
 4011e0 f0488914 c8e83600 0000e801 010000e8  .H....6.........
 4011f0 1c020000 e8270300 00e84204 0000e80d  .....'....B.....
 401200 070000e8 58090000 e8230c00 00e86e0e  ....X....#....n.
 401210 000031c0 4883c410 5dc3660f 1f440000  ..1.H...].f..D..
 401220 554889e5 4883ec20 c745fc00 00000048  UH..H.. .E.....H
 401230 c745f000 00000048 8b45f048 c7c15081  .E.....H.E.H..P.
 401240 4000483b 010f835b 00000048 8b4df048  @.H;...[...H.M.H
 401250 c7c0d080 4000488b 04c84889 45e8488b  ....@.H...H.E.H.
 401260 7de8e8f9 fdffff48 8945e048 8b7de8e8  }......H.E.H.}..
 401270 fc1a0000 4889c148 8b45e048 39c80f85  ....H..H.E.H9...
 401280 05000000 e90c0000 00c745fc 01000000  ..........E.....
 401290 e9110000 00488b45 f04883c0 01488945  .....H.E.H...H.E
 4012a0 f0e991ff ffff837d fc000f84 1a000000  .......}........
 4012b0 488d3da0 2d000048 8d35a22d 0000b000  H.=.-..H.5.-....
 4012c0 e8abfdff ffe91500 0000488d 3d9b2d00  ..........H.=.-.
 4012d0 00488d35 882d0000 b000e891 fdffff48  .H.5.-.........H
 4012e0 83c4205d c3662e0f 1f840000 00000090  .. ].f..........
 4012f0 554889e5 4881ec20 080000c7 85fcf7ff  UH..H.. ........
 401300 ff000000 0048c785 f0f7ffff 00000000  .....H..........
 401310 488b85f0 f7ffff48 c7c15081 4000483b  H......H..P.@.H;
 401320 010f83a2 00000048 8b8df0f7 ffff48c7  .......H......H.
 401330 c0d08040 00488b04 c8488985 e8f7ffff  ...@.H...H......
 401340 488b85e8 f7ffff48 c7c14881 4000483b  H......H..H.@.H;
 401350 010f8505 000000e9 56000000 488dbd00  ........V...H...
 401360 fcffff48 8bb5e8f7 ffffe8d1 fcffff48  ...H...........H
 401370 8dbd00f8 ffff488b b5e8f7ff ffe80e1a  ......H.........
 401380 0000488d bd00fcff ff488db5 00f8ffff  ..H......H......
 401390 e83bfdff ff83f800 0f850500 0000e90f  .;..............
 4013a0 000000c7 85fcf7ff ff010000 00e91700  ................
 4013b0 0000488b 85f0f7ff ff4883c0 01488985  ..H......H...H..
 4013c0 f0f7ffff e947ffff ff83bdfc f7ffff00  .....G..........
 4013d0 0f841a00 0000488d 3d7a2c00 00488d35  ......H.=z,..H.5
 4013e0 942c0000 b000e885 fcffffe9 15000000  .,..............
 4013f0 488d3d75 2c000048 8d357a2c 0000b000  H.=u,..H.5z,....
 401400 e86bfcff ff4881c4 20080000 5dc36690  .k...H.. ...].f.
 401410 554889e5 4883ec30 c745fc00 00000048  UH..H..0.E.....H
 401420 c745f000 00000048 8b45f048 c7c15081  .E.....H.E.H..P.
 401430 4000483b 010f83a4 00000048 c745e800  @.H;.......H.E..
 401440 00000048 8b45e848 c7c15081 4000483b  ...H.E.H..P.@.H;
 401450 010f8372 00000048 8b4df048 c7c0d080  ...r...H.M.H....
 401460 4000488b 04c84889 45e0488b 4de848c7  @.H...H.E.H.M.H.
 401470 c0d08040 00488b04 c8488945 d8488b7d  ...@.H...H.E.H.}
 401480 e0488b75 d8e846fc ffff8945 d4488b7d  .H.u..F....E.H.}
 401490 e0488b75 d8e81619 000089c1 8b45d439  .H.u.........E.9
 4014a0 c80f8505 000000e9 0c000000 c745fc01  .............E..
 4014b0 000000e9 11000000 488b45e8 4883c001  ........H.E.H...
 4014c0 488945e8 e97affff ffe90000 0000488b  H.E..z........H.
 4014d0 45f04883 c0014889 45f0e948 ffffff83  E.H...H.E..H....
 4014e0 7dfc000f 841a0000 00488d3d 672b0000  }........H.=g+..
 4014f0 488d358d 2b0000b0 00e872fb ffffe915  H.5.+.....r.....
 401500 00000048 8d3d622b 0000488d 35732b00  ...H.=b+..H.5s+.
 401510 00b000e8 58fbffff 4883c430 5dc36690  ....X...H..0].f.
 401520 554889e5 4883ec30 c745fc00 00000048  UH..H..0.E.....H
 401530 c745f000 00000048 8b45f048 c7c15081  .E.....H.E.H..P.
 401540 4000483b 010f83a9 00000048 8b4df048  @.H;.......H.M.H
 401550 c7c0d080 4000488b 04c84889 45e8488b  ....@.H...H.E.H.
 401560 7de8e8a9 fbffff48 8945e048 8b7de8e8  }......H.E.H.}..
 401570 7c180000 488945d8 488b7de0 488b75d8  |...H.E.H.}.H.u.
 401580 e84bfbff ff89c131 c083f900 8845d30f  .K.....1.....E..
 401590 85160000 00488b7d e0488b75 d8e80e18  .....H.}.H.u....
 4015a0 000083f8 000f94c0 8845d38a 45d32401  .........E..E.$.
 4015b0 0fb6c089 45d4488b 7de0e851 faffff48  ....E.H.}..Q...H
 4015c0 8b7dd8e8 48faffff 837dd400 0f840500  .}..H....}......
 4015d0 0000e90c 000000c7 45fc0100 0000e911  ........E.......
 4015e0 00000048 8b45f048 83c00148 8945f0e9  ...H.E.H...H.E..
 4015f0 43ffffff 837dfc00 0f841a00 0000488d  C....}........H.
 401600 3d522a00 00488d35 842a0000 b000e85d  =R*..H.5.*.....]
 401610 faffffe9 15000000 488d3d4d 2a000048  ........H.=M*..H
 401620 8d356a2a 0000b000 e843faff ff4883c4  .5j*.....C...H..
 401630 305dc366 2e0f1f84 00000000 000f1f00  0].f............
 401640 554889e5 4881ec60 080000c7 45fc0000  UH..H..`....E...
 401650 0000488d 7df4e855 faffff83 f8000f8d  ..H.}..U........
 401660 13000000 488d3d31 2a0000b0 00e8fef9  ....H.=1*.......
 401670 ffffe984 02000048 8d45f448 8985e8f7  .......H.E.H....
 401680 ffff48c7 85e0f7ff ff000000 00488b85  ..H..........H..
 401690 e0f7ffff 48c7c150 81400048 3b010f83  ....H..P.@.H;...
 4016a0 01020000 488b8de0 f7ffff48 c7c0d080  ....H......H....
 4016b0 4000488b 04c84889 85d8f7ff ff488b85  @.H...H......H..
 4016c0 d8f7ffff 48c7c148 81400048 3b010f85  ....H..H.@.H;...
 4016d0 05000000 e9b50100 00488bbd d8f7ffff  .........H......
 4016e0 e87bf9ff ff488985 d0f7ffff 488dbdf0  .{...H......H...
 4016f0 fbffff31 f6ba0004 0000e891 f9ffff48  ...1...........H
 401700 8dbdf0f7 ffff31f6 ba000400 00e87ef9  ......1.......~.
 401710 ffffe809 f9ffffc7 00000000 00488b85  .............H..
 401720 e8f7ffff 8b780448 8bb5d8f7 ffff488b  .....x.H......H.
 401730 95d0f7ff ffe816f9 ffff488b 85e8f7ff  ..........H.....
 401740 ff8b3848 8db5f0fb ffff488b 95d0f7ff  ..8H......H.....
 401750 ffe86af9 ffff4889 85c8f7ff ffe8bef8  ..j...H.........
 401760 ffff8b00 8985bcf7 ffffe8b1 f8ffffc7  ................
 401770 00000000 00488b85 e8f7ffff 8b780448  .....H.......x.H
 401780 8bb5d8f7 ffff488b 95d0f7ff ffe8bef8  ......H.........
 401790 ffff488b 85e8f7ff ff8b3848 8db5f0f7  ..H.......8H....
 4017a0 ffff488b 95d0f7ff ffe88216 00004889  ..H...........H.
 4017b0 85c0f7ff ffe866f8 ffff8b00 8985b8f7  ......f.........
 4017c0 ffff488d bdf0fbff ff488db5 f0f7ffff  ..H......H......
 4017d0 e8fbf8ff ff83f800 0f852b00 00008b85  ..........+.....
 4017e0 bcf7ffff 3b85b8f7 ffff0f85 19000000  ....;...........
 4017f0 488b85c8 f7ffff48 3b85c0f7 ffff0f85  H......H;.......
 401800 05000000 e9850000 00488bb5 e0f7ffff  .........H......
 401810 4883c601 488d3d8e 280000b0 00e84ef8  H...H.=.(.....N.
 401820 ffff8bbd bcf7ffff e8f3f8ff ff488985  .............H..
 401830 a8f7ffff 8b85bcf7 ffff8985 b4f7ffff  ................
 401840 8bbdb8f7 ffffe8d5 f8ffff48 8bb5a8f7  ...........H....
 401850 ffff8b95 b4f7ffff 4889c144 8b85b8f7  ........H..D....
 401860 ffff4c8b 8dc8f7ff ff488b85 c0f7ffff  ..L......H......
 401870 488d3d38 28000048 890424b0 00e8eef7  H.=8(..H..$.....
 401880 ffffc745 fc010000 00e91700 0000488b  ...E..........H.
 401890 85e0f7ff ff4883c0 01488985 e0f7ffff  .....H...H......
 4018a0 e9e8fdff ff488b85 e8f7ffff 8b7804e8  .....H.......x..
 4018b0 ecf7ffff 488b85e8 f7ffff8b 38e8def7  ....H.......8...
 4018c0 ffff837d fc000f84 1a000000 488d3d84  ...}........H.=.
 4018d0 27000048 8d35fe27 0000b000 e88ff7ff  '..H.5.'........
 4018e0 ffe91500 0000488d 3d7f2700 00488d35  ......H.=.'..H.5
 4018f0 e4270000 b000e875 f7ffff48 81c46008  .'.....u...H..`.
 401900 00005dc3 662e0f1f 84000000 00006690  ..].f.........f.
 401910 554889e5 4881ec90 00000048 8b050e28  UH..H......H...(
 401920 00004889 45e0488b 050b2800 00488945  ..H.E.H...(..H.E
 401930 e88b0509 28000089 45f0c745 dc050000  ....(...E..E....
 401940 00488d7d d431f6ba 08000000 e83ff7ff  .H.}.1.......?..
 401950 ffc745d0 00000000 8b45d03b 45dc0f8d  ..E......E.;E...
 401960 ed000000 e8b7f6ff ffc70000 00000048  ...............H
 401970 6345d08b 7c85e048 8d75d4ba 07000000  cE..|..H.u......
 401980 e83bf7ff ff488945 c0e892f6 ffff8b00  .;...H.E........
 401990 8945cce8 88f6ffff c7000000 00004863  .E............Hc
 4019a0 45d08b7c 85e0488d 75d4ba07 000000e8  E..|..H.u.......
 4019b0 7c140000 488945b8 e863f6ff ff8b0089  |...H.E..c......
 4019c0 45c88b45 cc3b45c8 0f851300 0000488b  E..E.;E.......H.
 4019d0 45c0483b 45b80f85 05000000 e9620000  E.H;E........b..
 4019e0 008b75d0 83c60148 8d3dfb26 0000b000  ..u....H.=.&....
 4019f0 e87bf6ff ff8b7dcc e823f7ff ff488945  .{....}..#...H.E
 401a00 908b45cc 89459c8b 7dc8e811 f7ffff48  ..E..E..}......H
 401a10 8b75908b 559c4889 c1448b45 c84c8b4d  .u..U.H..D.E.L.M
 401a20 c0488b45 b8488d3d 83260000 48890424  .H.E.H.=.&..H..$
 401a30 b000e839 f6ffffc7 45fc0100 0000e90e  ...9....E.......
 401a40 0000008b 45d083c0 018945d0 e907ffff  ....E.....E.....
 401a50 ffe8caf5 ffffc700 00000000 488d75d4  ............H.u.
 401a60 31ff48c7 c2ffffff ffe852f6 ffff4889  1.H.......R...H.
 401a70 45a8e8a9 f5ffff8b 008945b4 e89ff5ff  E.........E.....
 401a80 ffc70000 00000048 8d75d431 ff48c7c2  .......H.u.1.H..
 401a90 ffffffff e8971300 00488945 a0e87ef5  .........H.E..~.
 401aa0 ffff8b00 8945b08b 45b43b45 b00f850e  .....E..E.;E....
 401ab0 00000048 8b45a848 3b45a00f 84570000  ...H.E.H;E...W..
 401ac0 00488d3d 26260000 b000e8a1 f5ffff8b  .H.=&&..........
 401ad0 7db4e849 f6ffff48 8945808b 45b48945  }..I...H.E..E..E
 401ae0 8c8b7db0 e837f6ff ff488b75 808b558c  ..}..7...H.u..U.
 401af0 4889c144 8b45b04c 8b4da848 8b45a048  H..D.E.L.M.H.E.H
 401b00 8d3da925 00004889 0424b000 e85ff5ff  .=.%..H..$..._..
 401b10 ffc745fc 01000000 837dfc00 0f841a00  ..E......}......
 401b20 0000488d 3d2e2500 00488d35 c2250000  ..H.=.%..H.5.%..
 401b30 b000e839 f5ffffe9 15000000 488d3d29  ...9........H.=)
 401b40 25000048 8d35a825 0000b000 e81ff5ff  %..H.5.%........
 401b50 ff4881c4 90000000 5dc3660f 1f440000  .H......].f..D..
 401b60 554889e5 4881ec60 080000c7 45fc0000  UH..H..`....E...
 401b70 0000488d 7df4e835 f5ffff83 f8000f8d  ..H.}..5........
 401b80 13000000 488d3d11 250000b0 00e8def4  ....H.=.%.......
 401b90 ffffe984 02000048 8d45f448 8985e8f7  .......H.E.H....
 401ba0 ffff48c7 85e0f7ff ff000000 00488b85  ..H..........H..
 401bb0 e0f7ffff 48c7c150 81400048 3b010f83  ....H..P.@.H;...
 401bc0 01020000 488b8de0 f7ffff48 c7c0d080  ....H......H....
 401bd0 4000488b 04c84889 85d8f7ff ff488b85  @.H...H......H..
 401be0 d8f7ffff 48c7c148 81400048 3b010f85  ....H..H.@.H;...
 401bf0 05000000 e9b50100 00488bbd d8f7ffff  .........H......
 401c00 e85bf4ff ff488985 d0f7ffff 488dbdf0  .[...H......H...
 401c10 fbffff31 f6ba0004 0000e871 f4ffff48  ...1.......q...H
 401c20 8dbdf0f7 ffff31f6 ba000400 00e85ef4  ......1.......^.
 401c30 ffffe8e9 f3ffffc7 00000000 00488b85  .............H..
 401c40 e8f7ffff 8b780448 8bb5d8f7 ffff488b  .....x.H......H.
 401c50 95d0f7ff ffe8f6f3 ffff4889 85c8f7ff  ..........H.....
 401c60 ffe8baf3 ffff8b00 8985bcf7 ffff488b  ..............H.
 401c70 85e8f7ff ff8b3848 8db5f0fb ffff488b  ......8H......H.
 401c80 95d0f7ff ffe836f4 ffffe891 f3ffffc7  ......6.........
 401c90 00000000 00488b85 e8f7ffff 8b780448  .....H.......x.H
 401ca0 8bb5d8f7 ffff488b 95d0f7ff ffe8ae11  ......H.........
 401cb0 00004889 85c0f7ff ffe862f3 ffff8b00  ..H.......b.....
 401cc0 8985b8f7 ffff488b 85e8f7ff ff8b3848  ......H.......8H
 401cd0 8db5f0f7 ffff488b 95d0f7ff ffe8def3  ......H.........
 401ce0 ffff488d bdf0fbff ff488db5 f0f7ffff  ..H......H......
 401cf0 e8dbf3ff ff83f800 0f852b00 00008b85  ..........+.....
 401d00 bcf7ffff 3b85b8f7 ffff0f85 19000000  ....;...........
 401d10 488b85c8 f7ffff48 3b85c0f7 ffff0f85  H......H;.......
 401d20 05000000 e9850000 00488bb5 e0f7ffff  .........H......
 401d30 4883c601 488d3dc7 230000b0 00e82ef3  H...H.=.#.......
 401d40 ffff8bbd bcf7ffff e8d3f3ff ff488985  .............H..
 401d50 a8f7ffff 8b85bcf7 ffff8985 b4f7ffff  ................
 401d60 8bbdb8f7 ffffe8b5 f3ffff48 8bb5a8f7  ...........H....
 401d70 ffff8b95 b4f7ffff 4889c144 8b85b8f7  ........H..D....
 401d80 ffff4c8b 8dc8f7ff ff488b85 c0f7ffff  ..L......H......
 401d90 488d3d18 23000048 890424b0 00e8cef2  H.=.#..H..$.....
 401da0 ffffc745 fc010000 00e91700 0000488b  ...E..........H.
 401db0 85e0f7ff ff4883c0 01488985 e0f7ffff  .....H...H......
 401dc0 e9e8fdff ff488b85 e8f7ffff 8b7804e8  .....H.......x..
 401dd0 ccf2ffff 488b85e8 f7ffff8b 38e8bef2  ....H.......8...
 401de0 ffff837d fc000f84 1a000000 488d3d64  ...}........H.=d
 401df0 22000048 8d350e23 0000b000 e86ff2ff  "..H.5.#.....o..
 401e00 ffe91500 0000488d 3d5f2200 00488d35  ......H.=_"..H.5
 401e10 f4220000 b000e855 f2ffff48 81c46008  .".....U...H..`.
 401e20 00005dc3 662e0f1f 84000000 00006690  ..].f.........f.
 401e30 554889e5 4881ec90 00000048 8b050e23  UH..H......H...#
 401e40 00004889 45e0488b 050b2300 00488945  ..H.E.H...#..H.E
 401e50 e88b0509 23000089 45f0c745 dc050000  ....#...E..E....
 401e60 00488d7d d431f6ba 08000000 e81ff2ff  .H.}.1..........
 401e70 ffc745d0 00000000 8b45d03b 45dc0f8d  ..E......E.;E...
 401e80 ed000000 e897f1ff ffc70000 00000048  ...............H
 401e90 6345d08b 7c85e048 8d75d4ba 07000000  cE..|..H.u......
 401ea0 e8abf1ff ff488945 c0e872f1 ffff8b00  .....H.E..r.....
 401eb0 8945cce8 68f1ffff c7000000 00004863  .E..h.........Hc
 401ec0 45d08b7c 85e0488d 75d4ba07 000000e8  E..|..H.u.......
 401ed0 8c0f0000 488945b8 e843f1ff ff8b0089  ....H.E..C......
 401ee0 45c88b45 cc3b45c8 0f851300 0000488b  E..E.;E.......H.
 401ef0 45c0483b 45b80f85 05000000 e9620000  E.H;E........b..
 401f00 008b75d0 83c60148 8d3ddb21 0000b000  ..u....H.=.!....
 401f10 e85bf1ff ff8b7dcc e803f2ff ff488945  .[....}......H.E
 401f20 908b45cc 89459c8b 7dc8e8f1 f1ffff48  ..E..E..}......H
 401f30 8b75908b 559c4889 c1448b45 c84c8b4d  .u..U.H..D.E.L.M
 401f40 c0488b45 b8488d3d 63210000 48890424  .H.E.H.=c!..H..$
 401f50 b000e819 f1ffffc7 45fc0100 0000e90e  ........E.......
 401f60 0000008b 45d083c0 018945d0 e907ffff  ....E.....E.....
 401f70 ffe8aaf0 ffffc700 00000000 488d75d4  ............H.u.
 401f80 31ff48c7 c2ffffff ffe8c2f0 ffff4889  1.H...........H.
 401f90 45a8e889 f0ffff8b 008945b4 e87ff0ff  E.........E.....
 401fa0 ffc70000 00000048 8d75d431 ff48c7c2  .......H.u.1.H..
 401fb0 ffffffff e8a70e00 00488945 a0e85ef0  .........H.E..^.
 401fc0 ffff8b00 8945b08b 45b43b45 b00f850e  .....E..E.;E....
 401fd0 00000048 8b45a848 3b45a00f 84570000  ...H.E.H;E...W..
 401fe0 00488d3d 06210000 b000e881 f0ffff8b  .H.=.!..........
 401ff0 7db4e829 f1ffff48 8945808b 45b48945  }..)...H.E..E..E
 402000 8c8b7db0 e817f1ff ff488b75 808b558c  ..}......H.u..U.
 402010 4889c144 8b45b04c 8b4da848 8b45a048  H..D.E.L.M.H.E.H
 402020 8d3d8920 00004889 0424b000 e83ff0ff  .=. ..H..$...?..
 402030 ffc745fc 01000000 837dfc00 0f841a00  ..E......}......
 402040 0000488d 3d0e2000 00488d35 ca200000  ..H.=. ..H.5. ..
 402050 b000e819 f0ffffe9 15000000 488d3d09  ............H.=.
 402060 20000048 8d35b020 0000b000 e8ffefff   ..H.5. ........
 402070 ff4881c4 90000000 5dc3660f 1f440000  .H......].f..D..
 402080 554889e5 e8170000 00e8b201 0000e84d  UH.............M
 402090 0300005d c3662e0f 1f840000 00000090  ...].f..........
 4020a0 554889e5 4881ecc0 0d000048 8dbd80f2  UH..H......H....
 4020b0 ffff488d 35472100 00ba800d 0000e81d  ..H.5G!.........
 4020c0 f0ffff48 c78578f2 ffff1b00 0000c685  ...H..x.........
 4020d0 77f2ffff 0048c785 68f2ffff 00000000  w....H..h.......
 4020e0 4883bd68 f2ffff1b 0f830301 0000488b  H..h..........H.
 4020f0 8d68f2ff ff488d85 80f2ffff 48c1e107  .h...H......H...
 402100 4801c848 83c06548 898560f2 ffff488b  H..H..eH..`...H.
 402110 8d68f2ff ff488d85 80f2ffff 48c1e107  .h...H......H...
 402120 4801c848 898558f2 ffff488b 8d68f2ff  H..H..X...H..h..
 402130 ff488d85 80f2ffff 48c1e107 4801c88b  .H......H...H...
 402140 407c8985 54f2ffff 488bbd58 f2ffff48  @|..T...H..X...H
 402150 8bb560f2 ffffe835 0d000089 8550f2ff  ..`....5.....P..
 402160 ff488bbd 58f2ffff 488bb560 f2ffffe8  .H..X...H..`....
 402170 5c070000 89854cf2 ffff8b85 50f2ffff  \.....L.....P...
 402180 3b8554f2 ffff0f85 12000000 8b8550f2  ;.T...........P.
 402190 ffff3b85 54f2ffff 0f843700 0000488b  ..;.T.....7...H.
 4021a0 b560f2ff ff488b95 58f2ffff 8b8d54f2  .`...H..X.....T.
 4021b0 ffff448b 8550f2ff ff448b8d 4cf2ffff  ..D..P...D..L...
 4021c0 488d3dde 1f0000b0 00e8a2ee ffffc685  H.=.............
 4021d0 77f2ffff 01e90000 0000488b 8568f2ff  w.........H..h..
 4021e0 ff4883c0 01488985 68f2ffff e9effeff  .H...H..h.......
 4021f0 ff80bd77 f2ffff00 0f841a00 0000488d  ...w..........H.
 402200 3d521e00 00488d35 c61f0000 b000e85d  =R...H.5.......]
 402210 eeffffe9 15000000 488d3d4d 1e000048  ........H.=M...H
 402220 8d35ac1f 0000b000 e843eeff ff4881c4  .5.......C...H..
 402230 c00d0000 5dc3662e 0f1f8400 00000000  ....].f.........
 402240 554889e5 4881ecc0 0c000048 8dbd80f3  UH..H......H....
 402250 ffff488d 35272d00 00ba800c 0000e87d  ..H.5'-........}
 402260 eeffff48 c78578f3 ffff1900 0000c685  ...H..x.........
 402270 77f3ffff 0048c785 68f3ffff 00000000  w....H..h.......
 402280 4883bd68 f3ffff19 0f830301 0000488b  H..h..........H.
 402290 8d68f3ff ff488d85 80f3ffff 48c1e107  .h...H......H...
 4022a0 4801c848 83c06548 898560f3 ffff488b  H..H..eH..`...H.
 4022b0 8d68f3ff ff488d85 80f3ffff 48c1e107  .h...H......H...
 4022c0 4801c848 898558f3 ffff488b 8d68f3ff  H..H..X...H..h..
 4022d0 ff488d85 80f3ffff 48c1e107 4801c88b  .H......H...H...
 4022e0 407c8985 54f3ffff 488bbd58 f3ffff48  @|..T...H..X...H
 4022f0 8bb560f3 ffffe895 0b000089 8550f3ff  ..`..........P..
 402300 ff488bbd 58f3ffff 488bb560 f3ffffe8  .H..X...H..`....
 402310 bc050000 89854cf3 ffff8b85 50f3ffff  ......L.....P...
 402320 3b8554f3 ffff0f85 12000000 8b8550f3  ;.T...........P.
 402330 ffff3b85 54f3ffff 0f843700 0000488b  ..;.T.....7...H.
 402340 b560f3ff ff488b95 58f3ffff 8b8d54f3  .`...H..X.....T.
 402350 ffff448b 8550f3ff ff448b8d 4cf3ffff  ..D..P...D..L...
 402360 488d3d3e 1e0000b0 00e802ed ffffc685  H.=>............
 402370 77f3ffff 01e90000 0000488b 8568f3ff  w.........H..h..
 402380 ff4883c0 01488985 68f3ffff e9effeff  .H...H..h.......
 402390 ff80bd77 f3ffff00 0f841a00 0000488d  ...w..........H.
 4023a0 3db21c00 00488d35 401e0000 b000e8bd  =....H.5@.......
 4023b0 ecffffe9 15000000 488d3dad 1c000048  ........H.=....H
 4023c0 8d35261e 0000b000 e8a3ecff ff4881c4  .5&..........H..
 4023d0 c00c0000 5dc3662e 0f1f8400 00000000  ....].f.........
 4023e0 554889e5 4881ec40 a8610048 8dbd0058  UH..H..@.a.H...X
 4023f0 9eff31f6 ba00a861 00e892ec ffff48c7  ..1....a......H.
 402400 85f8579e ff50c300 00c685f7 579eff00  ..W..P......W...
 402410 488dbd00 589effbe 50c30000 e86f0100  H...X...P....o..
 402420 0048c785 e8579eff 00000000 4881bde8  .H...W......H...
 402430 579eff50 c300000f 83030100 00488b8d  W..P.........H..
 402440 e8579eff 488d8500 589eff48 c1e10748  .W..H...X..H...H
 402450 01c84883 c0654889 85e0579e ff488b8d  ..H..eH...W..H..
 402460 e8579eff 488d8500 589eff48 c1e10748  .W..H...X..H...H
 402470 01c84889 85d8579e ff488b8d e8579eff  ..H...W..H...W..
 402480 488d8500 589eff48 c1e10748 01c88b40  H...X..H...H...@
 402490 7c8985d4 579eff48 8bbdd857 9eff488b  |...W..H...W..H.
 4024a0 b5e0579e ffe8e609 00008985 d0579eff  ..W..........W..
 4024b0 488bbdd8 579eff48 8bb5e057 9effe80d  H...W..H...W....
 4024c0 04000089 85cc579e ff8b85d0 579eff3b  ......W.....W..;
 4024d0 85d4579e ff0f8512 0000008b 85d0579e  ..W...........W.
 4024e0 ff3b85d4 579eff0f 84370000 00488bb5  .;..W....7...H..
 4024f0 e0579eff 488b95d8 579eff8b 8dd4579e  .W..H...W.....W.
 402500 ff448b85 d0579eff 448b8dcc 579eff48  .D...W..D...W..H
 402510 8d3d4e1c 0000b000 e853ebff ffc685f7  .=N......S......
 402520 579eff01 e9000000 00488b85 e8579eff  W........H...W..
 402530 4883c001 488985e8 579effe9 ecfeffff  H...H...W.......
 402540 80bdf757 9eff000f 841a0000 00488d3d  ...W.........H.=
 402550 031b0000 488d3534 1c0000b0 00e80eeb  ....H.54........
 402560 ffffe915 00000048 8d3dfe1a 0000488d  .......H.=....H.
 402570 351a1c00 00b000e8 f4eaffff 4881c440  5...........H..@
 402580 a861005d c3662e0f 1f840000 00000090  .a.].f..........
 402590 554889e5 4881ec00 01000048 897df848  UH..H......H.}.H
 4025a0 8975f048 c745e864 00000048 c745e014  .u.H.E.d...H.E..
 4025b0 00000048 8d7dd031 c089c6e8 c0eaffff  ...H.}.1........
 4025c0 488b45d0 89c7e865 eaffff48 c745c800  H.E....e...H.E..
 4025d0 00000048 8b45c848 3b45f00f 83e40200  ...H.E.H;E......
 4025e0 00c745c4 00000000 488dbd40 ffffff31  ..E.....H..@...1
 4025f0 f6ba8000 0000e895 eaffff48 837de002  ...........H.}..
 402600 0f851100 0000b802 00000048 898518ff  ...........H....
 402610 ffffe920 000000e8 d4eaffff 488b4de0  ... ........H.M.
 402620 4883e902 31d248f7 f14889d0 4883c002  H...1.H..H..H...
 402630 48898518 ffffff48 8b8518ff ffff8985  H......H........
 402640 3cffffff 48837de8 010f8511 000000b8  <...H.}.........
 402650 01000000 48898510 ffffffe9 20000000  ....H....... ...
 402660 e88beaff ff488b4d e84883e9 0131d248  .....H.M.H...1.H
 402670 f7f14889 d04883c0 01488985 10ffffff  ..H..H...H......
 402680 488b8510 ffffff89 8538ffff ffc78534  H........8.....4
 402690 ffffff00 0000008b 8534ffff ff3b853c  .........4...;.<
 4026a0 ffffff0f 8dcf0000 00e90000 0000e83d  ...............=
 4026b0 eaffffb9 5e000000 489948f7 f94883c2  ....^...H.H..H..
 4026c0 2188d088 8533ffff ff0fbec8 b00183f9  !....3..........
 4026d0 2b88850f ffffff0f 84350000 000fbe8d  +........5......
 4026e0 33ffffff b00183f9 2d88850f ffffff0f  3.......-.......
 4026f0 841d0000 000fbe85 33ffffff 48980fb6  ........3...H...
 402700 840540ff ffff83f8 000f95c0 88850fff  ..@.............
 402710 ffff8a85 0fffffff a8010f85 05000000  ................
 402720 e9050000 00e984ff ffff0fbe 8533ffff  .............3..
 402730 ff48988a 8c0540ff ffff80c1 01888c05  .H....@.........
 402740 40ffffff 8a9533ff ffff488b 45f8488b  @.....3...H.E.H.
 402750 4dc848c1 e1074801 c848638d 34ffffff  M.H...H..Hc.4...
 402760 88540865 8b8534ff ffff83c0 01898534  .T.e..4........4
 402770 ffffffe9 1fffffff 488b45f8 488b4dc8  ........H.E.H.M.
 402780 48c1e107 4801c848 638d3cff ffffc644  H...H..Hc.<....D
 402790 086500c7 852cffff ff010000 008b852c  .e...,.........,
 4027a0 ffffff3b 8538ffff ff0f8d75 000000e8  ...;.8.....u....
 4027b0 3ce9ffff 48638d3c ffffff48 9948f7f9  <...Hc.<...H.H..
 4027c0 89d08985 28ffffff 488b45f8 488b4dc8  ....(...H.E.H.M.
 4027d0 48c1e107 4801c848 638d28ff ffff8a54  H...H..Hc.(....T
 4027e0 0865488b 45f8488b 4dc848c1 e1074801  .eH.E.H.M.H...H.
 4027f0 c848638d 2cffffff 8814088b 8528ffff  .Hc.,........(..
 402800 ff8b4dc4 0faf8d3c ffffff01 c88945c4  ..M....<......E.
 402810 8b852cff ffff83c0 0189852c ffffffe9  ..,........,....
 402820 79ffffff 488b45f8 488b4dc8 48c1e107  y...H.E.H.M.H...
 402830 4801c848 638d38ff ffffc604 0800e8ad  H..Hc.8.........
 402840 e8ffff48 83e00189 8524ffff ff8b9524  ...H.....$.....$
 402850 ffffffb8 2b000000 b92d0000 0083fa00  ....+....-......
 402860 0f45c188 c1488b45 f8488b55 c848c1e2  .E...H.E.H.U.H..
 402870 074801d0 880883bd 24ffffff 000f8410  .H......$.......
 402880 00000031 c02b45c4 898508ff ffffe909  ...1.+E.........
 402890 0000008b 45c48985 08ffffff 8b8d08ff  ....E...........
 4028a0 ffff488b 45f8488b 55c848c1 e2074801  ..H.E.H.U.H...H.
 4028b0 d089487c 488b45c8 4883c001 488945c8  ..H|H.E.H...H.E.
 4028c0 e90efdff ff4881c4 00010000 5dc36690  .....H......].f.
 4028d0 554889e5 4883ec30 48897df0 488975e8  UH..H..0H.}.H.u.
 4028e0 488b7de8 e8470100 008945e4 837de401  H.}..G....E..}..
 4028f0 0f850c00 0000c745 fc000000 00e91601  .......E........
 402900 0000e900 00000048 8b45f00f be0083f8  .......H.E......
 402910 090f8c15 00000048 8b45f00f be08b001  .......H.E......
 402920 83f90d88 45d70f8e 10000000 488b45f0  ....E.......H.E.
 402930 0fbe0083 f8200f94 c08845d7 8a45d7a8  ..... ....E..E..
 402940 010f8505 000000e9 11000000 488b45f0  ............H.E.
 402950 4883c001 488945f0 e9aaffff ffc745dc  H...H.E.......E.
 402960 00000000 488b45f0 0fbe08b0 0183f92d  ....H.E........-
 402970 8845d60f 84100000 00488b45 f00fbe00  .E.......H.E....
 402980 83f82b0f 94c08845 d68a45d6 a8010f85  ..+....E..E.....
 402990 05000000 e9290000 00488b45 f00fbe00  .....)...H.E....
 4029a0 83f82d0f 94c02401 0fb6c003 45dc8945  ..-...$.....E..E
 4029b0 dc488b45 f04883c0 01488945 f0e9a2ff  .H.E.H...H.E....
 4029c0 ffff488b 7df0488b 75e8e8c1 01000089  ..H.}.H.u.......
 4029d0 45e0837d e0000f85 0c000000 c745fc00  E..}.........E..
 4029e0 000000e9 30000000 488b7df0 486345e0  ....0...H.}.HcE.
 4029f0 4801c748 83c7ff48 8b75e88b 55e48b4d  H..H...H.u..U..M
 402a00 e0e83a02 00008945 d88b75dc 488d7dd8  ..:....E..u.H.}.
 402a10 e8eb0200 008945fc 8b45fc48 83c4305d  ......E..E.H..0]
 402a20 c3662e0f 1f840000 0000000f 1f440000  .f...........D..
 402a30 554889e5 48897df0 c7458c00 00000083  UH..H.}..E......
 402a40 7d8c600f 8d170000 008b458c 89c183c1  }.`.......E.....
 402a50 01894d8c 4898c644 059000e9 dfffffff  ..M.H..D........
 402a60 c7458c00 00000048 8b45f00f be0083f8  .E.....H.E......
 402a70 000f84f1 00000048 8b45f00f be0083e8  .......H.E......
 402a80 20489880 7c059000 0f840c00 0000c745   H..|..........E
 402a90 fc010000 00e9ea00 0000488b 45f00fbe  ..........H.E...
 402aa0 0083f82b 0f841000 0000488b 45f00fbe  ...+......H.E...
 402ab0 0083f82d 0f850c00 0000c745 fc010000  ...-.......E....
 402ac0 00e9be00 0000488b 45f00fbe 0083f820  ......H.E...... 
 402ad0 0f842000 0000488b 45f00fbe 0083f809  .. ...H.E.......
 402ae0 0f8c1c00 0000488b 45f00fbe 0083f80d  ......H.E.......
 402af0 0f8f0c00 0000c745 fc010000 00e98200  .......E........
 402b00 0000488b 45f00fbe 0083f820 0f8c1000  ..H.E...... ....
 402b10 0000488b 45f00fbe 0083f87f 0f850c00  ..H.E...........
 402b20 0000c745 fc010000 00e95600 0000e900  ...E......V.....
 402b30 000000e9 00000000 e9000000 00488b45  .............H.E
 402b40 f00fbe00 83e82048 98c64405 9001488b  ...... H..D...H.
 402b50 45f04883 c0014889 45f08b45 8c83c001  E.H...H.E..E....
 402b60 89458ce9 fffeffff 837d8c02 0f8d0c00  .E.......}......
 402b70 0000c745 fc010000 00e90600 00008b45  ...E...........E
 402b80 8c8945fc 8b45fc5d c30f1f80 00000000  ..E..E.]........
 402b90 554889e5 48897df8 488975f0 c745ec00  UH..H.}.H.u..E..
 402ba0 00000048 8b45f80f be0083f8 000f847c  ...H.E.........|
 402bb0 000000c7 45e40000 0000c745 e8000000  ....E......E....
 402bc0 00488b45 f048634d e40fbe04 0883f800  .H.E.HcM........
 402bd0 0f843000 0000488b 45f04863 4de40fbe  ..0...H.E.HcM...
 402be0 0408488b 4df80fbe 0939c80f 85070000  ..H.M....9......
 402bf0 00c745e8 01000000 8b45e483 c0018945  ..E......E.....E
 402c00 e4e9bbff ffff837d e8000f85 05000000  .......}........
 402c10 e91a0000 008b45ec 83c00189 45ec488b  ......E.....E.H.
 402c20 45f84883 c0014889 45f8e974 ffffff8b  E.H...H.E..t....
 402c30 45ec5dc3 662e0f1f 84000000 00006690  E.].f.........f.
 402c40 554889e5 4883ec30 48897df0 488975e8  UH..H..0H.}.H.u.
 402c50 8955e489 4de0837d e0000f85 0c000000  .U..M..}........
 402c60 c745fc00 000000e9 80000000 c745dc00  .E...........E..
 402c70 00000048 8b45e848 634ddc0f be040883  ...H.E.HcM......
 402c80 f8000f84 2e000000 488b45e8 48634ddc  ........H.E.HcM.
 402c90 0fbe0408 488b4df0 0fbe0939 c80f8505  ....H.M....9....
 402ca0 000000e9 0e000000 8b45dc83 c0018945  .........E.....E
 402cb0 dce9bdff ffff8b45 dc8945d8 8b45e489  .......E..E..E..
 402cc0 45d4488b 7df04883 c7ff488b 75e88b55  E.H.}.H...H.u..U
 402cd0 e48b4de0 83e901e8 64ffffff 8b4dd489  ..M.....d....M..
 402ce0 c28b45d8 0fafca01 c88945fc 8b45fc48  ..E.......E..E.H
 402cf0 83c4305d c3662e0f 1f840000 00000090  ..0].f..........
 402d00 554889e5 48897df0 8975ec48 8b45f048  UH..H.}..u.H.E.H
 402d10 6300483d 00000080 0f850c00 0000c745  c.H=...........E
 402d20 fc000000 80e93400 00008b45 ecb90200  ......4....E....
 402d30 000099f7 f983fa01 0f851200 0000488b  ..............H.
 402d40 45f06900 ffffffff 8945fce9 0e000000  E.i......E......
 402d50 e9000000 00488b45 f08b0089 45fc8b45  .....H.E....E..E
 402d60 fc5dc366 2e0f1f84 00000000 000f1f00  .].f............
 402d70 4889f848 ffc848ff c0408a30 4080fe00  H..H..H..@.0@...
 402d80 75f44829 f8c3662e 0f1f8400 00000000  u.H)..f.........
 402d90 4889f88a 16881748 ffc748ff c680fa00  H......H..H.....
 402da0 75f1c366 2e0f1f84 00000000 000f1f00  u..f............
 402db0 31d231c9 8a178a0e 48ffc748 ffc680fa  1.1.....H..H....
 402dc0 000f94c0 80f90041 0f94c044 08c038ca  .......A...D..8.
 402dd0 410f95c0 4408c03c 0074d931 c029ca89  A...D..<.t.1.)..
 402de0 d0c3662e 0f1f8400 00000000 0f1f4000  ..f...........@.
 402df0 41544155 4989fc8a 1f48ffc7 80fb0075  ATAUI....H.....u
 402e00 f64989fd 4c29e7e8 f4e2ffff 4889c748  .I..L)......H..H
 402e10 31f6418a 34244088 3749ffc4 48ffc74d  1.A.4$@.7I..H..M
 402e20 39e575ee c6070041 5d415cc3 0f1f4000  9.u....A]A\...@.
 402e30 554889e5 b8000000 000f0548 83f8007d  UH.........H...}
 402e40 1448f7d8 50e8d6e1 ffff5f48 893848c7  .H..P....._H.8H.
 402e50 c0ffffff ff5dc366 0f1f8400 00000000  .....].f........
 402e60 554889e5 b8010000 000f0548 83f8007d  UH.........H...}
 402e70 1448f7d8 50e8a6e1 ffff5f48 893848c7  .H..P....._H.8H.
 402e80 c0ffffff ff5dc366 0f1f8400 00000000  .....].f........
 402e90 55534889 e54883ec 18488974 24084889  USH..H...H.t$.H.
 402ea0 3c244889 f7e83a00 00004883 f801762c  <$H...:...H...v,
 402eb0 4889c348 89e7e8b7 00000088 44241048  H..H........D$.H
 402ec0 8b3c2448 8b742408 4889dae8 ec000000  .<$H.t$.H.......
 402ed0 807c2410 00740748 f7d8eb02 31c04889  .|$..t.H....1.H.
 402ee0 ec5b5dc3 55534889 e54889fa 4831db48  .[].USH..H..H1.H
 402ef0 81ec0004 00004831 c0b98000 0000488d  ......H1......H.
 402f00 3c24f348 ab480fb6 3a4080ff 00743ce8  <$.H.H..:@...t<.
 402f10 40000000 3c000f94 c0488b34 fc4883fe  @...<....H.4.H..
 402f20 000f94c1 20c84080 ff2d0f95 c120c840  .... .@..-... .@
 402f30 80ff2b0f 95c120c8 3c00740c 48ff04fc  ..+... .<.t.H...
 402f40 48ffc248 ffc3ebbd 4831db48 89d84889  H..H....H1.H..H.
 402f50 ec5b5dc3 4080ff09 0f9dc040 80ff0d40  .[].@......@...@
 402f60 0f9ec640 20f04080 ff20400f 94c64008  ...@ .@.. @...@.
 402f70 f0c35348 89fb488b 1748ffca 48ffc240  ..SH..H..H..H..@
 402f80 8a3ae8cd ffffff3c 0075f148 31c048ff  .:.....<.u.H1.H.
 402f90 ca48ffc2 408a3a40 80ff2d40 0f94c648  .H..@.:@..-@...H
 402fa0 0fb6f648 01f04080 ff2b0f94 c14008f1  ...H..@..+...@..
 402fb0 80f90174 dc240148 89135bc3 55534154  ...t.$.H..[.USAT
 402fc0 41554156 4889e548 89fb4989 f44989d5  AUAVH..H..I..I..
 402fd0 4d31f640 8a3b4080 ff007419 4c89e6e8  M1.@.;@...t.L...
 402fe0 20000000 4c39e874 0c4d0faf f54901c6   ...L9.t.M...I..
 402ff0 48ffc3eb de4c89f0 4889ec41 5e415d41  H....L..H..A^A]A
 403000 5c5b5dc3 4889f08a 1080fa00 740b48ff  \[].H.......t.H.
 403010 c04038fa 75f148ff c84829f0 c3        .@8.u.H..H)..   
Contents of section .rodata:
 404000 01000200 20202020 20202020 20202020  ....            
 404010 20202020 2000310a 32006162 63006c6f       .1.2.abc.lo
 404020 72656d20 69707375 6d006c6f 72656d00  rem ipsum.lorem.
 404030 69707375 6d000061 62630061 00626300  ipsum..abc.a.bc.
 404040 00000000 00000061 00006200 00630000  .......a..b..c..
 404050 00000061 62630025 73204641 494c0a00  ...abc.%s FAIL..
 404060 74657374 5f737472 6c656e00 25732053  test_strlen.%s S
 404070 55434345 53530a00 74657374 5f737472  UCCESS..test_str
 404080 63707900 74657374 5f737472 636d7000  cpy.test_strcmp.
 404090 74657374 5f737472 64757000 70697065  test_strdup.pipe
 4040a0 28292066 61696c0a 00256c75 3a200025  () fail..%lu: .%
 4040b0 73282564 2920213d 20257328 25642920  s(%d) != %s(%d) 
 4040c0 7c207265 7475726e 2076616c 75652025  | return value %
 4040d0 7a642025 7a640a00 74657374 5f726561  zd %zd..test_rea
 4040e0 645f6e6f 726d616c 0025643a 2000613a  d_normal.%d: .a:
 4040f0 20007465 73745f72 6561645f 6572726f   .test_read_erro
 404100 7200256c 643a2000 74657374 5f777269  r.%ld: .test_wri
 404110 74655f6e 6f726d61 6c007465 73745f77  te_normal.test_w
 404120 72697465 5f657272 6f720000 00000000  rite_error......
 404130 ffffffff 00fcffff ffffffff ffffff3f  ...............?
 404140 ffffff00 00000000 00000000 00000000  ................
 404150 ffffffff 00fcffff ffffffff ffffff3f  ...............?
 404160 ffffff00 62617365 3d25730a 7374723d  ....base=%s.str=
 404170 25730a6e 756d3d09 25640a72 6574303d  %s.num=.%d.ret0=
 404180 0925640a 72657431 3d092564 0a0a0074  .%d.ret1=.%d...t
 404190 6573745f 61746f69 5f626173 655f7261  est_atoi_base_ra
 4041a0 6e646f6d 00626173 653d0925 730a7374  ndom.base=.%s.st
 4041b0 723d0925 730a6e75 6d3d0925 640a7265  r=.%s.num=.%d.re
 4041c0 74303d09 25640a72 6574313d 0925640a  t0=.%d.ret1=.%d.
 4041d0 0a007465 73745f61 746f695f 62617365  ..test_atoi_base
 4041e0 5f776869 74657370 61636500 74657374  _whitespace.test
 4041f0 5f61746f 695f6261 73655f73 69676e00  _atoi_base_sign.
 404200 00000000 00000000 00000000 00000000  ................
 404210 00000000 00000000 00000000 00000000  ................
 404220 00000000 00000000 00000000 00000000  ................
 404230 00000000 00000000 00000000 00000000  ................
 404240 00000000 00000000 00000000 00000000  ................
 404250 00000000 00000000 00000000 00000000  ................
 404260 00000000 00000000 00000000 00000000  ................
 404270 00000000 00000000 00000000 00000000  ................
 404280 00000000 00000000 00000000 00000000  ................
 404290 00000000 00000000 00000000 00000000  ................
 4042a0 00000000 00000000 00000000 00000000  ................
 4042b0 00000000 00000000 00000000 00000000  ................
 4042c0 00000000 00000000 00000000 00000000  ................
 4042d0 00000000 00000000 00000000 00000000  ................
 4042e0 00000000 00303100 00000000 00000000  .....01.........
 4042f0 00000000 00000000 00000000 00000000  ................
 404300 20000000 00000000 00000000 00000000   ...............
 404310 00000000 00000000 00000000 00000000  ................
 404320 00000000 00000000 00000000 00000000  ................
 404330 00000000 00000000 00000000 00000000  ................
 404340 00000000 00000000 00000000 00000000  ................
 404350 00000000 00000000 00000000 00000000  ................
 404360 00000000 00303100 00000000 00000000  .....01.........
 404370 00000000 00000000 00000000 00000000  ................
 404380 20202020 20202020 20202020 20202020                  
 404390 20202020 20202020 00000000 00000000          ........
 4043a0 00000000 00000000 00000000 00000000  ................
 4043b0 00000000 00000000 00000000 00000000  ................
 4043c0 00000000 00000000 00000000 00000000  ................
 4043d0 00000000 00000000 00000000 00000000  ................
 4043e0 00000000 00303100 00000000 00000000  .....01.........
 4043f0 00000000 00000000 00000000 00000000  ................
 404400 00000000 00000000 00000000 00000000  ................
 404410 00000000 00000000 00000000 00000000  ................
 404420 00000000 00000000 00000000 00000000  ................
 404430 00000000 00000000 00000000 00000000  ................
 404440 00000000 00000000 00000000 00000000  ................
 404450 00000000 00000000 00000000 00000000  ................
 404460 00000000 00200000 00000000 00000000  ..... ..........
 404470 00000000 00000000 00000000 00000000  ................
 404480 00000000 00000000 00000000 00000000  ................
 404490 00000000 00000000 00000000 00000000  ................
 4044a0 00000000 00000000 00000000 00000000  ................
 4044b0 00000000 00000000 00000000 00000000  ................
 4044c0 00000000 00000000 00000000 00000000  ................
 4044d0 00000000 00000000 00000000 00000000  ................
 4044e0 00000000 00202020 20202020 20202020  .....           
 4044f0 20202020 20202020 20000000 00000000           .......
 404500 00310000 00000000 00000000 00000000  .1..............
 404510 00000000 00000000 00000000 00000000  ................
 404520 00000000 00000000 00000000 00000000  ................
 404530 00000000 00000000 00000000 00000000  ................
 404540 00000000 00000000 00000000 00000000  ................
 404550 00000000 00000000 00000000 00000000  ................
 404560 00000000 00303100 00000000 00000000  .....01.........
 404570 00000000 00000000 00000000 00000000  ................
 404580 31000000 00000000 00000000 00000000  1...............
 404590 00000000 00000000 00000000 00000000  ................
 4045a0 00000000 00000000 00000000 00000000  ................
 4045b0 00000000 00000000 00000000 00000000  ................
 4045c0 00000000 00000000 00000000 00000000  ................
 4045d0 00000000 00000000 00000000 00000000  ................
 4045e0 00000000 00003031 00000000 00000000  ......01........
 4045f0 00000000 00000000 00000000 00000000  ................
 404600 31000000 00000000 00000000 00000000  1...............
 404610 00000000 00000000 00000000 00000000  ................
 404620 00000000 00000000 00000000 00000000  ................
 404630 00000000 00000000 00000000 00000000  ................
 404640 00000000 00000000 00000000 00000000  ................
 404650 00000000 00000000 00000000 00000000  ................
 404660 00000000 00310000 00000000 00000000  .....1..........
 404670 00000000 00000000 00000000 00000000  ................
 404680 31000000 00000000 00000000 00000000  1...............
 404690 00000000 00000000 00000000 00000000  ................
 4046a0 00000000 00000000 00000000 00000000  ................
 4046b0 00000000 00000000 00000000 00000000  ................
 4046c0 00000000 00000000 00000000 00000000  ................
 4046d0 00000000 00000000 00000000 00000000  ................
 4046e0 00000000 00303100 00000000 00000000  .....01.........
 4046f0 00000000 00000000 00000000 01000000  ................
 404700 31000000 00000000 00000000 00000000  1...............
 404710 00000000 00000000 00000000 00000000  ................
 404720 00000000 00000000 00000000 00000000  ................
 404730 00000000 00000000 00000000 00000000  ................
 404740 00000000 00000000 00000000 00000000  ................
 404750 00000000 00000000 00000000 00000000  ................
 404760 00000000 00313000 00000000 00000000  .....10.........
 404770 00000000 00000000 00000000 00000000  ................
 404780 31000000 00000000 00000000 00000000  1...............
 404790 00000000 00000000 00000000 00000000  ................
 4047a0 00000000 00000000 00000000 00000000  ................
 4047b0 00000000 00000000 00000000 00000000  ................
 4047c0 00000000 00000000 00000000 00000000  ................
 4047d0 00000000 00000000 00000000 00000000  ................
 4047e0 00000000 00313000 00000000 00000000  .....10.........
 4047f0 00000000 00000000 00000000 00000000  ................
 404800 61000000 00000000 00000000 00000000  a...............
 404810 00000000 00000000 00000000 00000000  ................
 404820 00000000 00000000 00000000 00000000  ................
 404830 00000000 00000000 00000000 00000000  ................
 404840 00000000 00000000 00000000 00000000  ................
 404850 00000000 00000000 00000000 00000000  ................
 404860 00000000 00313000 00000000 00000000  .....10.........
 404870 00000000 00000000 00000000 00000000  ................
 404880 31000000 00000000 00000000 00000000  1...............
 404890 00000000 00000000 00000000 00000000  ................
 4048a0 00000000 00000000 00000000 00000000  ................
 4048b0 00000000 00000000 00000000 00000000  ................
 4048c0 00000000 00000000 00000000 00000000  ................
 4048d0 00000000 00000000 00000000 00000000  ................
 4048e0 00000000 00613000 00000000 00000000  .....a0.........
 4048f0 00000000 00000000 00000000 00000000  ................
 404900 31000000 00000000 00000000 00000000  1...............
 404910 00000000 00000000 00000000 00000000  ................
 404920 00000000 00000000 00000000 00000000  ................
 404930 00000000 00000000 00000000 00000000  ................
 404940 00000000 00000000 00000000 00000000  ................
 404950 00000000 00000000 00000000 00000000  ................
 404960 00000000 00616100 00000000 00000000  .....aa.........
 404970 00000000 00000000 00000000 00000000  ................
 404980 61610000 00000000 00000000 00000000  aa..............
 404990 00000000 00000000 00000000 00000000  ................
 4049a0 00000000 00000000 00000000 00000000  ................
 4049b0 00000000 00000000 00000000 00000000  ................
 4049c0 00000000 00000000 00000000 00000000  ................
 4049d0 00000000 00000000 00000000 00000000  ................
 4049e0 00000000 00616200 00000000 00000000  .....ab.........
 4049f0 00000000 00000000 00000000 00000000  ................
 404a00 62620000 00000000 00000000 00000000  bb..............
 404a10 00000000 00000000 00000000 00000000  ................
 404a20 00000000 00000000 00000000 00000000  ................
 404a30 00000000 00000000 00000000 00000000  ................
 404a40 00000000 00000000 00000000 00000000  ................
 404a50 00000000 00000000 00000000 00000000  ................
 404a60 00000000 00616200 00000000 00000000  .....ab.........
 404a70 00000000 00000000 00000000 03000000  ................
 404a80 62006200 00000000 00000000 00000000  b.b.............
 404a90 00000000 00000000 00000000 00000000  ................
 404aa0 00000000 00000000 00000000 00000000  ................
 404ab0 00000000 00000000 00000000 00000000  ................
 404ac0 00000000 00000000 00000000 00000000  ................
 404ad0 00000000 00000000 00000000 00000000  ................
 404ae0 00000000 00616200 00000000 00000000  .....ab.........
 404af0 00000000 00000000 00000000 01000000  ................
 404b00 62620000 00000000 00000000 00000000  bb..............
 404b10 00000000 00000000 00000000 00000000  ................
 404b20 00000000 00000000 00000000 00000000  ................
 404b30 00000000 00000000 00000000 00000000  ................
 404b40 00000000 00000000 00000000 00000000  ................
 404b50 00000000 00000000 00000000 00000000  ................
 404b60 00000000 00616209 00000000 00000000  .....ab.........
 404b70 00000000 00000000 00000000 00000000  ................
 404b80 62620000 00000000 00000000 00000000  bb..............
 404b90 00000000 00000000 00000000 00000000  ................
 404ba0 00000000 00000000 00000000 00000000  ................
 404bb0 00000000 00000000 00000000 00000000  ................
 404bc0 00000000 00000000 00000000 00000000  ................
 404bd0 00000000 00000000 00000000 00000000  ................
 404be0 00000000 0061620a 00000000 00000000  .....ab.........
 404bf0 00000000 00000000 00000000 00000000  ................
 404c00 62620000 00000000 00000000 00000000  bb..............
 404c10 00000000 00000000 00000000 00000000  ................
 404c20 00000000 00000000 00000000 00000000  ................
 404c30 00000000 00000000 00000000 00000000  ................
 404c40 00000000 00000000 00000000 00000000  ................
 404c50 00000000 00000000 00000000 00000000  ................
 404c60 00000000 0061620b 00000000 00000000  .....ab.........
 404c70 00000000 00000000 00000000 00000000  ................
 404c80 62620000 00000000 00000000 00000000  bb..............
 404c90 00000000 00000000 00000000 00000000  ................
 404ca0 00000000 00000000 00000000 00000000  ................
 404cb0 00000000 00000000 00000000 00000000  ................
 404cc0 00000000 00000000 00000000 00000000  ................
 404cd0 00000000 00000000 00000000 00000000  ................
 404ce0 00000000 0061620c 00000000 00000000  .....ab.........
 404cf0 00000000 00000000 00000000 00000000  ................
 404d00 62620000 00000000 00000000 00000000  bb..............
 404d10 00000000 00000000 00000000 00000000  ................
 404d20 00000000 00000000 00000000 00000000  ................
 404d30 00000000 00000000 00000000 00000000  ................
 404d40 00000000 00000000 00000000 00000000  ................
 404d50 00000000 00000000 00000000 00000000  ................
 404d60 00000000 0061620d 00000000 00000000  .....ab.........
 404d70 00000000 00000000 00000000 00000000  ................
 404d80 62620000 00000000 00000000 00000000  bb..............
 404d90 00000000 00000000 00000000 00000000  ................
 404da0 00000000 00000000 00000000 00000000  ................
 404db0 00000000 00000000 00000000 00000000  ................
 404dc0 00000000 00000000 00000000 00000000  ................
 404dd0 00000000 00000000 00000000 00000000  ................
 404de0 00000000 00612062 00000000 00000000  .....a b........
 404df0 00000000 00000000 00000000 00000000  ................
 404e00 62206200 00000000 00000000 00000000  b b.............
 404e10 00000000 00000000 00000000 00000000  ................
 404e20 00000000 00000000 00000000 00000000  ................
 404e30 00000000 00000000 00000000 00000000  ................
 404e40 00000000 00000000 00000000 00000000  ................
 404e50 00000000 00000000 00000000 00000000  ................
 404e60 00000000 00616200 00000000 00000000  .....ab.........
 404e70 00000000 00000000 00000000 01000000  ................
 404e80 20626200 00000000 00000000 00000000   bb.............
 404e90 00000000 00000000 00000000 00000000  ................
 404ea0 00000000 00000000 00000000 00000000  ................
 404eb0 00000000 00000000 00000000 00000000  ................
 404ec0 00000000 00000000 00000000 00000000  ................
 404ed0 00000000 00000000 00000000 00000000  ................
 404ee0 00000000 00616200 00000000 00000000  .....ab.........
 404ef0 00000000 00000000 00000000 03000000  ................
 404f00 62622000 00000000 00000000 00000000  bb .............
 404f10 00000000 00000000 00000000 00000000  ................
 404f20 00000000 00000000 00000000 00000000  ................
 404f30 00000000 00000000 00000000 00000000  ................
 404f40 00000000 00000000 00000000 00000000  ................
 404f50 00000000 00000000 00000000 00000000  ................
 404f60 00000000 00616200 00000000 00000000  .....ab.........
 404f70 00000000 00000000 00000000 03000000  ................
 404f80 2b000000 00000000 00000000 00000000  +...............
 404f90 00000000 00000000 00000000 00000000  ................
 404fa0 00000000 00000000 00000000 00000000  ................
 404fb0 00000000 00000000 00000000 00000000  ................
 404fc0 00000000 00000000 00000000 00000000  ................
 404fd0 00000000 00000000 00000000 00000000  ................
 404fe0 00000000 00000000 00000000 00000000  ................
 404ff0 00000000 00000000 00000000 00000000  ................
 405000 2b000000 00000000 00000000 00000000  +...............
 405010 00000000 00000000 00000000 00000000  ................
 405020 00000000 00000000 00000000 00000000  ................
 405030 00000000 00000000 00000000 00000000  ................
 405040 00000000 00000000 00000000 00000000  ................
 405050 00000000 00000000 00000000 00000000  ................
 405060 00000000 00303100 00000000 00000000  .....01.........
 405070 00000000 00000000 00000000 00000000  ................
 405080 302b0000 00000000 00000000 00000000  0+..............
 405090 00000000 00000000 00000000 00000000  ................
 4050a0 00000000 00000000 00000000 00000000  ................
 4050b0 00000000 00000000 00000000 00000000  ................
 4050c0 00000000 00000000 00000000 00000000  ................
 4050d0 00000000 00000000 00000000 00000000  ................
 4050e0 00000000 00303100 00000000 00000000  .....01.........
 4050f0 00000000 00000000 00000000 00000000  ................
 405100 2b300000 00000000 00000000 00000000  +0..............
 405110 00000000 00000000 00000000 00000000  ................
 405120 00000000 00000000 00000000 00000000  ................
 405130 00000000 00000000 00000000 00000000  ................
 405140 00000000 00000000 00000000 00000000  ................
 405150 00000000 00000000 00000000 00000000  ................
 405160 00000000 00303100 00000000 00000000  .....01.........
 405170 00000000 00000000 00000000 00000000  ................
 405180 312b0000 00000000 00000000 00000000  1+..............
 405190 00000000 00000000 00000000 00000000  ................
 4051a0 00000000 00000000 00000000 00000000  ................
 4051b0 00000000 00000000 00000000 00000000  ................
 4051c0 00000000 00000000 00000000 00000000  ................
 4051d0 00000000 00000000 00000000 00000000  ................
 4051e0 00000000 00303100 00000000 00000000  .....01.........
 4051f0 00000000 00000000 00000000 01000000  ................
 405200 2b310000 00000000 00000000 00000000  +1..............
 405210 00000000 00000000 00000000 00000000  ................
 405220 00000000 00000000 00000000 00000000  ................
 405230 00000000 00000000 00000000 00000000  ................
 405240 00000000 00000000 00000000 00000000  ................
 405250 00000000 00000000 00000000 00000000  ................
 405260 00000000 00303100 00000000 00000000  .....01.........
 405270 00000000 00000000 00000000 01000000  ................
 405280 312d0000 00000000 00000000 00000000  1-..............
 405290 00000000 00000000 00000000 00000000  ................
 4052a0 00000000 00000000 00000000 00000000  ................
 4052b0 00000000 00000000 00000000 00000000  ................
 4052c0 00000000 00000000 00000000 00000000  ................
 4052d0 00000000 00000000 00000000 00000000  ................
 4052e0 00000000 00303100 00000000 00000000  .....01.........
 4052f0 00000000 00000000 00000000 01000000  ................
 405300 202b3100 00000000 00000000 00000000   +1.............
 405310 00000000 00000000 00000000 00000000  ................
 405320 00000000 00000000 00000000 00000000  ................
 405330 00000000 00000000 00000000 00000000  ................
 405340 00000000 00000000 00000000 00000000  ................
 405350 00000000 00000000 00000000 00000000  ................
 405360 00000000 00303100 00000000 00000000  .....01.........
 405370 00000000 00000000 00000000 01000000  ................
 405380 202b2031 00000000 00000000 00000000   + 1............
 405390 00000000 00000000 00000000 00000000  ................
 4053a0 00000000 00000000 00000000 00000000  ................
 4053b0 00000000 00000000 00000000 00000000  ................
 4053c0 00000000 00000000 00000000 00000000  ................
 4053d0 00000000 00000000 00000000 00000000  ................
 4053e0 00000000 00303100 00000000 00000000  .....01.........
 4053f0 00000000 00000000 00000000 00000000  ................
 405400 202b2d31 00000000 00000000 00000000   +-1............
 405410 00000000 00000000 00000000 00000000  ................
 405420 00000000 00000000 00000000 00000000  ................
 405430 00000000 00000000 00000000 00000000  ................
 405440 00000000 00000000 00000000 00000000  ................
 405450 00000000 00000000 00000000 00000000  ................
 405460 00000000 00303100 00000000 00000000  .....01.........
 405470 00000000 00000000 00000000 ffffffff  ................
 405480 202d2d31 00000000 00000000 00000000   --1............
 405490 00000000 00000000 00000000 00000000  ................
 4054a0 00000000 00000000 00000000 00000000  ................
 4054b0 00000000 00000000 00000000 00000000  ................
 4054c0 00000000 00000000 00000000 00000000  ................
 4054d0 00000000 00000000 00000000 00000000  ................
 4054e0 00000000 00303100 00000000 00000000  .....01.........
 4054f0 00000000 00000000 00000000 01000000  ................
 405500 202d2d2d 31000000 00000000 00000000   ---1...........
 405510 00000000 00000000 00000000 00000000  ................
 405520 00000000 00000000 00000000 00000000  ................
 405530 00000000 00000000 00000000 00000000  ................
 405540 00000000 00000000 00000000 00000000  ................
 405550 00000000 00000000 00000000 00000000  ................
 405560 00000000 00303100 00000000 00000000  .....01.........
 405570 00000000 00000000 00000000 ffffffff  ................
 405580 202d2d2d 2d310000 00000000 00000000   ----1..........
 405590 00000000 00000000 00000000 00000000  ................
 4055a0 00000000 00000000 00000000 00000000  ................
 4055b0 00000000 00000000 00000000 00000000  ................
 4055c0 00000000 00000000 00000000 00000000  ................
 4055d0 00000000 00000000 00000000 00000000  ................
 4055e0 00000000 00303100 00000000 00000000  .....01.........
 4055f0 00000000 00000000 00000000 01000000  ................
 405600 202b2d2d 2d310000 00000000 00000000   +---1..........
 405610 00000000 00000000 00000000 00000000  ................
 405620 00000000 00000000 00000000 00000000  ................
 405630 00000000 00000000 00000000 00000000  ................
 405640 00000000 00000000 00000000 00000000  ................
 405650 00000000 00000000 00000000 00000000  ................
 405660 00000000 00303100 00000000 00000000  .....01.........
 405670 00000000 00000000 00000000 ffffffff  ................
 405680 202b2b2d 2d310000 00000000 00000000   ++--1..........
 405690 00000000 00000000 00000000 00000000  ................
 4056a0 00000000 00000000 00000000 00000000  ................
 4056b0 00000000 00000000 00000000 00000000  ................
 4056c0 00000000 00000000 00000000 00000000  ................
 4056d0 00000000 00000000 00000000 00000000  ................
 4056e0 00000000 00303100 00000000 00000000  .....01.........
 4056f0 00000000 00000000 00000000 01000000  ................
 405700 202b2b2b 2d310000 00000000 00000000   +++-1..........
 405710 00000000 00000000 00000000 00000000  ................
 405720 00000000 00000000 00000000 00000000  ................
 405730 00000000 00000000 00000000 00000000  ................
 405740 00000000 00000000 00000000 00000000  ................
 405750 00000000 00000000 00000000 00000000  ................
 405760 00000000 00303100 00000000 00000000  .....01.........
 405770 00000000 00000000 00000000 ffffffff  ................
 405780 202b2b2b 2b310000 00000000 00000000   ++++1..........
 405790 00000000 00000000 00000000 00000000  ................
 4057a0 00000000 00000000 00000000 00000000  ................
 4057b0 00000000 00000000 00000000 00000000  ................
 4057c0 00000000 00000000 00000000 00000000  ................
 4057d0 00000000 00000000 00000000 00000000  ................
 4057e0 00000000 00303100 00000000 00000000  .....01.........
 4057f0 00000000 00000000 00000000 01000000  ................
 405800 202b2b2b 2b610000 00000000 00000000   ++++a..........
 405810 00000000 00000000 00000000 00000000  ................
 405820 00000000 00000000 00000000 00000000  ................
 405830 00000000 00000000 00000000 00000000  ................
 405840 00000000 00000000 00000000 00000000  ................
 405850 00000000 00000000 00000000 00000000  ................
 405860 00000000 00303100 00000000 00000000  .....01.........
 405870 00000000 00000000 00000000 00000000  ................
 405880 202b2b2b 2b312b32 00000000 00000000   ++++1+2........
 405890 00000000 00000000 00000000 00000000  ................
 4058a0 00000000 00000000 00000000 00000000  ................
 4058b0 00000000 00000000 00000000 00000000  ................
 4058c0 00000000 00000000 00000000 00000000  ................
 4058d0 00000000 00000000 00000000 00000000  ................
 4058e0 00000000 00303100 00000000 00000000  .....01.........
 4058f0 00000000 00000000 00000000 01000000  ................
 405900 202b2b00 2b2b312b 32000000 00000000   ++.++1+2.......
 405910 00000000 00000000 00000000 00000000  ................
 405920 00000000 00000000 00000000 00000000  ................
 405930 00000000 00000000 00000000 00000000  ................
 405940 00000000 00000000 00000000 00000000  ................
 405950 00000000 00000000 00000000 00000000  ................
 405960 00000000 00303100 00000000 00000000  .....01.........
 405970 00000000 00000000 00000000 00000000  ................
 405980 202d3100 00000000 00000000 00000000   -1.............
 405990 00000000 00000000 00000000 00000000  ................
 4059a0 00000000 00000000 00000000 00000000  ................
 4059b0 00000000 00000000 00000000 00000000  ................
 4059c0 00000000 00000000 00000000 00000000  ................
 4059d0 00000000 00000000 00000000 00000000  ................
 4059e0 00000000 00302b31 00000000 00000000  .....0+1........
 4059f0 00000000 00000000 00000000 00000000  ................
 405a00 202b3100 00000000 00000000 00000000   +1.............
 405a10 00000000 00000000 00000000 00000000  ................
 405a20 00000000 00000000 00000000 00000000  ................
 405a30 00000000 00000000 00000000 00000000  ................
 405a40 00000000 00000000 00000000 00000000  ................
 405a50 00000000 00000000 00000000 00000000  ................
 405a60 00000000 00302d31 00000000 00000000  .....0-1........
 405a70 00000000 00000000 00000000 00000000  ................
 405a80 2b2d0000 00000000 00000000 00000000  +-..............
 405a90 00000000 00000000 00000000 00000000  ................
 405aa0 00000000 00000000 00000000 00000000  ................
 405ab0 00000000 00000000 00000000 00000000  ................
 405ac0 00000000 00000000 00000000 00000000  ................
 405ad0 00000000 00000000 00000000 00000000  ................
 405ae0 00000000 002d2b00 00000000 00000000  .....-+.........
 405af0 00000000 00000000 00000000 00000000  ................
 405b00 2b000000 00000000 00000000 00000000  +...............
 405b10 00000000 00000000 00000000 00000000  ................
 405b20 00000000 00000000 00000000 00000000  ................
 405b30 00000000 00000000 00000000 00000000  ................
 405b40 00000000 00000000 00000000 00000000  ................
 405b50 00000000 00000000 00000000 00000000  ................
 405b60 00000000 002b0000 00000000 00000000  .....+..........
 405b70 00000000 00000000 00000000 00000000  ................
 405b80 2d000000 00000000 00000000 00000000  -...............
 405b90 00000000 00000000 00000000 00000000  ................
 405ba0 00000000 00000000 00000000 00000000  ................
 405bb0 00000000 00000000 00000000 00000000  ................
 405bc0 00000000 00000000 00000000 00000000  ................
 405bd0 00000000 00000000 00000000 00000000  ................
 405be0 00000000 002d0000 00000000 00000000  .....-..........
 405bf0 00000000 00000000 00000000 00000000  ................
Contents of section .eh_frame:
 405c00 14000000 00000000 017a5200 01781001  .........zR..x..
 405c10 1b0c0708 90010000 14000000 1c000000  ................
 405c20 10b5ffff 26000000 00440710 00000000  ....&....D......
 405c30 24000000 34000000 c8b3ffff 30010000  $...4.......0...
 405c40 000e1046 0e184a0f 0b770880 003f1a3b  ...F..J..w...?.;
 405c50 2a332422 00000000 1c000000 5c000000  *3$"........\...
 405c60 00b5ffff ba000000 00410e10 8602430d  .........A....C.
 405c70 0602b50c 07080000 1c000000 7c000000  ............|...
 405c80 a0b5ffff c5000000 00410e10 8602430d  .........A....C.
 405c90 0602c00c 07080000 1c000000 9c000000  ................
 405ca0 50b6ffff 1e010000 00410e10 8602430d  P........A....C.
 405cb0 06031901 0c070800 1c000000 bc000000  ................
 405cc0 50b7ffff 0e010000 00410e10 8602430d  P........A....C.
 405cd0 06030901 0c070800 1c000000 dc000000  ................
 405ce0 40b8ffff 13010000 00410e10 8602430d  @........A....C.
 405cf0 06030e01 0c070800 1c000000 fc000000  ................
 405d00 40b9ffff c4020000 00410e10 8602430d  @........A....C.
 405d10 0603bf02 0c070800 1c000000 1c010000  ................
 405d20 f0bbffff 4a020000 00410e10 8602430d  ....J....A....C.
 405d30 06034502 0c070800 1c000000 3c010000  ..E.........<...
 405d40 20beffff c4020000 00410e10 8602430d   ........A....C.
 405d50 0603bf02 0c070800 1c000000 5c010000  ............\...
 405d60 d0c0ffff 4a020000 00410e10 8602430d  ....J....A....C.
 405d70 06034502 0c070800 1c000000 7c010000  ..E.........|...
 405d80 00c3ffff 15000000 00410e10 8602430d  .........A....C.
 405d90 06500c07 08000000 1c000000 9c010000  .P..............
 405da0 00c3ffff 96010000 00410e10 8602430d  .........A....C.
 405db0 06039101 0c070800 1c000000 bc010000  ................
 405dc0 80c4ffff 96010000 00410e10 8602430d  .........A....C.
 405dd0 06039101 0c070800 1c000000 dc010000  ................
 405de0 00c6ffff a5010000 00410e10 8602430d  .........A....C.
 405df0 0603a001 0c070800 1c000000 fc010000  ................
 405e00 90c7ffff 3e030000 00410e10 8602430d  ....>....A....C.
 405e10 06033903 0c070800 1c000000 1c020000  ..9.............
 405e20 b0caffff 51010000 00410e10 8602430d  ....Q....A....C.
 405e30 06034c01 0c070800 1c000000 3c020000  ..L.........<...
 405e40 f0cbffff 59010000 00410e10 8602430d  ....Y....A....C.
 405e50 06035401 0c070800 1c000000 5c020000  ..T.........\...
 405e60 30cdffff a4000000 00410e10 8602430d  0........A....C.
 405e70 06029f0c 07080000 1c000000 7c020000  ............|...
 405e80 c0cdffff b5000000 00410e10 8602430d  .........A....C.
 405e90 0602b00c 07080000 1c000000 9c020000  ................
 405ea0 60ceffff 63000000 00410e10 8602430d  `...c....A....C.
 405eb0 06025e0c 07080000                    ..^.....        
Contents of section .dynamic:
 407e78 01000000 00000000 95000000 00000000  ................
 407e88 04000000 00000000 40034000 00000000  ........@.@.....
 407e98 f5feff6f 00000000 e0034000 00000000  ...o......@.....
 407ea8 05000000 00000000 e0054000 00000000  ..........@.....
 407eb8 06000000 00000000 00044000 00000000  ..........@.....
 407ec8 0a000000 00000000 c1000000 00000000  ................
 407ed8 0b000000 00000000 18000000 00000000  ................
 407ee8 15000000 00000000 00000000 00000000  ................
 407ef8 03000000 00000000 00804000 00000000  ..........@.....
 407f08 02000000 00000000 b0010000 00000000  ................
 407f18 14000000 00000000 07000000 00000000  ................
 407f28 17000000 00000000 28074000 00000000  ........(.@.....
 407f38 07000000 00000000 10074000 00000000  ..........@.....
 407f48 08000000 00000000 18000000 00000000  ................
 407f58 09000000 00000000 18000000 00000000  ................
 407f68 feffff6f 00000000 d0064000 00000000  ...o......@.....
 407f78 ffffff6f 00000000 01000000 00000000  ...o............
 407f88 f0ffff6f 00000000 a2064000 00000000  ...o......@.....
 407f98 00000000 00000000 00000000 00000000  ................
 407fa8 00000000 00000000 00000000 00000000  ................
 407fb8 00000000 00000000 00000000 00000000  ................
 407fc8 00000000 00000000 00000000 00000000  ................
 407fd8 00000000 00000000 00000000 00000000  ................
 407fe8 00000000 00000000 00000000 00000000  ................
Contents of section .got:
 407ff8 00000000 00000000                    ........        
Contents of section .got.plt:
 408000 787e4000 00000000 00000000 00000000  x~@.............
 408010 00000000 00000000 16104000 00000000  ..........@.....
 408020 26104000 00000000 36104000 00000000  &.@.....6.@.....
 408030 46104000 00000000 56104000 00000000  F.@.....V.@.....
 408040 66104000 00000000 76104000 00000000  f.@.....v.@.....
 408050 86104000 00000000 96104000 00000000  ..@.......@.....
 408060 a6104000 00000000 b6104000 00000000  ..@.......@.....
 408070 c6104000 00000000 d6104000 00000000  ..@.......@.....
 408080 e6104000 00000000 f6104000 00000000  ..@.......@.....
 408090 06114000 00000000 16114000 00000000  ..@.......@.....
 4080a0 26114000 00000000                    &.@.....        
Contents of section .data:
 4080b0 00000000 00000000 00000000 00000000  ................
 4080c0 48398247 23984735 00000000 00000000  H9.G#.G5........
 4080d0 d1414000 00000000 14404000 00000000  .A@......@@.....
 4080e0 04404000 00000000 16404000 00000000  .@@......@@.....
 4080f0 1a404000 00000000 1e404000 00000000  .@@......@@.....
 408100 2a404000 00000000 36404000 00000000  *@@.....6@@.....
 408110 3b404000 00000000 40404000 00000000  ;@@.....@@@.....
 408120 45404000 00000000 4f404000 00000000  E@@.....O@@.....
 408130 c0804000 00000000 00000000 00000000  ..@.............
Contents of section .comment:
 0000 5562756e 74752063 6c616e67 20766572  Ubuntu clang ver
 0010 73696f6e 2031342e 302e302d 31756275  sion 14.0.0-1ubu
 0020 6e747531 2e3100                      ntu1.1.         
Contents of section .debug_info:
 0000 a6000000 05000108 00000000 01000c00  ................
 0010 01080000 00000000 000205ba 00000008  ................
 0020 00000002 032e0000 00000402 a1000336  ...............6
 0030 00000005 012e0404 07080206 36000000  ............6...
 0040 000502a1 01020750 00000000 0802a102  .......P........
 0050 055c0000 00067c00 00000e00 03640000  .\....|......d..
 0060 000b0220 070a0802 1e080873 00000002  ... .......s....
 0070 1f000009 78000000 04090601 0a0c0807  ....x...........
 0080 020d7300 00000003 02a10302 0e2e0000  ..s.............
 0090 00000602 a1040b05 ba000000 01560f00  .............V..
 00a0 19a50000 00041005 04009901 00000500  ................
 00b0 01089600 00000100 0c000154 000000d0  ...........T....
 00c0 00000002 00130400 00400000 000200c5  .........@......
 00d0 00000001 56030003 0302917c 07000568  ....V......|...h
 00e0 01000004 01770000 00030291 70090007  .....w......p...
 00f0 6c010000 04024a00 00000302 91680c00  l.....J......h..
 0100 08780100 00000000 02031e01 00000156  .x.............V
 0110 04001303 03918078 0e001581 01000003  .......x........
 0120 03918070 10001681 01000003 0391fc6f  ...p...........o
 0130 07001768 01000004 04c40000 00030391  ...h............
 0140 f06f0900 196c0100 0004058b 00000003  .o...l..........
 0150 0391e86f 0c001a92 01000000 00000206  ...o............
 0160 0e010000 01560500 2a030291 7c07002c  .....V..*...|..,
 0170 68010000 0407c000 00000302 91700900  h............p..
 0180 2e6c0100 0004088e 00000003 02916811  .l............h.
 0190 002f6c01 00000409 61000000 03029160  ./l.....a......`
 01a0 12003078 01000003 02915813 00317801  ..0x......X..1x.
 01b0 00000000 0000020a 13010000 01560600  .............V..
 01c0 3d030291 7c07003f 68010000 040bc500  =...|..?h.......
 01d0 00000302 91700900 416c0100 00040c98  .....p..Al......
 01e0 00000003 0291680c 00427801 00000302  ......h..Bx.....
 01f0 91601400 43780100 00030291 58150044  .`..Cx......X..D
 0200 78010000 03029154 16004568 01000000  x......T..Eh....
 0210 00000508 05040674 0100000b 012e050a  .......t........
 0220 0708077d 01000005 0d060108 7d010000  ...}........}...
 0230 098e0100 00000400 0a0f0807 07970100  ................
 0240 000b7d01 00000069 03000005 0001081c  ..}....i........
 0250 01000001 000c0001 b8000000 1f030000  ................
 0260 02003a0a 0000b000 00000203 00c40200  ..:.............
 0270 00015603 00030402 917c0700 05000300  ..V......|......
 0280 00040291 74090006 04030000 040391f0  ....t...........
 0290 770b0007 14030000 040391f0 6f0d0008  w...........o...
 02a0 14030000 040391e8 6f0e0013 25030000  ........o...%...
 02b0 05012302 00000403 91e06f12 00152a03  ..#.......o...*.
 02c0 00000502 ea010000 040391d8 6f150016  ............o...
 02d0 36030000 040391d0 6f16001b 2a030000  6.......o...*...
 02e0 040391c8 6f17001c 3b030000 040391c0  ....o...;.......
 02f0 6f1b001d 3b030000 040391bc 6f1c001e  o...;.......o...
 0300 00030000 040391b8 6f1d001f 00030000  ........o.......
 0310 00000611 08000f07 0f000300 00001100  ................
 0320 07100003 00000012 04000003 034a0200  .............J..
 0330 00015604 003b0402 917c0700 3d000300  ..V..;...|..=...
 0340 00040291 601e003e 4f030000 0402915c  ....`..>O......\
 0350 1f004100 03000004 02915420 00425b03  ..A.......T .B[.
 0360 00000403 91b47f1c 005a0003 00000403  .........Z......
 0370 91b07f1d 005b0003 00000403 91a87f17  .....[..........
 0380 005c3b03 00000403 91a07f1b 005d3b03  .\;..........];.
 0390 00000504 00010000 04029150 12004400  ...........P..D.
 03a0 03000005 05df0000 00040291 4c1c0045  ............L..E
 03b0 00030000 04029148 1d004600 03000004  .......H..F.....
 03c0 02914017 00473b03 00000403 91b87f1b  ..@..G;.........
 03d0 00483b03 00000000 000306c4 02000001  .H;.............
 03e0 5605007f 0402917c 07008100 03000004  V......|........
 03f0 02917409 00820403 00000403 91f0770b  ..t...........w.
 0400 00831403 00000403 91f06f0d 00841403  ..........o.....
 0410 00000403 91e86f0e 008f6703 00000507  ......o...g.....
 0420 23020000 040391e0 6f120091 2a030000  #.......o...*...
 0430 0508ea01 00000403 91d86f15 00923603  ..........o...6.
 0440 00000403 91d06f16 00972a03 00000403  ......o...*.....
 0450 91c86f17 00983b03 00000403 91c06f1b  ..o...;.......o.
 0460 00993b03 00000403 91bc6f1c 009a0003  ..;.......o.....
 0470 00000403 91b86f1d 009b0003 00000000  ......o.........
 0480 06110800 8b070f00 03000000 8d000710  ................
 0490 00030000 008e0400 0003094a 02000001  ...........J....
 04a0 560600b7 0402917c 0700b900 03000004  V......|........
 04b0 0291601e 00ba4f03 00000402 915c1f00  ..`...O......\..
 04c0 bd000300 00040291 542000be 5b030000  ........T ..[...
 04d0 040391b4 7f1c00d6 00030000 040391b0  ................
 04e0 7f1d00d7 00030000 040391a8 7f1700d8  ................
 04f0 3b030000 040391a0 7f1b00d9 3b030000  ;...........;...
 0500 050a0001 00000402 91501200 c0000300  .........P......
 0510 00050bdf 00000004 02914c1c 00c10003  ..........L.....
 0520 00000402 91481d00 c2000300 00040291  .....H..........
 0530 401700c3 3b030000 040391b8 7f1b00c4  @...;...........
 0540 3b030000 00000008 08050409 00030000  ;...............
 0550 0a100300 0002000b 0a080709 21030000  ............!...
 0560 0c100300 00000400 080c0601 0dcb0000  ................
 0570 000e3203 00001401 2e081307 080d2103  ..2...........!.
 0580 00000e43 0300001a 034d0e4b 03000019  ...C.....M.K....
 0590 02c20818 05080900 0300000a 10030000  ................
 05a0 05000921 0300000a 10030000 08000d39  ...!...........9
 05b0 02000000 83030000 05000108 c5010000  ................
 05c0 01000c00 01440100 00850800 0002004e  .....D.........N
 05d0 08000018 01000002 03030504 04001500  ................
 05e0 00000156 04001905 01960100 00015605  ...V..........V.
 05f0 005b0603 91806509 005dc102 00000603  .[....e..]......
 0600 91f86411 007a1603 00000603 91f76414  ..d..z........d.
 0610 007b2703 00000702 1c010000 060391e8  .{'.............
 0620 6416007d 1b030000 0703ec00 00000603  d..}............
 0630 91e0640d 007e2b03 00000603 91d8640a  ..d..~+.......d.
 0640 007f2b03 00000603 91d4640e 00802400  ..+.......d...$.
 0650 00000603 91d06417 00812400 00000603  ......d...$.....
 0660 91cc6418 00822400 00000000 00050496  ..d...$.........
 0670 01000001 5606008d 06039180 6709008f  ....V.......g...
 0680 30030000 060391f8 661100aa 16030000  0.......f.......
 0690 060391f7 661400ab 27030000 07051c01  ....f...'.......
 06a0 00000603 91e86616 00ad1b03 00000706  ......f.........
 06b0 ec000000 060391e0 660d00ae 2b030000  ........f...+...
 06c0 060391d8 660a00af 2b030000 060391d4  ....f...+.......
 06d0 660e00b0 24000000 060391d0 661700b1  f...$.......f...
 06e0 24000000 060391cc 661800b2 24000000  $.......f...$...
 06f0 00000005 07a50100 00015607 00200605  ..........V.. ..
 0700 9180b0f9 7c090022 3c030000 060591f8  ....|.."<.......
 0710 aff97c19 00231603 00000605 91f7aff9  ..|..#..........
 0720 7c140024 27030000 07081f01 00000605  |..$'...........
 0730 91e8aff9 7c160027 1b030000 0709ec00  ....|..'........
 0740 00000605 91e0aff9 7c0d0028 2b030000  ........|..(+...
 0750 060591d8 aff97c0a 00292b03 00000605  ......|..)+.....
 0760 91d4aff9 7c0e002a 24000000 060591d0  ....|..*$.......
 0770 aff97c17 002b2400 00000605 91ccaff9  ..|..+$.........
 0780 7c18002c 24000000 00000005 0a3e0300  |..,$........>..
 0790 00015608 00370802 91780900 37490300  ..V..7...x..7I..
 07a0 00080291 70190037 16030000 06029168  ....p..7.......h
 07b0 1a00391b 03000006 0291601b 003a1b03  ..9.......`..:..
 07c0 0000070b 18000000 06029150 1c003c4e  ...........P..<N
 07d0 03000000 070cfa02 00000602 91481600  .............H..
 07e0 401b0300 00070dd3 02000006 0291440e  @.............D.
 07f0 00412400 00000603 91c07e23 00427a03  .A$.......~#.Bz.
 0800 00000603 91bc7e24 00432400 00000603  ......~$.C$.....
 0810 91b87e25 00442400 00000603 91a47e29  ..~%.D$.......~)
 0820 00552400 0000070e eb000000 060391b4  .U$.............
 0830 7e260046 24000000 070fbb00 00000603  ~&.F$...........
 0840 91b37e27 00470203 00000000 07109100  ..~'.G..........
 0850 00000603 91ac7e26 004e2400 00000711  ......~&.N$.....
 0860 61000000 060391a8 7e28004f 24000000  a.......~(.O$...
 0870 00000000 0009cd02 00000a06 0300001b  ................
 0880 000bd502 00001000 0f0c0f80 000b0d0a  ................
 0890 f6020000 000c000d 0d0a0300 00000d65  ...............e
 08a0 0d0e2400 0000000e 7c000902 0300000a  ..$.....|.......
 08b0 06030000 6500030b 06010e0c 08070902  ....e...........
 08c0 0300000a 06030000 15000f1b 0300000b  ................
 08d0 23030000 13012e03 12070803 15080110  #...............
 08e0 02030000 09cd0200 000a0603 00001900  ................
 08f0 09cd0200 00110603 000050c3 0010cd02  ..........P.....
 0900 00000c22 1003080d 1d660300 00030e00  ...".....f......
 0910 0d207203 0000030f 08000b6e 0300001f  . r........n....
 0920 02a0031e 05080b6e 03000021 02a20927  .......n...!...'
 0930 0300000a 06030000 8000007b 01000005  ...........{....
 0940 00010899 02000001 000c0001 f4010000  ................
 0950 b10c0000 02009304 0000b001 00000200  ................
 0960 51010000 01560300 135c0100 00030291  Q....V...\......
 0970 70090013 60010000 03029168 0b001360  p...`......h...`
 0980 01000004 0291640c 00155c01 00000402  ......d...\.....
 0990 91600d00 165c0100 00040291 5c0e0017  .`...\......\...
 09a0 5c010000 04029158 0f00185c 01000000  \......X...\....
 09b0 02015901 00000156 05002c5c 01000003  ..Y....V..,\....
 09c0 0291700b 002c6001 00000403 91907f10  ..p..,`.........
 09d0 002e6901 00000403 918c7f0c 002f5c01  ..i........../\.
 09e0 00000002 02a40000 00015606 00585c01  ..........V..X\.
 09f0 00000302 91780900 58600100 00030291  .....x..X`......
 0a00 700b0058 60010000 0402916c 0d005a5c  p..X`......l..Z\
 0a10 01000004 02916812 005b5c01 00000402  ......h..[\.....
 0a20 91641300 5c5c0100 00000203 b5000000  .d..\\..........
 0a30 01560700 485c0100 00030291 70090048  .V..H\......p..H
 0a40 60010000 03029168 0b004860 01000003  `......h..H`....
 0a50 0291640c 00485c01 00000302 91600d00  ..d..H\......`..
 0a60 485c0100 00040291 5c14004a 5c010000  H\......\..J\...
 0a70 00020463 00000001 56080071 5c010000  ...c....V..q\...
 0a80 03029170 0f007179 01000003 02916c0e  ...p..qy......l.
 0a90 00715c01 00000005 04050406 65010000  .q\.........e...
 0aa0 050a0601 07650100 00087501 00006000  .....e....u...`.
 0ab0 09110807 065c0100 0000               .....\....      
Contents of section .debug_abbrev:
 0000 01110125 25130503 25721710 171b2511  ...%%...%r....%.
 0010 1b120673 17000002 34000325 49133f19  ...s....4..%I.?.
 0020 3a0b3b0b 02180000 03160049 1303253a  :.;........I..%:
 0030 0b3b0b00 00042400 03253e0b 0b0b0000  .;....$..%>.....
 0040 05010149 13000006 21004913 370b0000  ...I....!.I.7...
 0050 07130103 250b0b3a 0b3b0b00 00080d00  ....%..:.;......
 0060 03254913 3a0b3b0b 380b0000 090f0049  .%I.:.;.8......I
 0070 1300000a 24000325 0b0b3e0b 00000b2e  ....$..%..>.....
 0080 00111b12 06401803 253a0b3b 0b271949  .....@..%:.;.'.I
 0090 133f1900 00000111 01252513 05032572  .?.......%%...%r
 00a0 1710171b 25111b12 06731700 00022e01  ....%....s......
 00b0 111b1206 40180325 3a0b3b0b 27193f19  ....@..%:.;.'.?.
 00c0 00000334 00021803 253a0b3b 0b491300  ...4....%:.;.I..
 00d0 00040b01 111b1206 00000524 0003253e  ...........$..%>
 00e0 0b0b0b00 00061600 49130325 3a0b3b0b  ........I..%:.;.
 00f0 0000070f 00491300 00080101 49130000  .....I......I...
 0100 09210049 13370500 000a2400 03250b0b  .!.I.7....$..%..
 0110 3e0b0000 0b260049 13000000 01110125  >....&.I.......%
 0120 25130503 25721710 171b2511 1b120673  %...%r....%....s
 0130 17000002 0f000000 032e0111 1b120640  ...............@
 0140 1803253a 0b3b0b27 193f1900 00043400  ..%:.;.'.?....4.
 0150 02180325 3a0b3b0b 49130000 050b0111  ...%:.;.I.......
 0160 1b120600 00061301 03250b0b 3a0b3b0b  .........%..:.;.
 0170 0000070d 00032549 133a0b3b 0b380b00  ......%I.:.;.8..
 0180 00082400 03253e0b 0b0b0000 09010149  ..$..%>........I
 0190 1300000a 21004913 370b0000 0b240003  ....!.I.7....$..
 01a0 250b0b3e 0b00000c 21004913 37050000  %..>....!.I.7...
 01b0 0d0f0049 1300000e 16004913 03253a0b  ...I......I..%:.
 01c0 3b0b0000 00011101 25251305 03257217  ;.......%%...%r.
 01d0 10171b25 111b1206 73170000 020f0000  ...%....s.......
 01e0 00032400 03253e0b 0b0b0000 042e0011  ..$..%>.........
 01f0 1b120640 1803253a 0b3b0b27 193f1900  ...@..%:.;.'.?..
 0200 00052e01 111b1206 40180325 3a0b3b0b  ........@..%:.;.
 0210 27193f19 00000634 00021803 253a0b3b  '.?....4....%:.;
 0220 0b491300 00070b01 111b1206 00000805  .I..............
 0230 00021803 253a0b3b 0b491300 00090101  ....%:.;.I......
 0240 49130000 0a210049 13370b00 000b1600  I....!.I.7......
 0250 49130325 3a0b3b0b 00000c13 0103250b  I..%:.;.......%.
 0260 0b3a0b3b 0b00000d 0d000325 49133a0b  .:.;.......%I.:.
 0270 3b0b380b 00000e24 0003250b 0b3e0b00  ;.8....$..%..>..
 0280 000f2600 49130000 100f0049 13000011  ..&.I......I....
 0290 21004913 37050000 00011101 25251305  !.I.7.......%%..
 02a0 03257217 10171b25 111b1206 73170000  .%r....%....s...
 02b0 022e0111 1b120640 1803253a 0b3b0b27  .......@..%:.;.'
 02c0 1949133f 19000003 05000218 03253a0b  .I.?.........%:.
 02d0 3b0b4913 00000434 00021803 253a0b3b  ;.I....4....%:.;
 02e0 0b491300 00052400 03253e0b 0b0b0000  .I....$..%>.....
 02f0 060f0049 13000007 01014913 00000821  ...I......I....!
 0300 00491337 0b000009 24000325 0b0b3e0b  .I.7....$..%..>.
 0310 000000                               ...             
Contents of section .debug_line:
 0000 cc000000 05000800 69000000 010101fb  ........i.......
 0010 0e0d0001 01010100 00000100 00010101  ................
 0020 1f030000 00002300 00004d00 00000301  ......#...M.....
 0030 1f020f05 1e034f00 00000099 d640628c  ......O......@b.
 0040 46a8646e e4fb837f af8cd256 00000001  F.dn.......V....
 0050 2499dd23 61b91572 4b073282 bea3a7bc  $..#a..rK.2.....
 0060 5f000000 028a3d59 10e367e3 783434d5  _.....=Y..g.x44.
 0070 3c14c140 9b040000 09026011 40000000  <..@......`.@...
 0080 00000319 01051a0a e5052c06 7405134a  ..........,.t..J
 0090 05115805 0a067605 1e067405 30740503  ..X...v...t.0t..
 00a0 4a069f05 11067405 2874050c 065a050b  J.....t.(t...Z..
 00b0 ad051406 74052d4a 052c7405 1b4a0503  ....t.-J.,t..J..
 00c0 06e65959 59595959 59595902 08000101  ..YYYYYYYYY.....
 00d0 4b020000 05000800 50000000 010101fb  K.......P.......
 00e0 0e0d0001 01010100 00000100 00010101  ................
 00f0 1f020000 00002300 00000301 1f020f05  ......#.........
 0100 1e026600 000000fc 75f7ae3e 4c617c23  ..f.....u..>La|#
 0110 05785dc5 1fcdd156 00000001 2499dd23  .x]....V....$..#
 0120 61b91572 4b073282 bea3a7bc 04000009  a..rK.2.........
 0130 02201240 00000000 00150507 0a83050f  . .@............
 0140 76051606 8205184a 05039e05 1c066705  v......J......g.
 0150 1f064a05 0bac0510 064c0509 064a0525  ..J......L...J.%
 0160 90051b4a 0518ba05 093c0507 0667050d  ...J.....<...g..
 0170 5a050575 05240379 58050306 ba060309  Z..u.$.yX.......
 0180 58064a66 08900501 06084b05 00081505  X.Jf......K.....
 0190 070aaf05 0fa00516 06ac0518 7405039e  ............t...
 01a0 05220667 05250674 0511ac05 09067605  .".g.%.t......v.
 01b0 10067405 099e0507 0667050c 5a051506  ..t......g..Z...
 01c0 74050574 050f0659 05180674 05057405  t..t...Y...t..t.
 01d0 10065905 19067405 09740522 5805093c  ..Y...t..t."X..<
 01e0 05070667 050d5a05 059f0524 03745805  ...g..Z....$.tX.
 01f0 03060820 06030e58 06746608 90050106  ... ...X.tf.....
 0200 084b0500 af05070a 83050f76 05160682  .K.........v....
 0210 05184a05 039e0511 06670518 0682051a  ..J......g......
 0220 4a05059e 051a0667 051d064a 050dac05  J......g...J....
 0230 1a064b05 1d064a05 0dac0512 064c0516  ..K...J......L..
 0240 064a050b 4a052782 052b4a05 1d4a051a  .J..J.'..+J..J..
 0250 9e050b2e 05090667 050f5a05 07750526  .......g..Z..u.&
 0260 03785805 0506ba05 0306030a 58052403  .xX.........X.$.
 0270 75580503 06ba0603 0c58064a 66089005  uX.......X.Jf...
 0280 0106084b 05008505 070a8305 0f760516  ...K.........v..
 0290 06820518 4a05039e 051c0667 051f064a  ....J......g...J
 02a0 050bac05 17064b05 10064a05 0b58051a  ......K...J..X..
 02b0 064b0510 064a050b 58051906 4b051d06  .K...J..X...K...
 02c0 4a05124a 05217405 26820533 6605374a  J..J.!t.&..3f.7J
 02d0 05294a05 3b5803bb 7f900526 03c5003c  .)J.;X.....&...<
 02e0 05095805 0a063e05 05064a05 0a065905  ..X...>...J...Y.
 02f0 05064a05 09065906 4a050706 67050d5a  ..J...Y.J...g..Z
 0300 05057505 24037458 050306ba 06030e58  ..u.$.tX.......X
 0310 064a6608 90050106 084b0206 00010162  .Jf......K.....b
 0320 05000005 00080082 00000001 0101fb0e  ................
 0330 0d000101 01010000 00010000 0101011f  ................
 0340 04000000 00230000 00710000 00940000  .....#...q......
 0350 0003011f 020f051e 04a10000 0000723e  ..............r>
 0360 66badb53 00bc0fea b8466093 b7085600  f..S.....F`...V.
 0370 00000124 99dd2361 b915724b 073282be  ...$..#a..rK.2..
 0380 a3a7bcb0 00000002 d108b5f9 3a74c505  ............:t..
 0390 10d7d9bc 0ab36df9 b8000000 03f31eef  ......m.........
 03a0 cc3f1583 5fc5a402 3a625cf6 09040000  .?.._...:b\.....
 03b0 09024016 40000000 00001505 090aad05  ..@.@...........
 03c0 0c790507 064a0514 5805073c 05050667  .y...J..X..<...g
 03d0 d705115f 0507064a 050f0676 051606ac  ..._...J...v....
 03e0 05187405 039e051e 06670521 0674050d  ..t......g.!.t..
 03f0 ac050906 76051006 7405099e 05070667  ....v...t......g
 0400 051a5a05 13067405 0d580505 067a082f  ..Z...t..X...z./
 0410 0830050b 06580667 05140674 051b3c05  .0...X.g...t..<.
 0420 23740505 74051106 59051a06 7405202e  #t..t...Y...t. .
 0430 05297405 0c74050a 58050e06 75050c06  .)t..t..X...u...
 0440 74050506 68050b06 58066705 14067405  t...h...X.g...t.
 0450 1b3c0523 74050574 05140659 051d0674  .<.#t..t...Y...t
 0460 05232e05 2c74050c 74050a58 050e0675  .#..,t..t..X...u
 0470 050c0674 05100668 05190674 05097405  ...t...h...t..t.
 0480 22580527 3c052a66 05316605 3b66053e  "X.'<.*f.1f.;f.>
 0490 66054374 05097405 07066705 155a0517  f.Ct..t...g..Z..
 04a0 06740505 4a054206 d7053906 66054bba  .t..J.B...9.f.K.
 04b0 055cba05 53660565 084a056d 74057374  .\..Sf.e.J.mt.st
 04c0 05057405 0d060821 05057505 24036158  ..t....!..u.$.aX
 04d0 05030608 20050906 03215805 12067405  .... ....!X...t.
 04e0 033c0509 06590512 06740503 2e065906  .<...Y...t....Y.
 04f0 4a660890 05010608 4b050008 4d05090a  Jf......K...M...
 0500 ae08d975 050cf405 13067405 153c0503  ...u......t..<..
 0510 3c050506 6c050b06 58051106 67051d06  <...l...X...g...
 0520 82050c4a 050a9e05 0e064b05 0c067405  ...J......K...t.
 0530 05063e05 0b065805 14066705 20068205  ..>...X...g. ...
 0540 0c4a050a 9e050e06 4b050c06 74050906  .J......K...t...
 0550 3e051006 3c051a3c 051d6605 224a0509  >...<..<..f."J..
 0560 4a050706 6705145a 0516063c 05053c05  J...g..Z...<..<.
 0570 4206d705 39063c05 4b90055c 6605533c  B...9.<.K..\f.S<
 0580 0565e405 6d4a0573 4a05054a 050d0608  .e..mJ.sJ..J....
 0590 21050575 0521036c 58050306 9006031b  !..u.!.lX.......
 05a0 58050906 58051206 67050a06 4a0508d6  X...X...g...J...
 05b0 050c064b 050a0674 0503063e 05090658  ...K...t...>...X
 05c0 05150667 050a064a 0508d605 0c064b05  ...g...J......K.
 05d0 0a067405 07063e05 0e063c05 183c051b  ..t...>...<..<..
 05e0 6605204a 05074a05 05066705 42d70539  f. J..J...g.B..9
 05f0 063c054b 90055c66 05533c05 65e4056d  .<.K..\f.S<.e..m
 0600 4a05734a 05054a05 0d060821 05030312  J.sJ..J....!....
 0610 74064a66 08900501 06084b05 00e70509  t.Jf......K.....
 0620 0aad050c 79050706 4a051458 05073c05  ....y...J..X..<.
 0630 050667d7 05115f05 07064a05 0f067605  ..g..._...J...v.
 0640 1606ac05 18740503 9e051e06 67052106  .....t......g.!.
 0650 74050dac 05090676 05100674 05099e05  t......v...t....
 0660 07066705 1a5a0513 0674050d 58050506  ..g..Z...t..X...
 0670 7a082f08 30050b06 58051206 67051b06  z./.0...X...g...
 0680 7405223c 052a7405 0c74050a 58050e06  t."<.*t..t..X...
 0690 75050c06 74050a06 67051306 7405192e  u...t...g...t...
 06a0 05227405 0574065a 050b0658 05150667  ."t..t.Z...X...g
 06b0 051e0674 05253c05 2d74050c 74050a58  ...t.%<.-t..t..X
 06c0 050e0675 050c0674 050a0667 05130674  ...u...t...g...t
 06d0 05192e05 22740505 74051006 5a051906  ...."t..t...Z...
 06e0 74050974 05225805 273c052a 66053166  t..t."X.'<.*f.1f
 06f0 053b6605 3e660543 74050974 05070667  .;f.>f.Ct..t...g
 0700 05155a05 17067405 054a0542 06d70539  ..Z...t..J.B...9
 0710 0666054b ba055cba 05536605 65084a05  .f.K..\..Sf.e.J.
 0720 6d740573 74050574 050d0608 21050575  mt.st..t....!..u
 0730 05240361 58050306 08200509 06032158  .$.aX.... ....!X
 0740 05120674 05033c05 09065905 12067405  ...t..<...Y...t.
 0750 032e0659 064a6608 90050106 084b0500  ...Y.Jf......K..
 0760 084d0509 0aae08d9 75050cf4 05130674  .M......u......t
 0770 05153c05 033c0505 066c050b 06580512  ..<..<...l...X..
 0780 0667051e 0682050c 4a050a9e 050e064b  .g......J......K
 0790 050c0674 0505063e 050b0658 05150667  ...t...>...X...g
 07a0 05210682 050c4a05 0a9e050e 064b050c  .!....J......K..
 07b0 06740509 063e0510 063c051a 3c051d66  .t...>...<..<..f
 07c0 05224a05 094a0507 06670514 5a051606  ."J..J...g..Z...
 07d0 3c05053c 054206d7 0539063c 054b9005  <..<.B...9.<.K..
 07e0 5c660553 3c0565e4 056d4a05 734a0505  \f.S<.e..mJ.sJ..
 07f0 4a050d06 08210505 75052103 6c580503  J....!..u.!.lX..
 0800 06900603 1b580509 06580513 0667050a  .....X...X...g..
 0810 064a0508 d6050c06 4b050a06 74050306  .J......K...t...
 0820 3e050906 58051606 67050a06 4a0508d6  >...X...g...J...
 0830 050c064b 050a0674 0507063e 050e063c  ...K...t...>...<
 0840 05183c05 1b660520 4a05074a 05050667  ..<..f. J..J...g
 0850 0542d705 39063c05 4b90055c 6605533c  .B..9.<.K..\f.S<
 0860 0565e405 6d4a0573 4a05054a 050d0608  .e..mJ.sJ..J....
 0870 21050303 1274064a 66089005 0106084b  !....t.Jf......K
 0880 02090001 01280400 00050008 00820000  .....(..........
 0890 00010101 fb0e0d00 01010101 00000001  ................
 08a0 00000101 011f0400 00000023 00000071  ...........#...q
 08b0 000000c0 00000003 011f020f 051e04e9  ................
 08c0 00000000 2a04decc 0d504427 9e1c84ef  ....*....PD'....
 08d0 6d066969 56000000 012499dd 2361b915  m.iiV....$..#a..
 08e0 724b0732 82bea3a7 bcb00000 0002d108  rK.2............
 08f0 b5f93a74 c50510d7 d9bc0ab3 6df9fa00  ..:t........m...
 0900 0000039b 45d95005 0c215f21 6850b27b  ....E.P..!_!hP.{
 0910 d1e8f304 00000902 80204000 00000000  ......... @.....
 0920 03190105 030a4b59 59050159 0500033e  ......KYY..Y...>
 0930 c805130a ad031d08 74ad050f 76051806  ........t...v...
 0940 ac050382 05180667 05120674 051bd605  .......g...t....
 0950 0b4a0517 06750511 0674050b d6051706  .J...u...t......
 0960 75051106 74051ad6 050b3c05 1f066705  u...t.....<...g.
 0970 24067405 1274050b 58052306 67052806  $.t..t..X.#.g.(.
 0980 74051274 050b5805 09066805 0e066605  t..t..X...h...f.
 0990 15660518 66051d66 05096605 0b066805  .f..f..f..f...h.
 09a0 11067405 1674051b 66052174 05070673  ..t..t..f.!t...s
 09b0 050fd805 0376051f 03745805 03060820  .....v...tX.... 
 09c0 06030d58 06746608 90050106 084b0500  ...X.tf......K..
 09d0 08310513 0aad031b 0874ad05 0f760518  .1.......t...v..
 09e0 06ac0503 82051806 67051206 74051bd6  ........g...t...
 09f0 050b4a05 17067505 11067405 0bd60517  ..J...u...t.....
 0a00 06750511 0674051a d6050b3c 051f0667  .u...t.....<...g
 0a10 05240674 05127405 0b580523 06670528  .$.t..t..X.#.g.(
 0a20 06740512 74050b58 05090668 050e0666  .t..t..X...h...f
 0a30 05156605 1866051d 66050966 050b0668  ..f..f..f..f...h
 0a40 05110674 05167405 1b660521 74050706  ...t..t..f.!t...
 0a50 73050fd8 05037605 1f037458 05030608  s.....v...tX....
 0a60 2006030d 58067466 08900501 06084b05   ...X.tf......K.
 0a70 0003e67e 082e0513 0aad082f ad051576  ...~......./...v
 0a80 05030674 050f069f 051806ac 0503ac05  ...t............
 0a90 18066705 12067405 1bd6050b 4a051706  ..g...t.....J...
 0aa0 75051106 74050bd6 05170675 05110674  u...t......u...t
 0ab0 051ad605 0b3c051f 06670524 06740512  .....<...g.$.t..
 0ac0 74050b58 05230667 05280674 05127405  t..X.#.g.(.t..t.
 0ad0 0b580509 0668050e 06660515 66051866  .X...h...f..f..f
 0ae0 051d6605 0966050b 06680511 06740516  ..f..f...h...t..
 0af0 74051b66 05217405 07067305 0fd80503  t..f.!t...s.....
 0b00 76052503 74580503 06082006 030d5806  v.%.tX.... ...X.
 0b10 74660890 05010608 4b050008 3f050e0a  tf......K...?...
 0b20 082f8305 05850510 c9050d06 4a05052e  ./..........J...
 0b30 050f065a 05160682 05184a05 034a0509  ...Z......J..J..
 0b40 06670513 75052108 2f051406 58052d08  .g..u.!./...X.-.
 0b50 66053958 05464a05 364a054c 8203bd7f  f.9X.FJ.6J.L....
 0b60 ac050903 c3007405 1f066705 13065805  ......t...g...X.
 0b70 2b086605 37580543 4a05344a 05498203  +.f.7X.CJ.4J.I..
 0b80 bc7fac05 0903c400 74050e06 68051506  ........t...h...
 0b90 9e051766 05056605 07066805 14065805  ...f..f...h...X.
 0ba0 1d580523 9e05134a 05112e05 0e660529  .X.#...J.....f.)
 0bb0 3c0530ac 05336605 3574053c ac054566  <.0..3f.5t.<..Ef
 0bc0 053f7405 4d9e03b8 7fba0507 03c80066  .?t.M..........f
 0bd0 050f0608 22050906 7405072e 051a0608  ...."...t.......
 0be0 13050706 66050d4a 05074a05 18d60523  ....f..J..J....#
 0bf0 06450505 06e4065f 050b064a 05054a05  .E....._...J..J.
 0c00 1dd6050e 06590515 069e0517 66050566  .....Y......f..f
 0c10 05110667 051c0658 051a7405 1158050b  ...g...X..t..X..
 0c20 2e051906 67051f06 4a05194a 05070820  ....g...J..J... 
 0c30 050d4a05 074a0517 d6050d06 3d051306  ..J..J......=...
 0c40 6605173c 05117405 0b2e0522 06390505  f..<..t....".9..
 0c50 06e4065d 050b064a 05054a05 1bd60510  ...]...J..J.....
 0c60 064c0519 06580509 4a051706 67050506  .L...X..J...g...
 0c70 0874050b 4a05054a 05157405 14062f05  .t..J..J..t.../.
 0c80 1b06c805 14ac0522 5803a97f 90050503  ......."X.......
 0c90 d7006605 0b4a0505 4a051274 05250603  ..f..J..J..t.%..
 0ca0 693c0503 06ba0501 06031958 02090001  i<.........X....
 0cb0 01fa0200 00050008 00370000 00010101  .........7......
 0cc0 fb0e0d00 01010101 00000001 00000101  ................
 0cd0 011f0100 00000003 011f020f 051e010b  ................
 0ce0 01000000 07cfbab0 2e78032d d0e506d7  .........x.-....
 0cf0 24d4a22e 04000009 02d02840 00000000  $.........(@....
 0d00 00031301 051a0af8 050c064a 050a5805  ...........J..X.
 0d10 0e063d05 06064a05 03066705 02bb050b  ..=...J...g.....
 0d20 0658050a 4a050f3c 05143c05 18660517  .X..J..<..<..f..
 0d30 4a051c3c 05238205 27660526 4a052b3c  J..<.#..'f.&J.+<
 0d40 03639005 02031d3c 050306c9 0502b905  .c.....<........
 0d50 085a050a 75050906 4a050e3c 05158205  .Z..u...J..<....
 0d60 19660518 4a051d3c 03609005 0203203c  .f..J..<.`.... <
 0d70 050d06ca 050c064a 05113c05 09ac0503  .......J..<.....
 0d80 06670502 b705175d 051c064a 050b4a05  .g.....]...J..J.
 0d90 0958050d 063d0506 064a0503 06670513  .X...=...J...g..
 0da0 bb051706 4a052074 05254a05 2b4a0534  ....J. t.%J.+J.4
 0db0 3c05083c 05065805 1a063d05 0a063c05  <..<..X...=...<.
 0dc0 02900501 063d0500 0877050a 0a860511  .....=...w......
 0dd0 75050206 4a051106 67050306 ac05152e  u...J...g.......
 0de0 05020657 050a5a75 0509064a 050f3c05  ...W..Zu...J..<.
 0df0 023c050f 0668050e 064a0514 3c05073c  .<...h...J..<..<
 0e00 74050406 67050dbb 050c064a 05123c05  t...g......J..<.
 0e10 193c051d 66051c4a 05223c05 0c3c0504  .<..f..J."<..<..
 0e20 0667050d bb050c06 4a05123c 05183c05  .g......J..<..<.
 0e30 1d66051c 4a05223c 05273c05 2b66052a  .f..J."<.'<.+f.*
 0e40 4a05303c 050c3c05 04066705 0dbb050c  J.0<..<...g.....
 0e50 064a0512 3c05173c 051b6605 1a4a0520  .J..<..<..f..J. 
 0e60 3c050c3c 05040667 060342ba 050b0603  <..<...g..B.....
 0e70 3fe4050a 064a0510 3c05033c 05162e05  ?....J..<..<....
 0e80 030659bb 05020374 90050e03 0e580506  ..Y....t.....X..
 0e90 064a0503 0667050a bb050206 3c050106  .J...g......<...
 0ea0 3d050003 13ba0509 0abf050a 75050906  =...........u...
 0eb0 4a050e3c 05023c05 07066805 0c75050a  J..<..<...h..u..
 0ec0 75051406 ba05033c 05080668 051606ba  u......<...h....
 0ed0 05154a05 123c0508 2e050e06 67050475  ..J..<......g..u
 0ee0 05038c05 105e0507 064a0504 06670503  .....^...J...g..
 0ef0 59910502 0373ba05 0a030f58 0502063c  Y....s.....X...<
 0f00 05000603 5bd6050d 0a085b05 06064a05  ....[.....[...J.
 0f10 03066705 08bb0509 75051506 ba05023c  ..g.....u......<
 0f20 05070668 051706ba 05164a05 133c0507  ...h......J..<..
 0f30 2e050406 67050359 05028c05 0a5e0512  ....g..Y.....^..
 0f40 06660527 66052b4a 05304a05 364a053f  .f.'f.+J.0J.6J.?
 0f50 3c05463c 051c3c05 1ac80510 3c05022e  <.F<..<.....<...
 0f60 0501063d 0500031c 083c0507 0aad0506  ...=.....<......
 0f70 064a050b 3c050666 05030667 050bbb05  .J..<..f...g....
 0f80 11063c05 1582050b 3c051206 67050e06  ..<.....<...g...
 0f90 4a050366 038a7f82 050b0603 f7005805  J..f..........X.
 0fa0 0a064a05 022e0501 063d0205 000101    ..J......=..... 
Contents of section .debug_str:
 0000 5562756e 74752063 6c616e67 20766572  Ubuntu clang ver
 0010 73696f6e 2031342e 302e302d 31756275  sion 14.0.0-1ubu
 0020 6e747531 2e310074 6573742e 63002f68  ntu1.1.test.c./h
 0030 6f6d652f 6873656f 6e672f61 7373656d  ome/hseong/assem
 0040 626c795f 70726163 74696365 2f6c6962  bly_practice/lib
 0050 00675f6c 6f6e675f 73747269 6e675f6c  .g_long_string_l
 0060 656e0075 6e736967 6e656420 6c6f6e67  en.unsigned long
 0070 00675f72 616e646f 6d5f6e75 6d00675f  .g_random_num.g_
 0080 63617365 7300745f 74657374 63617365  cases.t_testcase
 0090 005f5f41 52524159 5f53495a 455f5459  .__ARRAY_SIZE_TY
 00a0 50455f5f 00675f6c 6f6e675f 73747269  PE__.g_long_stri
 00b0 6e670067 5f6e6361 73657300 6d61696e  ng.g_ncases.main
 00c0 00696e74 00746573 745f7374 722e6300  .int.test_str.c.
 00d0 74657374 5f737472 6c656e00 74657374  test_strlen.test
 00e0 5f737472 63707900 74657374 5f737472  _strcpy.test_str
 00f0 636d7000 74657374 5f737472 64757000  cmp.test_strdup.
 0100 69735f66 61696c00 69006275 66666572  is_fail.i.buffer
 0110 31006275 66666572 32006a00 73300073  1.buffer2.j.s0.s
 0120 31007030 00703100 72657375 6c740074  1.p0.p1.result.t
 0130 6573745f 73797363 616c6c2e 63007465  est_syscall.c.te
 0140 73745f72 6561645f 6e6f726d 616c0074  st_read_normal.t
 0150 6573745f 72656164 5f657272 6f720074  est_read_error.t
 0160 6573745f 77726974 655f6e6f 726d616c  est_write_normal
 0170 00746573 745f7772 6974655f 6572726f  .test_write_erro
 0180 72006664 5f736574 00627566 66657230  r.fd_set.buffer0
 0190 00726561 64007772 69746500 735f7069  .read.write.s_pi
 01a0 70655f66 64007265 7430005f 5f737369  pe_fd.ret0.__ssi
 01b0 7a655f74 00726574 31006572 726e6f30  ze_t.ret1.errno0
 01c0 00657272 6e6f3100 66645f63 61736500  .errno1.fd_case.
 01d0 63617365 5f6c656e 00627566 66657200  case_len.buffer.
 01e0 74657374 5f61746f 695f6261 73652e63  test_atoi_base.c
 01f0 00746573 745f6174 6f695f62 61736500  .test_atoi_base.
 0200 74657374 5f61746f 695f6261 73655f77  test_atoi_base_w
 0210 68697465 73706163 65007465 73745f61  hitespace.test_a
 0220 746f695f 62617365 5f736967 6e007465  toi_base_sign.te
 0230 73745f61 746f695f 62617365 5f72616e  st_atoi_base_ran
 0240 646f6d00 67656e65 72617465 5f746573  dom.generate_tes
 0250 74636173 65007465 73747300 73747200  tcase.tests.str.
 0260 745f6174 6f695f74 65737463 61736500  t_atoi_testcase.
 0270 756e7369 676e6564 20636861 72007465  unsigned char.te
 0280 7374735f 6c656e00 6d61785f 7374725f  sts_len.max_str_
 0290 6c656e00 6d61785f 62617365 5f6c656e  len.max_base_len
 02a0 00747600 74765f73 6563005f 5f74696d  .tv.tv_sec.__tim
 02b0 655f7400 74765f75 73656300 5f5f7375  e_t.tv_usec.__su
 02c0 7365636f 6e64735f 74007469 6d657661  seconds_t.timeva
 02d0 6c007461 626c6500 69647800 66745f61  l.table.idx.ft_a
 02e0 746f695f 62617365 5f726566 2e630066  toi_base_ref.c.f
 02f0 745f6174 6f695f62 6173655f 72656600  t_atoi_base_ref.
 0300 62617365 5f76616c 69646974 79007374  base_validity.st
 0310 726c656e 5f626173 65007374 725f6465  rlen_base.str_de
 0320 636f6465 00726574 5f636865 636b0062  code.ret_check.b
 0330 6173656c 656e006e 7369676e 00726574  aselen.nsign.ret
 0340 00726570 65617400 7374725f 666c6167  .repeat.str_flag
 0350 006f7264 657200                      .order.         
Contents of section .debug_addr:
 0000 34000000 05000800 40814000 00000000  4.......@.@.....
 0010 c0804000 00000000 d0804000 00000000  ..@.......@.....
 0020 48814000 00000000 50814000 00000000  H.@.....P.@.....
 0030 60114000 00000000 6c000000 05000800  `.@.....l.......
 0040 20124000 00000000 2f124000 00000000   .@...../.@.....
 0050 4b124000 00000000 f0124000 00000000  K.@.......@.....
 0060 05134000 00000000 27134000 00000000  ..@.....'.@.....
 0070 10144000 00000000 1f144000 00000000  ..@.......@.....
 0080 3b144000 00000000 57144000 00000000  ;.@.....W.@.....
 0090 20154000 00000000 2f154000 00000000   .@...../.@.....
 00a0 4b154000 00000000 64000000 05000800  K.@.....d.......
 00b0 40164000 00000000 82164000 00000000  @.@.......@.....
 00c0 a4164000 00000000 10194000 00000000  ..@.......@.....
 00d0 51194000 00000000 64194000 00000000  Q.@.....d.@.....
 00e0 601b4000 00000000 a21b4000 00000000  `.@.......@.....
 00f0 c41b4000 00000000 301e4000 00000000  ..@.....0.@.....
 0100 711e4000 00000000 841e4000 00000000  q.@.......@.....
 0110 94000000 05000800 80204000 00000000  ......... @.....
 0120 a0204000 00000000 d5204000 00000000  . @...... @.....
 0130 ee204000 00000000 40224000 00000000  . @.....@"@.....
 0140 75224000 00000000 8e224000 00000000  u"@......"@.....
 0150 e0234000 00000000 21244000 00000000  .#@.....!$@.....
 0160 3d244000 00000000 90254000 00000000  =$@......%@.....
 0170 b3254000 00000000 cb254000 00000000  .%@......%@.....
 0180 e1254000 00000000 8d264000 00000000  .%@......&@.....
 0190 a9264000 00000000 93274000 00000000  .&@......'@.....
 01a0 af274000 00000000 2c000000 05000800  .'@.....,.......
 01b0 d0284000 00000000 302a4000 00000000  .(@.....0*@.....
 01c0 902b4000 00000000 402c4000 00000000  .+@.....@,@.....
 01d0 002d4000 00000000                    .-@.....        
Contents of section .debug_line_str:
 0000 2f686f6d 652f6873 656f6e67 2f617373  /home/hseong/ass
 0010 656d626c 795f7072 61637469 63652f6c  embly_practice/l
 0020 6962002f 7573722f 6c69622f 6c6c766d  ib./usr/lib/llvm
 0030 2d31342f 6c69622f 636c616e 672f3134  -14/lib/clang/14
 0040 2e302e30 2f696e63 6c756465 002e0074  .0.0/include...t
 0050 6573742e 63007374 64646566 2e680074  est.c.stddef.h.t
 0060 6573742e 68007465 73745f73 74722e63  est.h.test_str.c
 0070 002f7573 722f696e 636c7564 652f7838  ./usr/include/x8
 0080 365f3634 2d6c696e 75782d67 6e752f62  6_64-linux-gnu/b
 0090 69747300 2f757372 2f696e63 6c756465  its./usr/include
 00a0 00746573 745f7379 7363616c 6c2e6300  .test_syscall.c.
 00b0 74797065 732e6800 73746469 6f2e6800  types.h.stdio.h.
 00c0 2f757372 2f696e63 6c756465 2f783836  /usr/include/x86
 00d0 5f36342d 6c696e75 782d676e 752f6269  _64-linux-gnu/bi
 00e0 74732f74 79706573 00746573 745f6174  ts/types.test_at
 00f0 6f695f62 6173652e 63007374 72756374  oi_base.c.struct
 0100 5f74696d 6576616c 2e680066 745f6174  _timeval.h.ft_at
 0110 6f695f62 6173655f 7265662e 6300      oi_base_ref.c.  
Contents of section .debug_str_offsets:
 0000 48000000 05000000 00000000 27000000  H...........'...
 0010 2e000000 51000000 63000000 ae010000  ....Q...c.......
 0020 71000000 7e000000 ac000000 79020000  q...~.......y...
 0030 4d020000 86000000 91000000 a5000000  M...............
 0040 b3000000 bc000000 c1000000 60000000  ............`...
 0050 05000000 00000000 c5000000 2e000000  ................
 0060 d0000000 dc000000 e8000000 f4000000  ................
 0070 00010000 c1000000 08010000 63000000  ............c...
 0080 ae010000 ac000000 79020000 0a010000  ........y.......
 0090 91000000 12010000 1a010000 1c010000  ................
 00a0 1f010000 22010000 25010000 28010000  ...."...%...(...
 00b0 88000000 05000000 00000000 2f010000  ............/...
 00c0 2e000000 3e010000 4f010000 5f010000  ....>...O..._...
 00d0 71010000 00010000 c1000000 82010000  q...............
 00e0 91000000 89010000 79020000 0a010000  ........y.......
 00f0 9e010000 91010000 96010000 9c010000  ................
 0100 08010000 63000000 ae010000 ac000000  ....c...........
 0110 9d020000 a6010000 6c000000 ab010000  ........l.......
 0120 ad010000 b5010000 ba010000 c1010000  ................
 0130 c8010000 d0010000 d9010000 ac000000  ................
 0140 05000000 00000000 e0010000 2e000000  ................
 0150 c1000000 f1010000 00020000 1a020000  ................
 0160 2e020000 44020000 56020000 5c020000  ....D...V...\...
 0170 79020000 91000000 fb010000 7a000000  y...........z...
 0180 62020000 60020000 9d020000 63000000  b...`.......c...
 0190 ae010000 00010000 70020000 08010000  ........p.......
 01a0 a6010000 b5010000 7e020000 88020000  ........~.......
 01b0 94020000 a1020000 a4020000 6c000000  ............l...
 01c0 ab020000 b4020000 bc020000 ca020000  ................
 01d0 d2020000 98020000 8c020000 1a010000  ................
 01e0 ef010000 d8020000 29020000 58000000  ........)...X...
 01f0 05000000 00000000 dc020000 2e000000  ................
 0200 ef020000 c1000000 00030000 0e030000  ................
 0210 1a030000 25030000 5c020000 79020000  ....%...\...y...
 0220 fb010000 2f030000 d5000000 37030000  ..../.......7...
 0230 3d030000 41030000 91000000 48030000  =...A.......H...
 0240 d8020000 51030000                    ....Q...        

Disassembly of section .plt:

0000000000401000 <free@plt-0x10>:
  401000:	ff 35 02 70 00 00    	push   QWORD PTR [rip+0x7002]        # 408008 <_GLOBAL_OFFSET_TABLE_+0x8>
  401006:	ff 25 04 70 00 00    	jmp    QWORD PTR [rip+0x7004]        # 408010 <_GLOBAL_OFFSET_TABLE_+0x10>
  40100c:	0f 1f 40 00          	nop    DWORD PTR [rax+0x0]

0000000000401010 <free@plt>:
  401010:	ff 25 02 70 00 00    	jmp    QWORD PTR [rip+0x7002]        # 408018 <free@GLIBC_2.2.5>
  401016:	68 00 00 00 00       	push   0x0
  40101b:	e9 e0 ff ff ff       	jmp    401000 <__abi_tag+0xce0>

0000000000401020 <__errno_location@plt>:
  401020:	ff 25 fa 6f 00 00    	jmp    QWORD PTR [rip+0x6ffa]        # 408020 <__errno_location@GLIBC_2.2.5>
  401026:	68 01 00 00 00       	push   0x1
  40102b:	e9 d0 ff ff ff       	jmp    401000 <__abi_tag+0xce0>

0000000000401030 <srandom@plt>:
  401030:	ff 25 f2 6f 00 00    	jmp    QWORD PTR [rip+0x6ff2]        # 408028 <srandom@GLIBC_2.2.5>
  401036:	68 02 00 00 00       	push   0x2
  40103b:	e9 c0 ff ff ff       	jmp    401000 <__abi_tag+0xce0>

0000000000401040 <strcpy@plt>:
  401040:	ff 25 ea 6f 00 00    	jmp    QWORD PTR [rip+0x6fea]        # 408030 <strcpy@GLIBC_2.2.5>
  401046:	68 03 00 00 00       	push   0x3
  40104b:	e9 b0 ff ff ff       	jmp    401000 <__abi_tag+0xce0>

0000000000401050 <write@plt>:
  401050:	ff 25 e2 6f 00 00    	jmp    QWORD PTR [rip+0x6fe2]        # 408038 <write@GLIBC_2.2.5>
  401056:	68 04 00 00 00       	push   0x4
  40105b:	e9 a0 ff ff ff       	jmp    401000 <__abi_tag+0xce0>

0000000000401060 <strlen@plt>:
  401060:	ff 25 da 6f 00 00    	jmp    QWORD PTR [rip+0x6fda]        # 408040 <strlen@GLIBC_2.2.5>
  401066:	68 05 00 00 00       	push   0x5
  40106b:	e9 90 ff ff ff       	jmp    401000 <__abi_tag+0xce0>

0000000000401070 <printf@plt>:
  401070:	ff 25 d2 6f 00 00    	jmp    QWORD PTR [rip+0x6fd2]        # 408048 <printf@GLIBC_2.2.5>
  401076:	68 06 00 00 00       	push   0x6
  40107b:	e9 80 ff ff ff       	jmp    401000 <__abi_tag+0xce0>

0000000000401080 <gettimeofday@plt>:
  401080:	ff 25 ca 6f 00 00    	jmp    QWORD PTR [rip+0x6fca]        # 408050 <gettimeofday@GLIBC_2.2.5>
  401086:	68 07 00 00 00       	push   0x7
  40108b:	e9 70 ff ff ff       	jmp    401000 <__abi_tag+0xce0>

0000000000401090 <memset@plt>:
  401090:	ff 25 c2 6f 00 00    	jmp    QWORD PTR [rip+0x6fc2]        # 408058 <memset@GLIBC_2.2.5>
  401096:	68 08 00 00 00       	push   0x8
  40109b:	e9 60 ff ff ff       	jmp    401000 <__abi_tag+0xce0>

00000000004010a0 <close@plt>:
  4010a0:	ff 25 ba 6f 00 00    	jmp    QWORD PTR [rip+0x6fba]        # 408060 <close@GLIBC_2.2.5>
  4010a6:	68 09 00 00 00       	push   0x9
  4010ab:	e9 50 ff ff ff       	jmp    401000 <__abi_tag+0xce0>

00000000004010b0 <pipe@plt>:
  4010b0:	ff 25 b2 6f 00 00    	jmp    QWORD PTR [rip+0x6fb2]        # 408068 <pipe@GLIBC_2.2.5>
  4010b6:	68 0a 00 00 00       	push   0xa
  4010bb:	e9 40 ff ff ff       	jmp    401000 <__abi_tag+0xce0>

00000000004010c0 <read@plt>:
  4010c0:	ff 25 aa 6f 00 00    	jmp    QWORD PTR [rip+0x6faa]        # 408070 <read@GLIBC_2.2.5>
  4010c6:	68 0b 00 00 00       	push   0xb
  4010cb:	e9 30 ff ff ff       	jmp    401000 <__abi_tag+0xce0>

00000000004010d0 <strcmp@plt>:
  4010d0:	ff 25 a2 6f 00 00    	jmp    QWORD PTR [rip+0x6fa2]        # 408078 <strcmp@GLIBC_2.2.5>
  4010d6:	68 0c 00 00 00       	push   0xc
  4010db:	e9 20 ff ff ff       	jmp    401000 <__abi_tag+0xce0>

00000000004010e0 <memcpy@plt>:
  4010e0:	ff 25 9a 6f 00 00    	jmp    QWORD PTR [rip+0x6f9a]        # 408080 <memcpy@GLIBC_2.14>
  4010e6:	68 0d 00 00 00       	push   0xd
  4010eb:	e9 10 ff ff ff       	jmp    401000 <__abi_tag+0xce0>

00000000004010f0 <random@plt>:
  4010f0:	ff 25 92 6f 00 00    	jmp    QWORD PTR [rip+0x6f92]        # 408088 <random@GLIBC_2.2.5>
  4010f6:	68 0e 00 00 00       	push   0xe
  4010fb:	e9 00 ff ff ff       	jmp    401000 <__abi_tag+0xce0>

0000000000401100 <malloc@plt>:
  401100:	ff 25 8a 6f 00 00    	jmp    QWORD PTR [rip+0x6f8a]        # 408090 <malloc@GLIBC_2.2.5>
  401106:	68 0f 00 00 00       	push   0xf
  40110b:	e9 f0 fe ff ff       	jmp    401000 <__abi_tag+0xce0>

0000000000401110 <strdup@plt>:
  401110:	ff 25 82 6f 00 00    	jmp    QWORD PTR [rip+0x6f82]        # 408098 <strdup@GLIBC_2.2.5>
  401116:	68 10 00 00 00       	push   0x10
  40111b:	e9 e0 fe ff ff       	jmp    401000 <__abi_tag+0xce0>

0000000000401120 <strerror@plt>:
  401120:	ff 25 7a 6f 00 00    	jmp    QWORD PTR [rip+0x6f7a]        # 4080a0 <strerror@GLIBC_2.2.5>
  401126:	68 11 00 00 00       	push   0x11
  40112b:	e9 d0 fe ff ff       	jmp    401000 <__abi_tag+0xce0>

Disassembly of section .text:

0000000000401130 <_start>:
  401130:	f3 0f 1e fa          	endbr64 
  401134:	31 ed                	xor    ebp,ebp
  401136:	49 89 d1             	mov    r9,rdx
  401139:	5e                   	pop    rsi
  40113a:	48 89 e2             	mov    rdx,rsp
  40113d:	48 83 e4 f0          	and    rsp,0xfffffffffffffff0
  401141:	50                   	push   rax
  401142:	54                   	push   rsp
  401143:	45 31 c0             	xor    r8d,r8d
  401146:	31 c9                	xor    ecx,ecx
  401148:	48 c7 c7 60 11 40 00 	mov    rdi,0x401160
  40114f:	ff 15 a3 6e 00 00    	call   QWORD PTR [rip+0x6ea3]        # 407ff8 <__libc_start_main@GLIBC_2.34>
  401155:	f4                   	hlt    
  401156:	66 2e 0f 1f 84 00 00 	cs nop WORD PTR [rax+rax*1+0x0]
  40115d:	00 00 00 

0000000000401160 <main>:
  401160:	55                   	push   rbp
  401161:	48 89 e5             	mov    rbp,rsp
  401164:	48 83 ec 10          	sub    rsp,0x10
  401168:	c7 45 fc 00 00 00 00 	mov    DWORD PTR [rbp-0x4],0x0
  40116f:	48 8b 3d ca 6f 00 00 	mov    rdi,QWORD PTR [rip+0x6fca]        # 408140 <g_long_string_len>
  401176:	48 83 c7 02          	add    rdi,0x2
  40117a:	e8 81 ff ff ff       	call   401100 <malloc@plt>
  40117f:	48 89 05 c2 6f 00 00 	mov    QWORD PTR [rip+0x6fc2],rax        # 408148 <g_long_string>
  401186:	48 8b 3d bb 6f 00 00 	mov    rdi,QWORD PTR [rip+0x6fbb]        # 408148 <g_long_string>
  40118d:	48 8b 15 ac 6f 00 00 	mov    rdx,QWORD PTR [rip+0x6fac]        # 408140 <g_long_string_len>
  401194:	48 83 c2 02          	add    rdx,0x2
  401198:	be 61 00 00 00       	mov    esi,0x61
  40119d:	e8 ee fe ff ff       	call   401090 <memset@plt>
  4011a2:	48 8b 05 9f 6f 00 00 	mov    rax,QWORD PTR [rip+0x6f9f]        # 408148 <g_long_string>
  4011a9:	48 8b 0d 90 6f 00 00 	mov    rcx,QWORD PTR [rip+0x6f90]        # 408140 <g_long_string_len>
  4011b0:	c6 44 08 01 00       	mov    BYTE PTR [rax+rcx*1+0x1],0x0
  4011b5:	48 c7 05 90 6f 00 00 	mov    QWORD PTR [rip+0x6f90],0xe        # 408150 <g_ncases>
  4011bc:	0e 00 00 00 
  4011c0:	48 8b 0d 89 6f 00 00 	mov    rcx,QWORD PTR [rip+0x6f89]        # 408150 <g_ncases>
  4011c7:	48 83 e9 01          	sub    rcx,0x1
  4011cb:	48 8b 05 76 6f 00 00 	mov    rax,QWORD PTR [rip+0x6f76]        # 408148 <g_long_string>
  4011d2:	48 89 45 f0          	mov    QWORD PTR [rbp-0x10],rax
  4011d6:	48 8d 05 f3 6e 00 00 	lea    rax,[rip+0x6ef3]        # 4080d0 <g_cases>
  4011dd:	48 8b 55 f0          	mov    rdx,QWORD PTR [rbp-0x10]
  4011e1:	48 89 14 c8          	mov    QWORD PTR [rax+rcx*8],rdx
  4011e5:	e8 36 00 00 00       	call   401220 <test_strlen>
  4011ea:	e8 01 01 00 00       	call   4012f0 <test_strcpy>
  4011ef:	e8 1c 02 00 00       	call   401410 <test_strcmp>
  4011f4:	e8 27 03 00 00       	call   401520 <test_strdup>
  4011f9:	e8 42 04 00 00       	call   401640 <test_read_normal>
  4011fe:	e8 0d 07 00 00       	call   401910 <test_read_error>
  401203:	e8 58 09 00 00       	call   401b60 <test_write_normal>
  401208:	e8 23 0c 00 00       	call   401e30 <test_write_error>
  40120d:	e8 6e 0e 00 00       	call   402080 <test_atoi_base>
  401212:	31 c0                	xor    eax,eax
  401214:	48 83 c4 10          	add    rsp,0x10
  401218:	5d                   	pop    rbp
  401219:	c3                   	ret    
  40121a:	66 0f 1f 44 00 00    	nop    WORD PTR [rax+rax*1+0x0]

0000000000401220 <test_strlen>:
  401220:	55                   	push   rbp
  401221:	48 89 e5             	mov    rbp,rsp
  401224:	48 83 ec 20          	sub    rsp,0x20
  401228:	c7 45 fc 00 00 00 00 	mov    DWORD PTR [rbp-0x4],0x0
  40122f:	48 c7 45 f0 00 00 00 	mov    QWORD PTR [rbp-0x10],0x0
  401236:	00 
  401237:	48 8b 45 f0          	mov    rax,QWORD PTR [rbp-0x10]
  40123b:	48 c7 c1 50 81 40 00 	mov    rcx,0x408150
  401242:	48 3b 01             	cmp    rax,QWORD PTR [rcx]
  401245:	0f 83 5b 00 00 00    	jae    4012a6 <test_strlen+0x86>
  40124b:	48 8b 4d f0          	mov    rcx,QWORD PTR [rbp-0x10]
  40124f:	48 c7 c0 d0 80 40 00 	mov    rax,0x4080d0
  401256:	48 8b 04 c8          	mov    rax,QWORD PTR [rax+rcx*8]
  40125a:	48 89 45 e8          	mov    QWORD PTR [rbp-0x18],rax
  40125e:	48 8b 7d e8          	mov    rdi,QWORD PTR [rbp-0x18]
  401262:	e8 f9 fd ff ff       	call   401060 <strlen@plt>
  401267:	48 89 45 e0          	mov    QWORD PTR [rbp-0x20],rax
  40126b:	48 8b 7d e8          	mov    rdi,QWORD PTR [rbp-0x18]
  40126f:	e8 fc 1a 00 00       	call   402d70 <ft_strlen>
  401274:	48 89 c1             	mov    rcx,rax
  401277:	48 8b 45 e0          	mov    rax,QWORD PTR [rbp-0x20]
  40127b:	48 39 c8             	cmp    rax,rcx
  40127e:	0f 85 05 00 00 00    	jne    401289 <test_strlen+0x69>
  401284:	e9 0c 00 00 00       	jmp    401295 <test_strlen+0x75>
  401289:	c7 45 fc 01 00 00 00 	mov    DWORD PTR [rbp-0x4],0x1
  401290:	e9 11 00 00 00       	jmp    4012a6 <test_strlen+0x86>
  401295:	48 8b 45 f0          	mov    rax,QWORD PTR [rbp-0x10]
  401299:	48 83 c0 01          	add    rax,0x1
  40129d:	48 89 45 f0          	mov    QWORD PTR [rbp-0x10],rax
  4012a1:	e9 91 ff ff ff       	jmp    401237 <test_strlen+0x17>
  4012a6:	83 7d fc 00          	cmp    DWORD PTR [rbp-0x4],0x0
  4012aa:	0f 84 1a 00 00 00    	je     4012ca <test_strlen+0xaa>
  4012b0:	48 8d 3d a0 2d 00 00 	lea    rdi,[rip+0x2da0]        # 404057 <_IO_stdin_used+0x57>
  4012b7:	48 8d 35 a2 2d 00 00 	lea    rsi,[rip+0x2da2]        # 404060 <_IO_stdin_used+0x60>
  4012be:	b0 00                	mov    al,0x0
  4012c0:	e8 ab fd ff ff       	call   401070 <printf@plt>
  4012c5:	e9 15 00 00 00       	jmp    4012df <test_strlen+0xbf>
  4012ca:	48 8d 3d 9b 2d 00 00 	lea    rdi,[rip+0x2d9b]        # 40406c <_IO_stdin_used+0x6c>
  4012d1:	48 8d 35 88 2d 00 00 	lea    rsi,[rip+0x2d88]        # 404060 <_IO_stdin_used+0x60>
  4012d8:	b0 00                	mov    al,0x0
  4012da:	e8 91 fd ff ff       	call   401070 <printf@plt>
  4012df:	48 83 c4 20          	add    rsp,0x20
  4012e3:	5d                   	pop    rbp
  4012e4:	c3                   	ret    
  4012e5:	66 2e 0f 1f 84 00 00 	cs nop WORD PTR [rax+rax*1+0x0]
  4012ec:	00 00 00 
  4012ef:	90                   	nop

00000000004012f0 <test_strcpy>:
  4012f0:	55                   	push   rbp
  4012f1:	48 89 e5             	mov    rbp,rsp
  4012f4:	48 81 ec 20 08 00 00 	sub    rsp,0x820
  4012fb:	c7 85 fc f7 ff ff 00 	mov    DWORD PTR [rbp-0x804],0x0
  401302:	00 00 00 
  401305:	48 c7 85 f0 f7 ff ff 	mov    QWORD PTR [rbp-0x810],0x0
  40130c:	00 00 00 00 
  401310:	48 8b 85 f0 f7 ff ff 	mov    rax,QWORD PTR [rbp-0x810]
  401317:	48 c7 c1 50 81 40 00 	mov    rcx,0x408150
  40131e:	48 3b 01             	cmp    rax,QWORD PTR [rcx]
  401321:	0f 83 a2 00 00 00    	jae    4013c9 <test_strcpy+0xd9>
  401327:	48 8b 8d f0 f7 ff ff 	mov    rcx,QWORD PTR [rbp-0x810]
  40132e:	48 c7 c0 d0 80 40 00 	mov    rax,0x4080d0
  401335:	48 8b 04 c8          	mov    rax,QWORD PTR [rax+rcx*8]
  401339:	48 89 85 e8 f7 ff ff 	mov    QWORD PTR [rbp-0x818],rax
  401340:	48 8b 85 e8 f7 ff ff 	mov    rax,QWORD PTR [rbp-0x818]
  401347:	48 c7 c1 48 81 40 00 	mov    rcx,0x408148
  40134e:	48 3b 01             	cmp    rax,QWORD PTR [rcx]
  401351:	0f 85 05 00 00 00    	jne    40135c <test_strcpy+0x6c>
  401357:	e9 56 00 00 00       	jmp    4013b2 <test_strcpy+0xc2>
  40135c:	48 8d bd 00 fc ff ff 	lea    rdi,[rbp-0x400]
  401363:	48 8b b5 e8 f7 ff ff 	mov    rsi,QWORD PTR [rbp-0x818]
  40136a:	e8 d1 fc ff ff       	call   401040 <strcpy@plt>
  40136f:	48 8d bd 00 f8 ff ff 	lea    rdi,[rbp-0x800]
  401376:	48 8b b5 e8 f7 ff ff 	mov    rsi,QWORD PTR [rbp-0x818]
  40137d:	e8 0e 1a 00 00       	call   402d90 <ft_strcpy>
  401382:	48 8d bd 00 fc ff ff 	lea    rdi,[rbp-0x400]
  401389:	48 8d b5 00 f8 ff ff 	lea    rsi,[rbp-0x800]
  401390:	e8 3b fd ff ff       	call   4010d0 <strcmp@plt>
  401395:	83 f8 00             	cmp    eax,0x0
  401398:	0f 85 05 00 00 00    	jne    4013a3 <test_strcpy+0xb3>
  40139e:	e9 0f 00 00 00       	jmp    4013b2 <test_strcpy+0xc2>
  4013a3:	c7 85 fc f7 ff ff 01 	mov    DWORD PTR [rbp-0x804],0x1
  4013aa:	00 00 00 
  4013ad:	e9 17 00 00 00       	jmp    4013c9 <test_strcpy+0xd9>
  4013b2:	48 8b 85 f0 f7 ff ff 	mov    rax,QWORD PTR [rbp-0x810]
  4013b9:	48 83 c0 01          	add    rax,0x1
  4013bd:	48 89 85 f0 f7 ff ff 	mov    QWORD PTR [rbp-0x810],rax
  4013c4:	e9 47 ff ff ff       	jmp    401310 <test_strcpy+0x20>
  4013c9:	83 bd fc f7 ff ff 00 	cmp    DWORD PTR [rbp-0x804],0x0
  4013d0:	0f 84 1a 00 00 00    	je     4013f0 <test_strcpy+0x100>
  4013d6:	48 8d 3d 7a 2c 00 00 	lea    rdi,[rip+0x2c7a]        # 404057 <_IO_stdin_used+0x57>
  4013dd:	48 8d 35 94 2c 00 00 	lea    rsi,[rip+0x2c94]        # 404078 <_IO_stdin_used+0x78>
  4013e4:	b0 00                	mov    al,0x0
  4013e6:	e8 85 fc ff ff       	call   401070 <printf@plt>
  4013eb:	e9 15 00 00 00       	jmp    401405 <test_strcpy+0x115>
  4013f0:	48 8d 3d 75 2c 00 00 	lea    rdi,[rip+0x2c75]        # 40406c <_IO_stdin_used+0x6c>
  4013f7:	48 8d 35 7a 2c 00 00 	lea    rsi,[rip+0x2c7a]        # 404078 <_IO_stdin_used+0x78>
  4013fe:	b0 00                	mov    al,0x0
  401400:	e8 6b fc ff ff       	call   401070 <printf@plt>
  401405:	48 81 c4 20 08 00 00 	add    rsp,0x820
  40140c:	5d                   	pop    rbp
  40140d:	c3                   	ret    
  40140e:	66 90                	xchg   ax,ax

0000000000401410 <test_strcmp>:
  401410:	55                   	push   rbp
  401411:	48 89 e5             	mov    rbp,rsp
  401414:	48 83 ec 30          	sub    rsp,0x30
  401418:	c7 45 fc 00 00 00 00 	mov    DWORD PTR [rbp-0x4],0x0
  40141f:	48 c7 45 f0 00 00 00 	mov    QWORD PTR [rbp-0x10],0x0
  401426:	00 
  401427:	48 8b 45 f0          	mov    rax,QWORD PTR [rbp-0x10]
  40142b:	48 c7 c1 50 81 40 00 	mov    rcx,0x408150
  401432:	48 3b 01             	cmp    rax,QWORD PTR [rcx]
  401435:	0f 83 a4 00 00 00    	jae    4014df <test_strcmp+0xcf>
  40143b:	48 c7 45 e8 00 00 00 	mov    QWORD PTR [rbp-0x18],0x0
  401442:	00 
  401443:	48 8b 45 e8          	mov    rax,QWORD PTR [rbp-0x18]
  401447:	48 c7 c1 50 81 40 00 	mov    rcx,0x408150
  40144e:	48 3b 01             	cmp    rax,QWORD PTR [rcx]
  401451:	0f 83 72 00 00 00    	jae    4014c9 <test_strcmp+0xb9>
  401457:	48 8b 4d f0          	mov    rcx,QWORD PTR [rbp-0x10]
  40145b:	48 c7 c0 d0 80 40 00 	mov    rax,0x4080d0
  401462:	48 8b 04 c8          	mov    rax,QWORD PTR [rax+rcx*8]
  401466:	48 89 45 e0          	mov    QWORD PTR [rbp-0x20],rax
  40146a:	48 8b 4d e8          	mov    rcx,QWORD PTR [rbp-0x18]
  40146e:	48 c7 c0 d0 80 40 00 	mov    rax,0x4080d0
  401475:	48 8b 04 c8          	mov    rax,QWORD PTR [rax+rcx*8]
  401479:	48 89 45 d8          	mov    QWORD PTR [rbp-0x28],rax
  40147d:	48 8b 7d e0          	mov    rdi,QWORD PTR [rbp-0x20]
  401481:	48 8b 75 d8          	mov    rsi,QWORD PTR [rbp-0x28]
  401485:	e8 46 fc ff ff       	call   4010d0 <strcmp@plt>
  40148a:	89 45 d4             	mov    DWORD PTR [rbp-0x2c],eax
  40148d:	48 8b 7d e0          	mov    rdi,QWORD PTR [rbp-0x20]
  401491:	48 8b 75 d8          	mov    rsi,QWORD PTR [rbp-0x28]
  401495:	e8 16 19 00 00       	call   402db0 <ft_strcmp>
  40149a:	89 c1                	mov    ecx,eax
  40149c:	8b 45 d4             	mov    eax,DWORD PTR [rbp-0x2c]
  40149f:	39 c8                	cmp    eax,ecx
  4014a1:	0f 85 05 00 00 00    	jne    4014ac <test_strcmp+0x9c>
  4014a7:	e9 0c 00 00 00       	jmp    4014b8 <test_strcmp+0xa8>
  4014ac:	c7 45 fc 01 00 00 00 	mov    DWORD PTR [rbp-0x4],0x1
  4014b3:	e9 11 00 00 00       	jmp    4014c9 <test_strcmp+0xb9>
  4014b8:	48 8b 45 e8          	mov    rax,QWORD PTR [rbp-0x18]
  4014bc:	48 83 c0 01          	add    rax,0x1
  4014c0:	48 89 45 e8          	mov    QWORD PTR [rbp-0x18],rax
  4014c4:	e9 7a ff ff ff       	jmp    401443 <test_strcmp+0x33>
  4014c9:	e9 00 00 00 00       	jmp    4014ce <test_strcmp+0xbe>
  4014ce:	48 8b 45 f0          	mov    rax,QWORD PTR [rbp-0x10]
  4014d2:	48 83 c0 01          	add    rax,0x1
  4014d6:	48 89 45 f0          	mov    QWORD PTR [rbp-0x10],rax
  4014da:	e9 48 ff ff ff       	jmp    401427 <test_strcmp+0x17>
  4014df:	83 7d fc 00          	cmp    DWORD PTR [rbp-0x4],0x0
  4014e3:	0f 84 1a 00 00 00    	je     401503 <test_strcmp+0xf3>
  4014e9:	48 8d 3d 67 2b 00 00 	lea    rdi,[rip+0x2b67]        # 404057 <_IO_stdin_used+0x57>
  4014f0:	48 8d 35 8d 2b 00 00 	lea    rsi,[rip+0x2b8d]        # 404084 <_IO_stdin_used+0x84>
  4014f7:	b0 00                	mov    al,0x0
  4014f9:	e8 72 fb ff ff       	call   401070 <printf@plt>
  4014fe:	e9 15 00 00 00       	jmp    401518 <test_strcmp+0x108>
  401503:	48 8d 3d 62 2b 00 00 	lea    rdi,[rip+0x2b62]        # 40406c <_IO_stdin_used+0x6c>
  40150a:	48 8d 35 73 2b 00 00 	lea    rsi,[rip+0x2b73]        # 404084 <_IO_stdin_used+0x84>
  401511:	b0 00                	mov    al,0x0
  401513:	e8 58 fb ff ff       	call   401070 <printf@plt>
  401518:	48 83 c4 30          	add    rsp,0x30
  40151c:	5d                   	pop    rbp
  40151d:	c3                   	ret    
  40151e:	66 90                	xchg   ax,ax

0000000000401520 <test_strdup>:
  401520:	55                   	push   rbp
  401521:	48 89 e5             	mov    rbp,rsp
  401524:	48 83 ec 30          	sub    rsp,0x30
  401528:	c7 45 fc 00 00 00 00 	mov    DWORD PTR [rbp-0x4],0x0
  40152f:	48 c7 45 f0 00 00 00 	mov    QWORD PTR [rbp-0x10],0x0
  401536:	00 
  401537:	48 8b 45 f0          	mov    rax,QWORD PTR [rbp-0x10]
  40153b:	48 c7 c1 50 81 40 00 	mov    rcx,0x408150
  401542:	48 3b 01             	cmp    rax,QWORD PTR [rcx]
  401545:	0f 83 a9 00 00 00    	jae    4015f4 <test_strdup+0xd4>
  40154b:	48 8b 4d f0          	mov    rcx,QWORD PTR [rbp-0x10]
  40154f:	48 c7 c0 d0 80 40 00 	mov    rax,0x4080d0
  401556:	48 8b 04 c8          	mov    rax,QWORD PTR [rax+rcx*8]
  40155a:	48 89 45 e8          	mov    QWORD PTR [rbp-0x18],rax
  40155e:	48 8b 7d e8          	mov    rdi,QWORD PTR [rbp-0x18]
  401562:	e8 a9 fb ff ff       	call   401110 <strdup@plt>
  401567:	48 89 45 e0          	mov    QWORD PTR [rbp-0x20],rax
  40156b:	48 8b 7d e8          	mov    rdi,QWORD PTR [rbp-0x18]
  40156f:	e8 7c 18 00 00       	call   402df0 <ft_strdup>
  401574:	48 89 45 d8          	mov    QWORD PTR [rbp-0x28],rax
  401578:	48 8b 7d e0          	mov    rdi,QWORD PTR [rbp-0x20]
  40157c:	48 8b 75 d8          	mov    rsi,QWORD PTR [rbp-0x28]
  401580:	e8 4b fb ff ff       	call   4010d0 <strcmp@plt>
  401585:	89 c1                	mov    ecx,eax
  401587:	31 c0                	xor    eax,eax
  401589:	83 f9 00             	cmp    ecx,0x0
  40158c:	88 45 d3             	mov    BYTE PTR [rbp-0x2d],al
  40158f:	0f 85 16 00 00 00    	jne    4015ab <test_strdup+0x8b>
  401595:	48 8b 7d e0          	mov    rdi,QWORD PTR [rbp-0x20]
  401599:	48 8b 75 d8          	mov    rsi,QWORD PTR [rbp-0x28]
  40159d:	e8 0e 18 00 00       	call   402db0 <ft_strcmp>
  4015a2:	83 f8 00             	cmp    eax,0x0
  4015a5:	0f 94 c0             	sete   al
  4015a8:	88 45 d3             	mov    BYTE PTR [rbp-0x2d],al
  4015ab:	8a 45 d3             	mov    al,BYTE PTR [rbp-0x2d]
  4015ae:	24 01                	and    al,0x1
  4015b0:	0f b6 c0             	movzx  eax,al
  4015b3:	89 45 d4             	mov    DWORD PTR [rbp-0x2c],eax
  4015b6:	48 8b 7d e0          	mov    rdi,QWORD PTR [rbp-0x20]
  4015ba:	e8 51 fa ff ff       	call   401010 <free@plt>
  4015bf:	48 8b 7d d8          	mov    rdi,QWORD PTR [rbp-0x28]
  4015c3:	e8 48 fa ff ff       	call   401010 <free@plt>
  4015c8:	83 7d d4 00          	cmp    DWORD PTR [rbp-0x2c],0x0
  4015cc:	0f 84 05 00 00 00    	je     4015d7 <test_strdup+0xb7>
  4015d2:	e9 0c 00 00 00       	jmp    4015e3 <test_strdup+0xc3>
  4015d7:	c7 45 fc 01 00 00 00 	mov    DWORD PTR [rbp-0x4],0x1
  4015de:	e9 11 00 00 00       	jmp    4015f4 <test_strdup+0xd4>
  4015e3:	48 8b 45 f0          	mov    rax,QWORD PTR [rbp-0x10]
  4015e7:	48 83 c0 01          	add    rax,0x1
  4015eb:	48 89 45 f0          	mov    QWORD PTR [rbp-0x10],rax
  4015ef:	e9 43 ff ff ff       	jmp    401537 <test_strdup+0x17>
  4015f4:	83 7d fc 00          	cmp    DWORD PTR [rbp-0x4],0x0
  4015f8:	0f 84 1a 00 00 00    	je     401618 <test_strdup+0xf8>
  4015fe:	48 8d 3d 52 2a 00 00 	lea    rdi,[rip+0x2a52]        # 404057 <_IO_stdin_used+0x57>
  401605:	48 8d 35 84 2a 00 00 	lea    rsi,[rip+0x2a84]        # 404090 <_IO_stdin_used+0x90>
  40160c:	b0 00                	mov    al,0x0
  40160e:	e8 5d fa ff ff       	call   401070 <printf@plt>
  401613:	e9 15 00 00 00       	jmp    40162d <test_strdup+0x10d>
  401618:	48 8d 3d 4d 2a 00 00 	lea    rdi,[rip+0x2a4d]        # 40406c <_IO_stdin_used+0x6c>
  40161f:	48 8d 35 6a 2a 00 00 	lea    rsi,[rip+0x2a6a]        # 404090 <_IO_stdin_used+0x90>
  401626:	b0 00                	mov    al,0x0
  401628:	e8 43 fa ff ff       	call   401070 <printf@plt>
  40162d:	48 83 c4 30          	add    rsp,0x30
  401631:	5d                   	pop    rbp
  401632:	c3                   	ret    
  401633:	66 2e 0f 1f 84 00 00 	cs nop WORD PTR [rax+rax*1+0x0]
  40163a:	00 00 00 
  40163d:	0f 1f 00             	nop    DWORD PTR [rax]

0000000000401640 <test_read_normal>:
  401640:	55                   	push   rbp
  401641:	48 89 e5             	mov    rbp,rsp
  401644:	48 81 ec 60 08 00 00 	sub    rsp,0x860
  40164b:	c7 45 fc 00 00 00 00 	mov    DWORD PTR [rbp-0x4],0x0
  401652:	48 8d 7d f4          	lea    rdi,[rbp-0xc]
  401656:	e8 55 fa ff ff       	call   4010b0 <pipe@plt>
  40165b:	83 f8 00             	cmp    eax,0x0
  40165e:	0f 8d 13 00 00 00    	jge    401677 <test_read_normal+0x37>
  401664:	48 8d 3d 31 2a 00 00 	lea    rdi,[rip+0x2a31]        # 40409c <_IO_stdin_used+0x9c>
  40166b:	b0 00                	mov    al,0x0
  40166d:	e8 fe f9 ff ff       	call   401070 <printf@plt>
  401672:	e9 84 02 00 00       	jmp    4018fb <test_read_normal+0x2bb>
  401677:	48 8d 45 f4          	lea    rax,[rbp-0xc]
  40167b:	48 89 85 e8 f7 ff ff 	mov    QWORD PTR [rbp-0x818],rax
  401682:	48 c7 85 e0 f7 ff ff 	mov    QWORD PTR [rbp-0x820],0x0
  401689:	00 00 00 00 
  40168d:	48 8b 85 e0 f7 ff ff 	mov    rax,QWORD PTR [rbp-0x820]
  401694:	48 c7 c1 50 81 40 00 	mov    rcx,0x408150
  40169b:	48 3b 01             	cmp    rax,QWORD PTR [rcx]
  40169e:	0f 83 01 02 00 00    	jae    4018a5 <test_read_normal+0x265>
  4016a4:	48 8b 8d e0 f7 ff ff 	mov    rcx,QWORD PTR [rbp-0x820]
  4016ab:	48 c7 c0 d0 80 40 00 	mov    rax,0x4080d0
  4016b2:	48 8b 04 c8          	mov    rax,QWORD PTR [rax+rcx*8]
  4016b6:	48 89 85 d8 f7 ff ff 	mov    QWORD PTR [rbp-0x828],rax
  4016bd:	48 8b 85 d8 f7 ff ff 	mov    rax,QWORD PTR [rbp-0x828]
  4016c4:	48 c7 c1 48 81 40 00 	mov    rcx,0x408148
  4016cb:	48 3b 01             	cmp    rax,QWORD PTR [rcx]
  4016ce:	0f 85 05 00 00 00    	jne    4016d9 <test_read_normal+0x99>
  4016d4:	e9 b5 01 00 00       	jmp    40188e <test_read_normal+0x24e>
  4016d9:	48 8b bd d8 f7 ff ff 	mov    rdi,QWORD PTR [rbp-0x828]
  4016e0:	e8 7b f9 ff ff       	call   401060 <strlen@plt>
  4016e5:	48 89 85 d0 f7 ff ff 	mov    QWORD PTR [rbp-0x830],rax
  4016ec:	48 8d bd f0 fb ff ff 	lea    rdi,[rbp-0x410]
  4016f3:	31 f6                	xor    esi,esi
  4016f5:	ba 00 04 00 00       	mov    edx,0x400
  4016fa:	e8 91 f9 ff ff       	call   401090 <memset@plt>
  4016ff:	48 8d bd f0 f7 ff ff 	lea    rdi,[rbp-0x810]
  401706:	31 f6                	xor    esi,esi
  401708:	ba 00 04 00 00       	mov    edx,0x400
  40170d:	e8 7e f9 ff ff       	call   401090 <memset@plt>
  401712:	e8 09 f9 ff ff       	call   401020 <__errno_location@plt>
  401717:	c7 00 00 00 00 00    	mov    DWORD PTR [rax],0x0
  40171d:	48 8b 85 e8 f7 ff ff 	mov    rax,QWORD PTR [rbp-0x818]
  401724:	8b 78 04             	mov    edi,DWORD PTR [rax+0x4]
  401727:	48 8b b5 d8 f7 ff ff 	mov    rsi,QWORD PTR [rbp-0x828]
  40172e:	48 8b 95 d0 f7 ff ff 	mov    rdx,QWORD PTR [rbp-0x830]
  401735:	e8 16 f9 ff ff       	call   401050 <write@plt>
  40173a:	48 8b 85 e8 f7 ff ff 	mov    rax,QWORD PTR [rbp-0x818]
  401741:	8b 38                	mov    edi,DWORD PTR [rax]
  401743:	48 8d b5 f0 fb ff ff 	lea    rsi,[rbp-0x410]
  40174a:	48 8b 95 d0 f7 ff ff 	mov    rdx,QWORD PTR [rbp-0x830]
  401751:	e8 6a f9 ff ff       	call   4010c0 <read@plt>
  401756:	48 89 85 c8 f7 ff ff 	mov    QWORD PTR [rbp-0x838],rax
  40175d:	e8 be f8 ff ff       	call   401020 <__errno_location@plt>
  401762:	8b 00                	mov    eax,DWORD PTR [rax]
  401764:	89 85 bc f7 ff ff    	mov    DWORD PTR [rbp-0x844],eax
  40176a:	e8 b1 f8 ff ff       	call   401020 <__errno_location@plt>
  40176f:	c7 00 00 00 00 00    	mov    DWORD PTR [rax],0x0
  401775:	48 8b 85 e8 f7 ff ff 	mov    rax,QWORD PTR [rbp-0x818]
  40177c:	8b 78 04             	mov    edi,DWORD PTR [rax+0x4]
  40177f:	48 8b b5 d8 f7 ff ff 	mov    rsi,QWORD PTR [rbp-0x828]
  401786:	48 8b 95 d0 f7 ff ff 	mov    rdx,QWORD PTR [rbp-0x830]
  40178d:	e8 be f8 ff ff       	call   401050 <write@plt>
  401792:	48 8b 85 e8 f7 ff ff 	mov    rax,QWORD PTR [rbp-0x818]
  401799:	8b 38                	mov    edi,DWORD PTR [rax]
  40179b:	48 8d b5 f0 f7 ff ff 	lea    rsi,[rbp-0x810]
  4017a2:	48 8b 95 d0 f7 ff ff 	mov    rdx,QWORD PTR [rbp-0x830]
  4017a9:	e8 82 16 00 00       	call   402e30 <ft_read>
  4017ae:	48 89 85 c0 f7 ff ff 	mov    QWORD PTR [rbp-0x840],rax
  4017b5:	e8 66 f8 ff ff       	call   401020 <__errno_location@plt>
  4017ba:	8b 00                	mov    eax,DWORD PTR [rax]
  4017bc:	89 85 b8 f7 ff ff    	mov    DWORD PTR [rbp-0x848],eax
  4017c2:	48 8d bd f0 fb ff ff 	lea    rdi,[rbp-0x410]
  4017c9:	48 8d b5 f0 f7 ff ff 	lea    rsi,[rbp-0x810]
  4017d0:	e8 fb f8 ff ff       	call   4010d0 <strcmp@plt>
  4017d5:	83 f8 00             	cmp    eax,0x0
  4017d8:	0f 85 2b 00 00 00    	jne    401809 <test_read_normal+0x1c9>
  4017de:	8b 85 bc f7 ff ff    	mov    eax,DWORD PTR [rbp-0x844]
  4017e4:	3b 85 b8 f7 ff ff    	cmp    eax,DWORD PTR [rbp-0x848]
  4017ea:	0f 85 19 00 00 00    	jne    401809 <test_read_normal+0x1c9>
  4017f0:	48 8b 85 c8 f7 ff ff 	mov    rax,QWORD PTR [rbp-0x838]
  4017f7:	48 3b 85 c0 f7 ff ff 	cmp    rax,QWORD PTR [rbp-0x840]
  4017fe:	0f 85 05 00 00 00    	jne    401809 <test_read_normal+0x1c9>
  401804:	e9 85 00 00 00       	jmp    40188e <test_read_normal+0x24e>
  401809:	48 8b b5 e0 f7 ff ff 	mov    rsi,QWORD PTR [rbp-0x820]
  401810:	48 83 c6 01          	add    rsi,0x1
  401814:	48 8d 3d 8e 28 00 00 	lea    rdi,[rip+0x288e]        # 4040a9 <_IO_stdin_used+0xa9>
  40181b:	b0 00                	mov    al,0x0
  40181d:	e8 4e f8 ff ff       	call   401070 <printf@plt>
  401822:	8b bd bc f7 ff ff    	mov    edi,DWORD PTR [rbp-0x844]
  401828:	e8 f3 f8 ff ff       	call   401120 <strerror@plt>
  40182d:	48 89 85 a8 f7 ff ff 	mov    QWORD PTR [rbp-0x858],rax
  401834:	8b 85 bc f7 ff ff    	mov    eax,DWORD PTR [rbp-0x844]
  40183a:	89 85 b4 f7 ff ff    	mov    DWORD PTR [rbp-0x84c],eax
  401840:	8b bd b8 f7 ff ff    	mov    edi,DWORD PTR [rbp-0x848]
  401846:	e8 d5 f8 ff ff       	call   401120 <strerror@plt>
  40184b:	48 8b b5 a8 f7 ff ff 	mov    rsi,QWORD PTR [rbp-0x858]
  401852:	8b 95 b4 f7 ff ff    	mov    edx,DWORD PTR [rbp-0x84c]
  401858:	48 89 c1             	mov    rcx,rax
  40185b:	44 8b 85 b8 f7 ff ff 	mov    r8d,DWORD PTR [rbp-0x848]
  401862:	4c 8b 8d c8 f7 ff ff 	mov    r9,QWORD PTR [rbp-0x838]
  401869:	48 8b 85 c0 f7 ff ff 	mov    rax,QWORD PTR [rbp-0x840]
  401870:	48 8d 3d 38 28 00 00 	lea    rdi,[rip+0x2838]        # 4040af <_IO_stdin_used+0xaf>
  401877:	48 89 04 24          	mov    QWORD PTR [rsp],rax
  40187b:	b0 00                	mov    al,0x0
  40187d:	e8 ee f7 ff ff       	call   401070 <printf@plt>
  401882:	c7 45 fc 01 00 00 00 	mov    DWORD PTR [rbp-0x4],0x1
  401889:	e9 17 00 00 00       	jmp    4018a5 <test_read_normal+0x265>
  40188e:	48 8b 85 e0 f7 ff ff 	mov    rax,QWORD PTR [rbp-0x820]
  401895:	48 83 c0 01          	add    rax,0x1
  401899:	48 89 85 e0 f7 ff ff 	mov    QWORD PTR [rbp-0x820],rax
  4018a0:	e9 e8 fd ff ff       	jmp    40168d <test_read_normal+0x4d>
  4018a5:	48 8b 85 e8 f7 ff ff 	mov    rax,QWORD PTR [rbp-0x818]
  4018ac:	8b 78 04             	mov    edi,DWORD PTR [rax+0x4]
  4018af:	e8 ec f7 ff ff       	call   4010a0 <close@plt>
  4018b4:	48 8b 85 e8 f7 ff ff 	mov    rax,QWORD PTR [rbp-0x818]
  4018bb:	8b 38                	mov    edi,DWORD PTR [rax]
  4018bd:	e8 de f7 ff ff       	call   4010a0 <close@plt>
  4018c2:	83 7d fc 00          	cmp    DWORD PTR [rbp-0x4],0x0
  4018c6:	0f 84 1a 00 00 00    	je     4018e6 <test_read_normal+0x2a6>
  4018cc:	48 8d 3d 84 27 00 00 	lea    rdi,[rip+0x2784]        # 404057 <_IO_stdin_used+0x57>
  4018d3:	48 8d 35 fe 27 00 00 	lea    rsi,[rip+0x27fe]        # 4040d8 <_IO_stdin_used+0xd8>
  4018da:	b0 00                	mov    al,0x0
  4018dc:	e8 8f f7 ff ff       	call   401070 <printf@plt>
  4018e1:	e9 15 00 00 00       	jmp    4018fb <test_read_normal+0x2bb>
  4018e6:	48 8d 3d 7f 27 00 00 	lea    rdi,[rip+0x277f]        # 40406c <_IO_stdin_used+0x6c>
  4018ed:	48 8d 35 e4 27 00 00 	lea    rsi,[rip+0x27e4]        # 4040d8 <_IO_stdin_used+0xd8>
  4018f4:	b0 00                	mov    al,0x0
  4018f6:	e8 75 f7 ff ff       	call   401070 <printf@plt>
  4018fb:	48 81 c4 60 08 00 00 	add    rsp,0x860
  401902:	5d                   	pop    rbp
  401903:	c3                   	ret    
  401904:	66 2e 0f 1f 84 00 00 	cs nop WORD PTR [rax+rax*1+0x0]
  40190b:	00 00 00 
  40190e:	66 90                	xchg   ax,ax

0000000000401910 <test_read_error>:
  401910:	55                   	push   rbp
  401911:	48 89 e5             	mov    rbp,rsp
  401914:	48 81 ec 90 00 00 00 	sub    rsp,0x90
  40191b:	48 8b 05 0e 28 00 00 	mov    rax,QWORD PTR [rip+0x280e]        # 404130 <_IO_stdin_used+0x130>
  401922:	48 89 45 e0          	mov    QWORD PTR [rbp-0x20],rax
  401926:	48 8b 05 0b 28 00 00 	mov    rax,QWORD PTR [rip+0x280b]        # 404138 <_IO_stdin_used+0x138>
  40192d:	48 89 45 e8          	mov    QWORD PTR [rbp-0x18],rax
  401931:	8b 05 09 28 00 00    	mov    eax,DWORD PTR [rip+0x2809]        # 404140 <_IO_stdin_used+0x140>
  401937:	89 45 f0             	mov    DWORD PTR [rbp-0x10],eax
  40193a:	c7 45 dc 05 00 00 00 	mov    DWORD PTR [rbp-0x24],0x5
  401941:	48 8d 7d d4          	lea    rdi,[rbp-0x2c]
  401945:	31 f6                	xor    esi,esi
  401947:	ba 08 00 00 00       	mov    edx,0x8
  40194c:	e8 3f f7 ff ff       	call   401090 <memset@plt>
  401951:	c7 45 d0 00 00 00 00 	mov    DWORD PTR [rbp-0x30],0x0
  401958:	8b 45 d0             	mov    eax,DWORD PTR [rbp-0x30]
  40195b:	3b 45 dc             	cmp    eax,DWORD PTR [rbp-0x24]
  40195e:	0f 8d ed 00 00 00    	jge    401a51 <test_read_error+0x141>
  401964:	e8 b7 f6 ff ff       	call   401020 <__errno_location@plt>
  401969:	c7 00 00 00 00 00    	mov    DWORD PTR [rax],0x0
  40196f:	48 63 45 d0          	movsxd rax,DWORD PTR [rbp-0x30]
  401973:	8b 7c 85 e0          	mov    edi,DWORD PTR [rbp+rax*4-0x20]
  401977:	48 8d 75 d4          	lea    rsi,[rbp-0x2c]
  40197b:	ba 07 00 00 00       	mov    edx,0x7
  401980:	e8 3b f7 ff ff       	call   4010c0 <read@plt>
  401985:	48 89 45 c0          	mov    QWORD PTR [rbp-0x40],rax
  401989:	e8 92 f6 ff ff       	call   401020 <__errno_location@plt>
  40198e:	8b 00                	mov    eax,DWORD PTR [rax]
  401990:	89 45 cc             	mov    DWORD PTR [rbp-0x34],eax
  401993:	e8 88 f6 ff ff       	call   401020 <__errno_location@plt>
  401998:	c7 00 00 00 00 00    	mov    DWORD PTR [rax],0x0
  40199e:	48 63 45 d0          	movsxd rax,DWORD PTR [rbp-0x30]
  4019a2:	8b 7c 85 e0          	mov    edi,DWORD PTR [rbp+rax*4-0x20]
  4019a6:	48 8d 75 d4          	lea    rsi,[rbp-0x2c]
  4019aa:	ba 07 00 00 00       	mov    edx,0x7
  4019af:	e8 7c 14 00 00       	call   402e30 <ft_read>
  4019b4:	48 89 45 b8          	mov    QWORD PTR [rbp-0x48],rax
  4019b8:	e8 63 f6 ff ff       	call   401020 <__errno_location@plt>
  4019bd:	8b 00                	mov    eax,DWORD PTR [rax]
  4019bf:	89 45 c8             	mov    DWORD PTR [rbp-0x38],eax
  4019c2:	8b 45 cc             	mov    eax,DWORD PTR [rbp-0x34]
  4019c5:	3b 45 c8             	cmp    eax,DWORD PTR [rbp-0x38]
  4019c8:	0f 85 13 00 00 00    	jne    4019e1 <test_read_error+0xd1>
  4019ce:	48 8b 45 c0          	mov    rax,QWORD PTR [rbp-0x40]
  4019d2:	48 3b 45 b8          	cmp    rax,QWORD PTR [rbp-0x48]
  4019d6:	0f 85 05 00 00 00    	jne    4019e1 <test_read_error+0xd1>
  4019dc:	e9 62 00 00 00       	jmp    401a43 <test_read_error+0x133>
  4019e1:	8b 75 d0             	mov    esi,DWORD PTR [rbp-0x30]
  4019e4:	83 c6 01             	add    esi,0x1
  4019e7:	48 8d 3d fb 26 00 00 	lea    rdi,[rip+0x26fb]        # 4040e9 <_IO_stdin_used+0xe9>
  4019ee:	b0 00                	mov    al,0x0
  4019f0:	e8 7b f6 ff ff       	call   401070 <printf@plt>
  4019f5:	8b 7d cc             	mov    edi,DWORD PTR [rbp-0x34]
  4019f8:	e8 23 f7 ff ff       	call   401120 <strerror@plt>
  4019fd:	48 89 45 90          	mov    QWORD PTR [rbp-0x70],rax
  401a01:	8b 45 cc             	mov    eax,DWORD PTR [rbp-0x34]
  401a04:	89 45 9c             	mov    DWORD PTR [rbp-0x64],eax
  401a07:	8b 7d c8             	mov    edi,DWORD PTR [rbp-0x38]
  401a0a:	e8 11 f7 ff ff       	call   401120 <strerror@plt>
  401a0f:	48 8b 75 90          	mov    rsi,QWORD PTR [rbp-0x70]
  401a13:	8b 55 9c             	mov    edx,DWORD PTR [rbp-0x64]
  401a16:	48 89 c1             	mov    rcx,rax
  401a19:	44 8b 45 c8          	mov    r8d,DWORD PTR [rbp-0x38]
  401a1d:	4c 8b 4d c0          	mov    r9,QWORD PTR [rbp-0x40]
  401a21:	48 8b 45 b8          	mov    rax,QWORD PTR [rbp-0x48]
  401a25:	48 8d 3d 83 26 00 00 	lea    rdi,[rip+0x2683]        # 4040af <_IO_stdin_used+0xaf>
  401a2c:	48 89 04 24          	mov    QWORD PTR [rsp],rax
  401a30:	b0 00                	mov    al,0x0
  401a32:	e8 39 f6 ff ff       	call   401070 <printf@plt>
  401a37:	c7 45 fc 01 00 00 00 	mov    DWORD PTR [rbp-0x4],0x1
  401a3e:	e9 0e 00 00 00       	jmp    401a51 <test_read_error+0x141>
  401a43:	8b 45 d0             	mov    eax,DWORD PTR [rbp-0x30]
  401a46:	83 c0 01             	add    eax,0x1
  401a49:	89 45 d0             	mov    DWORD PTR [rbp-0x30],eax
  401a4c:	e9 07 ff ff ff       	jmp    401958 <test_read_error+0x48>
  401a51:	e8 ca f5 ff ff       	call   401020 <__errno_location@plt>
  401a56:	c7 00 00 00 00 00    	mov    DWORD PTR [rax],0x0
  401a5c:	48 8d 75 d4          	lea    rsi,[rbp-0x2c]
  401a60:	31 ff                	xor    edi,edi
  401a62:	48 c7 c2 ff ff ff ff 	mov    rdx,0xffffffffffffffff
  401a69:	e8 52 f6 ff ff       	call   4010c0 <read@plt>
  401a6e:	48 89 45 a8          	mov    QWORD PTR [rbp-0x58],rax
  401a72:	e8 a9 f5 ff ff       	call   401020 <__errno_location@plt>
  401a77:	8b 00                	mov    eax,DWORD PTR [rax]
  401a79:	89 45 b4             	mov    DWORD PTR [rbp-0x4c],eax
  401a7c:	e8 9f f5 ff ff       	call   401020 <__errno_location@plt>
  401a81:	c7 00 00 00 00 00    	mov    DWORD PTR [rax],0x0
  401a87:	48 8d 75 d4          	lea    rsi,[rbp-0x2c]
  401a8b:	31 ff                	xor    edi,edi
  401a8d:	48 c7 c2 ff ff ff ff 	mov    rdx,0xffffffffffffffff
  401a94:	e8 97 13 00 00       	call   402e30 <ft_read>
  401a99:	48 89 45 a0          	mov    QWORD PTR [rbp-0x60],rax
  401a9d:	e8 7e f5 ff ff       	call   401020 <__errno_location@plt>
  401aa2:	8b 00                	mov    eax,DWORD PTR [rax]
  401aa4:	89 45 b0             	mov    DWORD PTR [rbp-0x50],eax
  401aa7:	8b 45 b4             	mov    eax,DWORD PTR [rbp-0x4c]
  401aaa:	3b 45 b0             	cmp    eax,DWORD PTR [rbp-0x50]
  401aad:	0f 85 0e 00 00 00    	jne    401ac1 <test_read_error+0x1b1>
  401ab3:	48 8b 45 a8          	mov    rax,QWORD PTR [rbp-0x58]
  401ab7:	48 3b 45 a0          	cmp    rax,QWORD PTR [rbp-0x60]
  401abb:	0f 84 57 00 00 00    	je     401b18 <test_read_error+0x208>
  401ac1:	48 8d 3d 26 26 00 00 	lea    rdi,[rip+0x2626]        # 4040ee <_IO_stdin_used+0xee>
  401ac8:	b0 00                	mov    al,0x0
  401aca:	e8 a1 f5 ff ff       	call   401070 <printf@plt>
  401acf:	8b 7d b4             	mov    edi,DWORD PTR [rbp-0x4c]
  401ad2:	e8 49 f6 ff ff       	call   401120 <strerror@plt>
  401ad7:	48 89 45 80          	mov    QWORD PTR [rbp-0x80],rax
  401adb:	8b 45 b4             	mov    eax,DWORD PTR [rbp-0x4c]
  401ade:	89 45 8c             	mov    DWORD PTR [rbp-0x74],eax
  401ae1:	8b 7d b0             	mov    edi,DWORD PTR [rbp-0x50]
  401ae4:	e8 37 f6 ff ff       	call   401120 <strerror@plt>
  401ae9:	48 8b 75 80          	mov    rsi,QWORD PTR [rbp-0x80]
  401aed:	8b 55 8c             	mov    edx,DWORD PTR [rbp-0x74]
  401af0:	48 89 c1             	mov    rcx,rax
  401af3:	44 8b 45 b0          	mov    r8d,DWORD PTR [rbp-0x50]
  401af7:	4c 8b 4d a8          	mov    r9,QWORD PTR [rbp-0x58]
  401afb:	48 8b 45 a0          	mov    rax,QWORD PTR [rbp-0x60]
  401aff:	48 8d 3d a9 25 00 00 	lea    rdi,[rip+0x25a9]        # 4040af <_IO_stdin_used+0xaf>
  401b06:	48 89 04 24          	mov    QWORD PTR [rsp],rax
  401b0a:	b0 00                	mov    al,0x0
  401b0c:	e8 5f f5 ff ff       	call   401070 <printf@plt>
  401b11:	c7 45 fc 01 00 00 00 	mov    DWORD PTR [rbp-0x4],0x1
  401b18:	83 7d fc 00          	cmp    DWORD PTR [rbp-0x4],0x0
  401b1c:	0f 84 1a 00 00 00    	je     401b3c <test_read_error+0x22c>
  401b22:	48 8d 3d 2e 25 00 00 	lea    rdi,[rip+0x252e]        # 404057 <_IO_stdin_used+0x57>
  401b29:	48 8d 35 c2 25 00 00 	lea    rsi,[rip+0x25c2]        # 4040f2 <_IO_stdin_used+0xf2>
  401b30:	b0 00                	mov    al,0x0
  401b32:	e8 39 f5 ff ff       	call   401070 <printf@plt>
  401b37:	e9 15 00 00 00       	jmp    401b51 <test_read_error+0x241>
  401b3c:	48 8d 3d 29 25 00 00 	lea    rdi,[rip+0x2529]        # 40406c <_IO_stdin_used+0x6c>
  401b43:	48 8d 35 a8 25 00 00 	lea    rsi,[rip+0x25a8]        # 4040f2 <_IO_stdin_used+0xf2>
  401b4a:	b0 00                	mov    al,0x0
  401b4c:	e8 1f f5 ff ff       	call   401070 <printf@plt>
  401b51:	48 81 c4 90 00 00 00 	add    rsp,0x90
  401b58:	5d                   	pop    rbp
  401b59:	c3                   	ret    
  401b5a:	66 0f 1f 44 00 00    	nop    WORD PTR [rax+rax*1+0x0]

0000000000401b60 <test_write_normal>:
  401b60:	55                   	push   rbp
  401b61:	48 89 e5             	mov    rbp,rsp
  401b64:	48 81 ec 60 08 00 00 	sub    rsp,0x860
  401b6b:	c7 45 fc 00 00 00 00 	mov    DWORD PTR [rbp-0x4],0x0
  401b72:	48 8d 7d f4          	lea    rdi,[rbp-0xc]
  401b76:	e8 35 f5 ff ff       	call   4010b0 <pipe@plt>
  401b7b:	83 f8 00             	cmp    eax,0x0
  401b7e:	0f 8d 13 00 00 00    	jge    401b97 <test_write_normal+0x37>
  401b84:	48 8d 3d 11 25 00 00 	lea    rdi,[rip+0x2511]        # 40409c <_IO_stdin_used+0x9c>
  401b8b:	b0 00                	mov    al,0x0
  401b8d:	e8 de f4 ff ff       	call   401070 <printf@plt>
  401b92:	e9 84 02 00 00       	jmp    401e1b <test_write_normal+0x2bb>
  401b97:	48 8d 45 f4          	lea    rax,[rbp-0xc]
  401b9b:	48 89 85 e8 f7 ff ff 	mov    QWORD PTR [rbp-0x818],rax
  401ba2:	48 c7 85 e0 f7 ff ff 	mov    QWORD PTR [rbp-0x820],0x0
  401ba9:	00 00 00 00 
  401bad:	48 8b 85 e0 f7 ff ff 	mov    rax,QWORD PTR [rbp-0x820]
  401bb4:	48 c7 c1 50 81 40 00 	mov    rcx,0x408150
  401bbb:	48 3b 01             	cmp    rax,QWORD PTR [rcx]
  401bbe:	0f 83 01 02 00 00    	jae    401dc5 <test_write_normal+0x265>
  401bc4:	48 8b 8d e0 f7 ff ff 	mov    rcx,QWORD PTR [rbp-0x820]
  401bcb:	48 c7 c0 d0 80 40 00 	mov    rax,0x4080d0
  401bd2:	48 8b 04 c8          	mov    rax,QWORD PTR [rax+rcx*8]
  401bd6:	48 89 85 d8 f7 ff ff 	mov    QWORD PTR [rbp-0x828],rax
  401bdd:	48 8b 85 d8 f7 ff ff 	mov    rax,QWORD PTR [rbp-0x828]
  401be4:	48 c7 c1 48 81 40 00 	mov    rcx,0x408148
  401beb:	48 3b 01             	cmp    rax,QWORD PTR [rcx]
  401bee:	0f 85 05 00 00 00    	jne    401bf9 <test_write_normal+0x99>
  401bf4:	e9 b5 01 00 00       	jmp    401dae <test_write_normal+0x24e>
  401bf9:	48 8b bd d8 f7 ff ff 	mov    rdi,QWORD PTR [rbp-0x828]
  401c00:	e8 5b f4 ff ff       	call   401060 <strlen@plt>
  401c05:	48 89 85 d0 f7 ff ff 	mov    QWORD PTR [rbp-0x830],rax
  401c0c:	48 8d bd f0 fb ff ff 	lea    rdi,[rbp-0x410]
  401c13:	31 f6                	xor    esi,esi
  401c15:	ba 00 04 00 00       	mov    edx,0x400
  401c1a:	e8 71 f4 ff ff       	call   401090 <memset@plt>
  401c1f:	48 8d bd f0 f7 ff ff 	lea    rdi,[rbp-0x810]
  401c26:	31 f6                	xor    esi,esi
  401c28:	ba 00 04 00 00       	mov    edx,0x400
  401c2d:	e8 5e f4 ff ff       	call   401090 <memset@plt>
  401c32:	e8 e9 f3 ff ff       	call   401020 <__errno_location@plt>
  401c37:	c7 00 00 00 00 00    	mov    DWORD PTR [rax],0x0
  401c3d:	48 8b 85 e8 f7 ff ff 	mov    rax,QWORD PTR [rbp-0x818]
  401c44:	8b 78 04             	mov    edi,DWORD PTR [rax+0x4]
  401c47:	48 8b b5 d8 f7 ff ff 	mov    rsi,QWORD PTR [rbp-0x828]
  401c4e:	48 8b 95 d0 f7 ff ff 	mov    rdx,QWORD PTR [rbp-0x830]
  401c55:	e8 f6 f3 ff ff       	call   401050 <write@plt>
  401c5a:	48 89 85 c8 f7 ff ff 	mov    QWORD PTR [rbp-0x838],rax
  401c61:	e8 ba f3 ff ff       	call   401020 <__errno_location@plt>
  401c66:	8b 00                	mov    eax,DWORD PTR [rax]
  401c68:	89 85 bc f7 ff ff    	mov    DWORD PTR [rbp-0x844],eax
  401c6e:	48 8b 85 e8 f7 ff ff 	mov    rax,QWORD PTR [rbp-0x818]
  401c75:	8b 38                	mov    edi,DWORD PTR [rax]
  401c77:	48 8d b5 f0 fb ff ff 	lea    rsi,[rbp-0x410]
  401c7e:	48 8b 95 d0 f7 ff ff 	mov    rdx,QWORD PTR [rbp-0x830]
  401c85:	e8 36 f4 ff ff       	call   4010c0 <read@plt>
  401c8a:	e8 91 f3 ff ff       	call   401020 <__errno_location@plt>
  401c8f:	c7 00 00 00 00 00    	mov    DWORD PTR [rax],0x0
  401c95:	48 8b 85 e8 f7 ff ff 	mov    rax,QWORD PTR [rbp-0x818]
  401c9c:	8b 78 04             	mov    edi,DWORD PTR [rax+0x4]
  401c9f:	48 8b b5 d8 f7 ff ff 	mov    rsi,QWORD PTR [rbp-0x828]
  401ca6:	48 8b 95 d0 f7 ff ff 	mov    rdx,QWORD PTR [rbp-0x830]
  401cad:	e8 ae 11 00 00       	call   402e60 <ft_write>
  401cb2:	48 89 85 c0 f7 ff ff 	mov    QWORD PTR [rbp-0x840],rax
  401cb9:	e8 62 f3 ff ff       	call   401020 <__errno_location@plt>
  401cbe:	8b 00                	mov    eax,DWORD PTR [rax]
  401cc0:	89 85 b8 f7 ff ff    	mov    DWORD PTR [rbp-0x848],eax
  401cc6:	48 8b 85 e8 f7 ff ff 	mov    rax,QWORD PTR [rbp-0x818]
  401ccd:	8b 38                	mov    edi,DWORD PTR [rax]
  401ccf:	48 8d b5 f0 f7 ff ff 	lea    rsi,[rbp-0x810]
  401cd6:	48 8b 95 d0 f7 ff ff 	mov    rdx,QWORD PTR [rbp-0x830]
  401cdd:	e8 de f3 ff ff       	call   4010c0 <read@plt>
  401ce2:	48 8d bd f0 fb ff ff 	lea    rdi,[rbp-0x410]
  401ce9:	48 8d b5 f0 f7 ff ff 	lea    rsi,[rbp-0x810]
  401cf0:	e8 db f3 ff ff       	call   4010d0 <strcmp@plt>
  401cf5:	83 f8 00             	cmp    eax,0x0
  401cf8:	0f 85 2b 00 00 00    	jne    401d29 <test_write_normal+0x1c9>
  401cfe:	8b 85 bc f7 ff ff    	mov    eax,DWORD PTR [rbp-0x844]
  401d04:	3b 85 b8 f7 ff ff    	cmp    eax,DWORD PTR [rbp-0x848]
  401d0a:	0f 85 19 00 00 00    	jne    401d29 <test_write_normal+0x1c9>
  401d10:	48 8b 85 c8 f7 ff ff 	mov    rax,QWORD PTR [rbp-0x838]
  401d17:	48 3b 85 c0 f7 ff ff 	cmp    rax,QWORD PTR [rbp-0x840]
  401d1e:	0f 85 05 00 00 00    	jne    401d29 <test_write_normal+0x1c9>
  401d24:	e9 85 00 00 00       	jmp    401dae <test_write_normal+0x24e>
  401d29:	48 8b b5 e0 f7 ff ff 	mov    rsi,QWORD PTR [rbp-0x820]
  401d30:	48 83 c6 01          	add    rsi,0x1
  401d34:	48 8d 3d c7 23 00 00 	lea    rdi,[rip+0x23c7]        # 404102 <_IO_stdin_used+0x102>
  401d3b:	b0 00                	mov    al,0x0
  401d3d:	e8 2e f3 ff ff       	call   401070 <printf@plt>
  401d42:	8b bd bc f7 ff ff    	mov    edi,DWORD PTR [rbp-0x844]
  401d48:	e8 d3 f3 ff ff       	call   401120 <strerror@plt>
  401d4d:	48 89 85 a8 f7 ff ff 	mov    QWORD PTR [rbp-0x858],rax
  401d54:	8b 85 bc f7 ff ff    	mov    eax,DWORD PTR [rbp-0x844]
  401d5a:	89 85 b4 f7 ff ff    	mov    DWORD PTR [rbp-0x84c],eax
  401d60:	8b bd b8 f7 ff ff    	mov    edi,DWORD PTR [rbp-0x848]
  401d66:	e8 b5 f3 ff ff       	call   401120 <strerror@plt>
  401d6b:	48 8b b5 a8 f7 ff ff 	mov    rsi,QWORD PTR [rbp-0x858]
  401d72:	8b 95 b4 f7 ff ff    	mov    edx,DWORD PTR [rbp-0x84c]
  401d78:	48 89 c1             	mov    rcx,rax
  401d7b:	44 8b 85 b8 f7 ff ff 	mov    r8d,DWORD PTR [rbp-0x848]
  401d82:	4c 8b 8d c8 f7 ff ff 	mov    r9,QWORD PTR [rbp-0x838]
  401d89:	48 8b 85 c0 f7 ff ff 	mov    rax,QWORD PTR [rbp-0x840]
  401d90:	48 8d 3d 18 23 00 00 	lea    rdi,[rip+0x2318]        # 4040af <_IO_stdin_used+0xaf>
  401d97:	48 89 04 24          	mov    QWORD PTR [rsp],rax
  401d9b:	b0 00                	mov    al,0x0
  401d9d:	e8 ce f2 ff ff       	call   401070 <printf@plt>
  401da2:	c7 45 fc 01 00 00 00 	mov    DWORD PTR [rbp-0x4],0x1
  401da9:	e9 17 00 00 00       	jmp    401dc5 <test_write_normal+0x265>
  401dae:	48 8b 85 e0 f7 ff ff 	mov    rax,QWORD PTR [rbp-0x820]
  401db5:	48 83 c0 01          	add    rax,0x1
  401db9:	48 89 85 e0 f7 ff ff 	mov    QWORD PTR [rbp-0x820],rax
  401dc0:	e9 e8 fd ff ff       	jmp    401bad <test_write_normal+0x4d>
  401dc5:	48 8b 85 e8 f7 ff ff 	mov    rax,QWORD PTR [rbp-0x818]
  401dcc:	8b 78 04             	mov    edi,DWORD PTR [rax+0x4]
  401dcf:	e8 cc f2 ff ff       	call   4010a0 <close@plt>
  401dd4:	48 8b 85 e8 f7 ff ff 	mov    rax,QWORD PTR [rbp-0x818]
  401ddb:	8b 38                	mov    edi,DWORD PTR [rax]
  401ddd:	e8 be f2 ff ff       	call   4010a0 <close@plt>
  401de2:	83 7d fc 00          	cmp    DWORD PTR [rbp-0x4],0x0
  401de6:	0f 84 1a 00 00 00    	je     401e06 <test_write_normal+0x2a6>
  401dec:	48 8d 3d 64 22 00 00 	lea    rdi,[rip+0x2264]        # 404057 <_IO_stdin_used+0x57>
  401df3:	48 8d 35 0e 23 00 00 	lea    rsi,[rip+0x230e]        # 404108 <_IO_stdin_used+0x108>
  401dfa:	b0 00                	mov    al,0x0
  401dfc:	e8 6f f2 ff ff       	call   401070 <printf@plt>
  401e01:	e9 15 00 00 00       	jmp    401e1b <test_write_normal+0x2bb>
  401e06:	48 8d 3d 5f 22 00 00 	lea    rdi,[rip+0x225f]        # 40406c <_IO_stdin_used+0x6c>
  401e0d:	48 8d 35 f4 22 00 00 	lea    rsi,[rip+0x22f4]        # 404108 <_IO_stdin_used+0x108>
  401e14:	b0 00                	mov    al,0x0
  401e16:	e8 55 f2 ff ff       	call   401070 <printf@plt>
  401e1b:	48 81 c4 60 08 00 00 	add    rsp,0x860
  401e22:	5d                   	pop    rbp
  401e23:	c3                   	ret    
  401e24:	66 2e 0f 1f 84 00 00 	cs nop WORD PTR [rax+rax*1+0x0]
  401e2b:	00 00 00 
  401e2e:	66 90                	xchg   ax,ax

0000000000401e30 <test_write_error>:
  401e30:	55                   	push   rbp
  401e31:	48 89 e5             	mov    rbp,rsp
  401e34:	48 81 ec 90 00 00 00 	sub    rsp,0x90
  401e3b:	48 8b 05 0e 23 00 00 	mov    rax,QWORD PTR [rip+0x230e]        # 404150 <_IO_stdin_used+0x150>
  401e42:	48 89 45 e0          	mov    QWORD PTR [rbp-0x20],rax
  401e46:	48 8b 05 0b 23 00 00 	mov    rax,QWORD PTR [rip+0x230b]        # 404158 <_IO_stdin_used+0x158>
  401e4d:	48 89 45 e8          	mov    QWORD PTR [rbp-0x18],rax
  401e51:	8b 05 09 23 00 00    	mov    eax,DWORD PTR [rip+0x2309]        # 404160 <_IO_stdin_used+0x160>
  401e57:	89 45 f0             	mov    DWORD PTR [rbp-0x10],eax
  401e5a:	c7 45 dc 05 00 00 00 	mov    DWORD PTR [rbp-0x24],0x5
  401e61:	48 8d 7d d4          	lea    rdi,[rbp-0x2c]
  401e65:	31 f6                	xor    esi,esi
  401e67:	ba 08 00 00 00       	mov    edx,0x8
  401e6c:	e8 1f f2 ff ff       	call   401090 <memset@plt>
  401e71:	c7 45 d0 00 00 00 00 	mov    DWORD PTR [rbp-0x30],0x0
  401e78:	8b 45 d0             	mov    eax,DWORD PTR [rbp-0x30]
  401e7b:	3b 45 dc             	cmp    eax,DWORD PTR [rbp-0x24]
  401e7e:	0f 8d ed 00 00 00    	jge    401f71 <test_write_error+0x141>
  401e84:	e8 97 f1 ff ff       	call   401020 <__errno_location@plt>
  401e89:	c7 00 00 00 00 00    	mov    DWORD PTR [rax],0x0
  401e8f:	48 63 45 d0          	movsxd rax,DWORD PTR [rbp-0x30]
  401e93:	8b 7c 85 e0          	mov    edi,DWORD PTR [rbp+rax*4-0x20]
  401e97:	48 8d 75 d4          	lea    rsi,[rbp-0x2c]
  401e9b:	ba 07 00 00 00       	mov    edx,0x7
  401ea0:	e8 ab f1 ff ff       	call   401050 <write@plt>
  401ea5:	48 89 45 c0          	mov    QWORD PTR [rbp-0x40],rax
  401ea9:	e8 72 f1 ff ff       	call   401020 <__errno_location@plt>
  401eae:	8b 00                	mov    eax,DWORD PTR [rax]
  401eb0:	89 45 cc             	mov    DWORD PTR [rbp-0x34],eax
  401eb3:	e8 68 f1 ff ff       	call   401020 <__errno_location@plt>
  401eb8:	c7 00 00 00 00 00    	mov    DWORD PTR [rax],0x0
  401ebe:	48 63 45 d0          	movsxd rax,DWORD PTR [rbp-0x30]
  401ec2:	8b 7c 85 e0          	mov    edi,DWORD PTR [rbp+rax*4-0x20]
  401ec6:	48 8d 75 d4          	lea    rsi,[rbp-0x2c]
  401eca:	ba 07 00 00 00       	mov    edx,0x7
  401ecf:	e8 8c 0f 00 00       	call   402e60 <ft_write>
  401ed4:	48 89 45 b8          	mov    QWORD PTR [rbp-0x48],rax
  401ed8:	e8 43 f1 ff ff       	call   401020 <__errno_location@plt>
  401edd:	8b 00                	mov    eax,DWORD PTR [rax]
  401edf:	89 45 c8             	mov    DWORD PTR [rbp-0x38],eax
  401ee2:	8b 45 cc             	mov    eax,DWORD PTR [rbp-0x34]
  401ee5:	3b 45 c8             	cmp    eax,DWORD PTR [rbp-0x38]
  401ee8:	0f 85 13 00 00 00    	jne    401f01 <test_write_error+0xd1>
  401eee:	48 8b 45 c0          	mov    rax,QWORD PTR [rbp-0x40]
  401ef2:	48 3b 45 b8          	cmp    rax,QWORD PTR [rbp-0x48]
  401ef6:	0f 85 05 00 00 00    	jne    401f01 <test_write_error+0xd1>
  401efc:	e9 62 00 00 00       	jmp    401f63 <test_write_error+0x133>
  401f01:	8b 75 d0             	mov    esi,DWORD PTR [rbp-0x30]
  401f04:	83 c6 01             	add    esi,0x1
  401f07:	48 8d 3d db 21 00 00 	lea    rdi,[rip+0x21db]        # 4040e9 <_IO_stdin_used+0xe9>
  401f0e:	b0 00                	mov    al,0x0
  401f10:	e8 5b f1 ff ff       	call   401070 <printf@plt>
  401f15:	8b 7d cc             	mov    edi,DWORD PTR [rbp-0x34]
  401f18:	e8 03 f2 ff ff       	call   401120 <strerror@plt>
  401f1d:	48 89 45 90          	mov    QWORD PTR [rbp-0x70],rax
  401f21:	8b 45 cc             	mov    eax,DWORD PTR [rbp-0x34]
  401f24:	89 45 9c             	mov    DWORD PTR [rbp-0x64],eax
  401f27:	8b 7d c8             	mov    edi,DWORD PTR [rbp-0x38]
  401f2a:	e8 f1 f1 ff ff       	call   401120 <strerror@plt>
  401f2f:	48 8b 75 90          	mov    rsi,QWORD PTR [rbp-0x70]
  401f33:	8b 55 9c             	mov    edx,DWORD PTR [rbp-0x64]
  401f36:	48 89 c1             	mov    rcx,rax
  401f39:	44 8b 45 c8          	mov    r8d,DWORD PTR [rbp-0x38]
  401f3d:	4c 8b 4d c0          	mov    r9,QWORD PTR [rbp-0x40]
  401f41:	48 8b 45 b8          	mov    rax,QWORD PTR [rbp-0x48]
  401f45:	48 8d 3d 63 21 00 00 	lea    rdi,[rip+0x2163]        # 4040af <_IO_stdin_used+0xaf>
  401f4c:	48 89 04 24          	mov    QWORD PTR [rsp],rax
  401f50:	b0 00                	mov    al,0x0
  401f52:	e8 19 f1 ff ff       	call   401070 <printf@plt>
  401f57:	c7 45 fc 01 00 00 00 	mov    DWORD PTR [rbp-0x4],0x1
  401f5e:	e9 0e 00 00 00       	jmp    401f71 <test_write_error+0x141>
  401f63:	8b 45 d0             	mov    eax,DWORD PTR [rbp-0x30]
  401f66:	83 c0 01             	add    eax,0x1
  401f69:	89 45 d0             	mov    DWORD PTR [rbp-0x30],eax
  401f6c:	e9 07 ff ff ff       	jmp    401e78 <test_write_error+0x48>
  401f71:	e8 aa f0 ff ff       	call   401020 <__errno_location@plt>
  401f76:	c7 00 00 00 00 00    	mov    DWORD PTR [rax],0x0
  401f7c:	48 8d 75 d4          	lea    rsi,[rbp-0x2c]
  401f80:	31 ff                	xor    edi,edi
  401f82:	48 c7 c2 ff ff ff ff 	mov    rdx,0xffffffffffffffff
  401f89:	e8 c2 f0 ff ff       	call   401050 <write@plt>
  401f8e:	48 89 45 a8          	mov    QWORD PTR [rbp-0x58],rax
  401f92:	e8 89 f0 ff ff       	call   401020 <__errno_location@plt>
  401f97:	8b 00                	mov    eax,DWORD PTR [rax]
  401f99:	89 45 b4             	mov    DWORD PTR [rbp-0x4c],eax
  401f9c:	e8 7f f0 ff ff       	call   401020 <__errno_location@plt>
  401fa1:	c7 00 00 00 00 00    	mov    DWORD PTR [rax],0x0
  401fa7:	48 8d 75 d4          	lea    rsi,[rbp-0x2c]
  401fab:	31 ff                	xor    edi,edi
  401fad:	48 c7 c2 ff ff ff ff 	mov    rdx,0xffffffffffffffff
  401fb4:	e8 a7 0e 00 00       	call   402e60 <ft_write>
  401fb9:	48 89 45 a0          	mov    QWORD PTR [rbp-0x60],rax
  401fbd:	e8 5e f0 ff ff       	call   401020 <__errno_location@plt>
  401fc2:	8b 00                	mov    eax,DWORD PTR [rax]
  401fc4:	89 45 b0             	mov    DWORD PTR [rbp-0x50],eax
  401fc7:	8b 45 b4             	mov    eax,DWORD PTR [rbp-0x4c]
  401fca:	3b 45 b0             	cmp    eax,DWORD PTR [rbp-0x50]
  401fcd:	0f 85 0e 00 00 00    	jne    401fe1 <test_write_error+0x1b1>
  401fd3:	48 8b 45 a8          	mov    rax,QWORD PTR [rbp-0x58]
  401fd7:	48 3b 45 a0          	cmp    rax,QWORD PTR [rbp-0x60]
  401fdb:	0f 84 57 00 00 00    	je     402038 <test_write_error+0x208>
  401fe1:	48 8d 3d 06 21 00 00 	lea    rdi,[rip+0x2106]        # 4040ee <_IO_stdin_used+0xee>
  401fe8:	b0 00                	mov    al,0x0
  401fea:	e8 81 f0 ff ff       	call   401070 <printf@plt>
  401fef:	8b 7d b4             	mov    edi,DWORD PTR [rbp-0x4c]
  401ff2:	e8 29 f1 ff ff       	call   401120 <strerror@plt>
  401ff7:	48 89 45 80          	mov    QWORD PTR [rbp-0x80],rax
  401ffb:	8b 45 b4             	mov    eax,DWORD PTR [rbp-0x4c]
  401ffe:	89 45 8c             	mov    DWORD PTR [rbp-0x74],eax
  402001:	8b 7d b0             	mov    edi,DWORD PTR [rbp-0x50]
  402004:	e8 17 f1 ff ff       	call   401120 <strerror@plt>
  402009:	48 8b 75 80          	mov    rsi,QWORD PTR [rbp-0x80]
  40200d:	8b 55 8c             	mov    edx,DWORD PTR [rbp-0x74]
  402010:	48 89 c1             	mov    rcx,rax
  402013:	44 8b 45 b0          	mov    r8d,DWORD PTR [rbp-0x50]
  402017:	4c 8b 4d a8          	mov    r9,QWORD PTR [rbp-0x58]
  40201b:	48 8b 45 a0          	mov    rax,QWORD PTR [rbp-0x60]
  40201f:	48 8d 3d 89 20 00 00 	lea    rdi,[rip+0x2089]        # 4040af <_IO_stdin_used+0xaf>
  402026:	48 89 04 24          	mov    QWORD PTR [rsp],rax
  40202a:	b0 00                	mov    al,0x0
  40202c:	e8 3f f0 ff ff       	call   401070 <printf@plt>
  402031:	c7 45 fc 01 00 00 00 	mov    DWORD PTR [rbp-0x4],0x1
  402038:	83 7d fc 00          	cmp    DWORD PTR [rbp-0x4],0x0
  40203c:	0f 84 1a 00 00 00    	je     40205c <test_write_error+0x22c>
  402042:	48 8d 3d 0e 20 00 00 	lea    rdi,[rip+0x200e]        # 404057 <_IO_stdin_used+0x57>
  402049:	48 8d 35 ca 20 00 00 	lea    rsi,[rip+0x20ca]        # 40411a <_IO_stdin_used+0x11a>
  402050:	b0 00                	mov    al,0x0
  402052:	e8 19 f0 ff ff       	call   401070 <printf@plt>
  402057:	e9 15 00 00 00       	jmp    402071 <test_write_error+0x241>
  40205c:	48 8d 3d 09 20 00 00 	lea    rdi,[rip+0x2009]        # 40406c <_IO_stdin_used+0x6c>
  402063:	48 8d 35 b0 20 00 00 	lea    rsi,[rip+0x20b0]        # 40411a <_IO_stdin_used+0x11a>
  40206a:	b0 00                	mov    al,0x0
  40206c:	e8 ff ef ff ff       	call   401070 <printf@plt>
  402071:	48 81 c4 90 00 00 00 	add    rsp,0x90
  402078:	5d                   	pop    rbp
  402079:	c3                   	ret    
  40207a:	66 0f 1f 44 00 00    	nop    WORD PTR [rax+rax*1+0x0]

0000000000402080 <test_atoi_base>:
  402080:	55                   	push   rbp
  402081:	48 89 e5             	mov    rbp,rsp
  402084:	e8 17 00 00 00       	call   4020a0 <test_atoi_base_whitespace>
  402089:	e8 b2 01 00 00       	call   402240 <test_atoi_base_sign>
  40208e:	e8 4d 03 00 00       	call   4023e0 <test_atoi_base_random>
  402093:	5d                   	pop    rbp
  402094:	c3                   	ret    
  402095:	66 2e 0f 1f 84 00 00 	cs nop WORD PTR [rax+rax*1+0x0]
  40209c:	00 00 00 
  40209f:	90                   	nop

00000000004020a0 <test_atoi_base_whitespace>:
  4020a0:	55                   	push   rbp
  4020a1:	48 89 e5             	mov    rbp,rsp
  4020a4:	48 81 ec c0 0d 00 00 	sub    rsp,0xdc0
  4020ab:	48 8d bd 80 f2 ff ff 	lea    rdi,[rbp-0xd80]
  4020b2:	48 8d 35 47 21 00 00 	lea    rsi,[rip+0x2147]        # 404200 <_IO_stdin_used+0x200>
  4020b9:	ba 80 0d 00 00       	mov    edx,0xd80
  4020be:	e8 1d f0 ff ff       	call   4010e0 <memcpy@plt>
  4020c3:	48 c7 85 78 f2 ff ff 	mov    QWORD PTR [rbp-0xd88],0x1b
  4020ca:	1b 00 00 00 
  4020ce:	c6 85 77 f2 ff ff 00 	mov    BYTE PTR [rbp-0xd89],0x0
  4020d5:	48 c7 85 68 f2 ff ff 	mov    QWORD PTR [rbp-0xd98],0x0
  4020dc:	00 00 00 00 
  4020e0:	48 83 bd 68 f2 ff ff 	cmp    QWORD PTR [rbp-0xd98],0x1b
  4020e7:	1b 
  4020e8:	0f 83 03 01 00 00    	jae    4021f1 <test_atoi_base_whitespace+0x151>
  4020ee:	48 8b 8d 68 f2 ff ff 	mov    rcx,QWORD PTR [rbp-0xd98]
  4020f5:	48 8d 85 80 f2 ff ff 	lea    rax,[rbp-0xd80]
  4020fc:	48 c1 e1 07          	shl    rcx,0x7
  402100:	48 01 c8             	add    rax,rcx
  402103:	48 83 c0 65          	add    rax,0x65
  402107:	48 89 85 60 f2 ff ff 	mov    QWORD PTR [rbp-0xda0],rax
  40210e:	48 8b 8d 68 f2 ff ff 	mov    rcx,QWORD PTR [rbp-0xd98]
  402115:	48 8d 85 80 f2 ff ff 	lea    rax,[rbp-0xd80]
  40211c:	48 c1 e1 07          	shl    rcx,0x7
  402120:	48 01 c8             	add    rax,rcx
  402123:	48 89 85 58 f2 ff ff 	mov    QWORD PTR [rbp-0xda8],rax
  40212a:	48 8b 8d 68 f2 ff ff 	mov    rcx,QWORD PTR [rbp-0xd98]
  402131:	48 8d 85 80 f2 ff ff 	lea    rax,[rbp-0xd80]
  402138:	48 c1 e1 07          	shl    rcx,0x7
  40213c:	48 01 c8             	add    rax,rcx
  40213f:	8b 40 7c             	mov    eax,DWORD PTR [rax+0x7c]
  402142:	89 85 54 f2 ff ff    	mov    DWORD PTR [rbp-0xdac],eax
  402148:	48 8b bd 58 f2 ff ff 	mov    rdi,QWORD PTR [rbp-0xda8]
  40214f:	48 8b b5 60 f2 ff ff 	mov    rsi,QWORD PTR [rbp-0xda0]
  402156:	e8 35 0d 00 00       	call   402e90 <ft_atoi_base>
  40215b:	89 85 50 f2 ff ff    	mov    DWORD PTR [rbp-0xdb0],eax
  402161:	48 8b bd 58 f2 ff ff 	mov    rdi,QWORD PTR [rbp-0xda8]
  402168:	48 8b b5 60 f2 ff ff 	mov    rsi,QWORD PTR [rbp-0xda0]
  40216f:	e8 5c 07 00 00       	call   4028d0 <ft_atoi_base_ref>
  402174:	89 85 4c f2 ff ff    	mov    DWORD PTR [rbp-0xdb4],eax
  40217a:	8b 85 50 f2 ff ff    	mov    eax,DWORD PTR [rbp-0xdb0]
  402180:	3b 85 54 f2 ff ff    	cmp    eax,DWORD PTR [rbp-0xdac]
  402186:	0f 85 12 00 00 00    	jne    40219e <test_atoi_base_whitespace+0xfe>
  40218c:	8b 85 50 f2 ff ff    	mov    eax,DWORD PTR [rbp-0xdb0]
  402192:	3b 85 54 f2 ff ff    	cmp    eax,DWORD PTR [rbp-0xdac]
  402198:	0f 84 37 00 00 00    	je     4021d5 <test_atoi_base_whitespace+0x135>
  40219e:	48 8b b5 60 f2 ff ff 	mov    rsi,QWORD PTR [rbp-0xda0]
  4021a5:	48 8b 95 58 f2 ff ff 	mov    rdx,QWORD PTR [rbp-0xda8]
  4021ac:	8b 8d 54 f2 ff ff    	mov    ecx,DWORD PTR [rbp-0xdac]
  4021b2:	44 8b 85 50 f2 ff ff 	mov    r8d,DWORD PTR [rbp-0xdb0]
  4021b9:	44 8b 8d 4c f2 ff ff 	mov    r9d,DWORD PTR [rbp-0xdb4]
  4021c0:	48 8d 3d de 1f 00 00 	lea    rdi,[rip+0x1fde]        # 4041a5 <_IO_stdin_used+0x1a5>
  4021c7:	b0 00                	mov    al,0x0
  4021c9:	e8 a2 ee ff ff       	call   401070 <printf@plt>
  4021ce:	c6 85 77 f2 ff ff 01 	mov    BYTE PTR [rbp-0xd89],0x1
  4021d5:	e9 00 00 00 00       	jmp    4021da <test_atoi_base_whitespace+0x13a>
  4021da:	48 8b 85 68 f2 ff ff 	mov    rax,QWORD PTR [rbp-0xd98]
  4021e1:	48 83 c0 01          	add    rax,0x1
  4021e5:	48 89 85 68 f2 ff ff 	mov    QWORD PTR [rbp-0xd98],rax
  4021ec:	e9 ef fe ff ff       	jmp    4020e0 <test_atoi_base_whitespace+0x40>
  4021f1:	80 bd 77 f2 ff ff 00 	cmp    BYTE PTR [rbp-0xd89],0x0
  4021f8:	0f 84 1a 00 00 00    	je     402218 <test_atoi_base_whitespace+0x178>
  4021fe:	48 8d 3d 52 1e 00 00 	lea    rdi,[rip+0x1e52]        # 404057 <_IO_stdin_used+0x57>
  402205:	48 8d 35 c6 1f 00 00 	lea    rsi,[rip+0x1fc6]        # 4041d2 <_IO_stdin_used+0x1d2>
  40220c:	b0 00                	mov    al,0x0
  40220e:	e8 5d ee ff ff       	call   401070 <printf@plt>
  402213:	e9 15 00 00 00       	jmp    40222d <test_atoi_base_whitespace+0x18d>
  402218:	48 8d 3d 4d 1e 00 00 	lea    rdi,[rip+0x1e4d]        # 40406c <_IO_stdin_used+0x6c>
  40221f:	48 8d 35 ac 1f 00 00 	lea    rsi,[rip+0x1fac]        # 4041d2 <_IO_stdin_used+0x1d2>
  402226:	b0 00                	mov    al,0x0
  402228:	e8 43 ee ff ff       	call   401070 <printf@plt>
  40222d:	48 81 c4 c0 0d 00 00 	add    rsp,0xdc0
  402234:	5d                   	pop    rbp
  402235:	c3                   	ret    
  402236:	66 2e 0f 1f 84 00 00 	cs nop WORD PTR [rax+rax*1+0x0]
  40223d:	00 00 00 

0000000000402240 <test_atoi_base_sign>:
  402240:	55                   	push   rbp
  402241:	48 89 e5             	mov    rbp,rsp
  402244:	48 81 ec c0 0c 00 00 	sub    rsp,0xcc0
  40224b:	48 8d bd 80 f3 ff ff 	lea    rdi,[rbp-0xc80]
  402252:	48 8d 35 27 2d 00 00 	lea    rsi,[rip+0x2d27]        # 404f80 <_IO_stdin_used+0xf80>
  402259:	ba 80 0c 00 00       	mov    edx,0xc80
  40225e:	e8 7d ee ff ff       	call   4010e0 <memcpy@plt>
  402263:	48 c7 85 78 f3 ff ff 	mov    QWORD PTR [rbp-0xc88],0x19
  40226a:	19 00 00 00 
  40226e:	c6 85 77 f3 ff ff 00 	mov    BYTE PTR [rbp-0xc89],0x0
  402275:	48 c7 85 68 f3 ff ff 	mov    QWORD PTR [rbp-0xc98],0x0
  40227c:	00 00 00 00 
  402280:	48 83 bd 68 f3 ff ff 	cmp    QWORD PTR [rbp-0xc98],0x19
  402287:	19 
  402288:	0f 83 03 01 00 00    	jae    402391 <test_atoi_base_sign+0x151>
  40228e:	48 8b 8d 68 f3 ff ff 	mov    rcx,QWORD PTR [rbp-0xc98]
  402295:	48 8d 85 80 f3 ff ff 	lea    rax,[rbp-0xc80]
  40229c:	48 c1 e1 07          	shl    rcx,0x7
  4022a0:	48 01 c8             	add    rax,rcx
  4022a3:	48 83 c0 65          	add    rax,0x65
  4022a7:	48 89 85 60 f3 ff ff 	mov    QWORD PTR [rbp-0xca0],rax
  4022ae:	48 8b 8d 68 f3 ff ff 	mov    rcx,QWORD PTR [rbp-0xc98]
  4022b5:	48 8d 85 80 f3 ff ff 	lea    rax,[rbp-0xc80]
  4022bc:	48 c1 e1 07          	shl    rcx,0x7
  4022c0:	48 01 c8             	add    rax,rcx
  4022c3:	48 89 85 58 f3 ff ff 	mov    QWORD PTR [rbp-0xca8],rax
  4022ca:	48 8b 8d 68 f3 ff ff 	mov    rcx,QWORD PTR [rbp-0xc98]
  4022d1:	48 8d 85 80 f3 ff ff 	lea    rax,[rbp-0xc80]
  4022d8:	48 c1 e1 07          	shl    rcx,0x7
  4022dc:	48 01 c8             	add    rax,rcx
  4022df:	8b 40 7c             	mov    eax,DWORD PTR [rax+0x7c]
  4022e2:	89 85 54 f3 ff ff    	mov    DWORD PTR [rbp-0xcac],eax
  4022e8:	48 8b bd 58 f3 ff ff 	mov    rdi,QWORD PTR [rbp-0xca8]
  4022ef:	48 8b b5 60 f3 ff ff 	mov    rsi,QWORD PTR [rbp-0xca0]
  4022f6:	e8 95 0b 00 00       	call   402e90 <ft_atoi_base>
  4022fb:	89 85 50 f3 ff ff    	mov    DWORD PTR [rbp-0xcb0],eax
  402301:	48 8b bd 58 f3 ff ff 	mov    rdi,QWORD PTR [rbp-0xca8]
  402308:	48 8b b5 60 f3 ff ff 	mov    rsi,QWORD PTR [rbp-0xca0]
  40230f:	e8 bc 05 00 00       	call   4028d0 <ft_atoi_base_ref>
  402314:	89 85 4c f3 ff ff    	mov    DWORD PTR [rbp-0xcb4],eax
  40231a:	8b 85 50 f3 ff ff    	mov    eax,DWORD PTR [rbp-0xcb0]
  402320:	3b 85 54 f3 ff ff    	cmp    eax,DWORD PTR [rbp-0xcac]
  402326:	0f 85 12 00 00 00    	jne    40233e <test_atoi_base_sign+0xfe>
  40232c:	8b 85 50 f3 ff ff    	mov    eax,DWORD PTR [rbp-0xcb0]
  402332:	3b 85 54 f3 ff ff    	cmp    eax,DWORD PTR [rbp-0xcac]
  402338:	0f 84 37 00 00 00    	je     402375 <test_atoi_base_sign+0x135>
  40233e:	48 8b b5 60 f3 ff ff 	mov    rsi,QWORD PTR [rbp-0xca0]
  402345:	48 8b 95 58 f3 ff ff 	mov    rdx,QWORD PTR [rbp-0xca8]
  40234c:	8b 8d 54 f3 ff ff    	mov    ecx,DWORD PTR [rbp-0xcac]
  402352:	44 8b 85 50 f3 ff ff 	mov    r8d,DWORD PTR [rbp-0xcb0]
  402359:	44 8b 8d 4c f3 ff ff 	mov    r9d,DWORD PTR [rbp-0xcb4]
  402360:	48 8d 3d 3e 1e 00 00 	lea    rdi,[rip+0x1e3e]        # 4041a5 <_IO_stdin_used+0x1a5>
  402367:	b0 00                	mov    al,0x0
  402369:	e8 02 ed ff ff       	call   401070 <printf@plt>
  40236e:	c6 85 77 f3 ff ff 01 	mov    BYTE PTR [rbp-0xc89],0x1
  402375:	e9 00 00 00 00       	jmp    40237a <test_atoi_base_sign+0x13a>
  40237a:	48 8b 85 68 f3 ff ff 	mov    rax,QWORD PTR [rbp-0xc98]
  402381:	48 83 c0 01          	add    rax,0x1
  402385:	48 89 85 68 f3 ff ff 	mov    QWORD PTR [rbp-0xc98],rax
  40238c:	e9 ef fe ff ff       	jmp    402280 <test_atoi_base_sign+0x40>
  402391:	80 bd 77 f3 ff ff 00 	cmp    BYTE PTR [rbp-0xc89],0x0
  402398:	0f 84 1a 00 00 00    	je     4023b8 <test_atoi_base_sign+0x178>
  40239e:	48 8d 3d b2 1c 00 00 	lea    rdi,[rip+0x1cb2]        # 404057 <_IO_stdin_used+0x57>
  4023a5:	48 8d 35 40 1e 00 00 	lea    rsi,[rip+0x1e40]        # 4041ec <_IO_stdin_used+0x1ec>
  4023ac:	b0 00                	mov    al,0x0
  4023ae:	e8 bd ec ff ff       	call   401070 <printf@plt>
  4023b3:	e9 15 00 00 00       	jmp    4023cd <test_atoi_base_sign+0x18d>
  4023b8:	48 8d 3d ad 1c 00 00 	lea    rdi,[rip+0x1cad]        # 40406c <_IO_stdin_used+0x6c>
  4023bf:	48 8d 35 26 1e 00 00 	lea    rsi,[rip+0x1e26]        # 4041ec <_IO_stdin_used+0x1ec>
  4023c6:	b0 00                	mov    al,0x0
  4023c8:	e8 a3 ec ff ff       	call   401070 <printf@plt>
  4023cd:	48 81 c4 c0 0c 00 00 	add    rsp,0xcc0
  4023d4:	5d                   	pop    rbp
  4023d5:	c3                   	ret    
  4023d6:	66 2e 0f 1f 84 00 00 	cs nop WORD PTR [rax+rax*1+0x0]
  4023dd:	00 00 00 

00000000004023e0 <test_atoi_base_random>:
  4023e0:	55                   	push   rbp
  4023e1:	48 89 e5             	mov    rbp,rsp
  4023e4:	48 81 ec 40 a8 61 00 	sub    rsp,0x61a840
  4023eb:	48 8d bd 00 58 9e ff 	lea    rdi,[rbp-0x61a800]
  4023f2:	31 f6                	xor    esi,esi
  4023f4:	ba 00 a8 61 00       	mov    edx,0x61a800
  4023f9:	e8 92 ec ff ff       	call   401090 <memset@plt>
  4023fe:	48 c7 85 f8 57 9e ff 	mov    QWORD PTR [rbp-0x61a808],0xc350
  402405:	50 c3 00 00 
  402409:	c6 85 f7 57 9e ff 00 	mov    BYTE PTR [rbp-0x61a809],0x0
  402410:	48 8d bd 00 58 9e ff 	lea    rdi,[rbp-0x61a800]
  402417:	be 50 c3 00 00       	mov    esi,0xc350
  40241c:	e8 6f 01 00 00       	call   402590 <generate_testcase>
  402421:	48 c7 85 e8 57 9e ff 	mov    QWORD PTR [rbp-0x61a818],0x0
  402428:	00 00 00 00 
  40242c:	48 81 bd e8 57 9e ff 	cmp    QWORD PTR [rbp-0x61a818],0xc350
  402433:	50 c3 00 00 
  402437:	0f 83 03 01 00 00    	jae    402540 <test_atoi_base_random+0x160>
  40243d:	48 8b 8d e8 57 9e ff 	mov    rcx,QWORD PTR [rbp-0x61a818]
  402444:	48 8d 85 00 58 9e ff 	lea    rax,[rbp-0x61a800]
  40244b:	48 c1 e1 07          	shl    rcx,0x7
  40244f:	48 01 c8             	add    rax,rcx
  402452:	48 83 c0 65          	add    rax,0x65
  402456:	48 89 85 e0 57 9e ff 	mov    QWORD PTR [rbp-0x61a820],rax
  40245d:	48 8b 8d e8 57 9e ff 	mov    rcx,QWORD PTR [rbp-0x61a818]
  402464:	48 8d 85 00 58 9e ff 	lea    rax,[rbp-0x61a800]
  40246b:	48 c1 e1 07          	shl    rcx,0x7
  40246f:	48 01 c8             	add    rax,rcx
  402472:	48 89 85 d8 57 9e ff 	mov    QWORD PTR [rbp-0x61a828],rax
  402479:	48 8b 8d e8 57 9e ff 	mov    rcx,QWORD PTR [rbp-0x61a818]
  402480:	48 8d 85 00 58 9e ff 	lea    rax,[rbp-0x61a800]
  402487:	48 c1 e1 07          	shl    rcx,0x7
  40248b:	48 01 c8             	add    rax,rcx
  40248e:	8b 40 7c             	mov    eax,DWORD PTR [rax+0x7c]
  402491:	89 85 d4 57 9e ff    	mov    DWORD PTR [rbp-0x61a82c],eax
  402497:	48 8b bd d8 57 9e ff 	mov    rdi,QWORD PTR [rbp-0x61a828]
  40249e:	48 8b b5 e0 57 9e ff 	mov    rsi,QWORD PTR [rbp-0x61a820]
  4024a5:	e8 e6 09 00 00       	call   402e90 <ft_atoi_base>
  4024aa:	89 85 d0 57 9e ff    	mov    DWORD PTR [rbp-0x61a830],eax
  4024b0:	48 8b bd d8 57 9e ff 	mov    rdi,QWORD PTR [rbp-0x61a828]
  4024b7:	48 8b b5 e0 57 9e ff 	mov    rsi,QWORD PTR [rbp-0x61a820]
  4024be:	e8 0d 04 00 00       	call   4028d0 <ft_atoi_base_ref>
  4024c3:	89 85 cc 57 9e ff    	mov    DWORD PTR [rbp-0x61a834],eax
  4024c9:	8b 85 d0 57 9e ff    	mov    eax,DWORD PTR [rbp-0x61a830]
  4024cf:	3b 85 d4 57 9e ff    	cmp    eax,DWORD PTR [rbp-0x61a82c]
  4024d5:	0f 85 12 00 00 00    	jne    4024ed <test_atoi_base_random+0x10d>
  4024db:	8b 85 d0 57 9e ff    	mov    eax,DWORD PTR [rbp-0x61a830]
  4024e1:	3b 85 d4 57 9e ff    	cmp    eax,DWORD PTR [rbp-0x61a82c]
  4024e7:	0f 84 37 00 00 00    	je     402524 <test_atoi_base_random+0x144>
  4024ed:	48 8b b5 e0 57 9e ff 	mov    rsi,QWORD PTR [rbp-0x61a820]
  4024f4:	48 8b 95 d8 57 9e ff 	mov    rdx,QWORD PTR [rbp-0x61a828]
  4024fb:	8b 8d d4 57 9e ff    	mov    ecx,DWORD PTR [rbp-0x61a82c]
  402501:	44 8b 85 d0 57 9e ff 	mov    r8d,DWORD PTR [rbp-0x61a830]
  402508:	44 8b 8d cc 57 9e ff 	mov    r9d,DWORD PTR [rbp-0x61a834]
  40250f:	48 8d 3d 4e 1c 00 00 	lea    rdi,[rip+0x1c4e]        # 404164 <_IO_stdin_used+0x164>
  402516:	b0 00                	mov    al,0x0
  402518:	e8 53 eb ff ff       	call   401070 <printf@plt>
  40251d:	c6 85 f7 57 9e ff 01 	mov    BYTE PTR [rbp-0x61a809],0x1
  402524:	e9 00 00 00 00       	jmp    402529 <test_atoi_base_random+0x149>
  402529:	48 8b 85 e8 57 9e ff 	mov    rax,QWORD PTR [rbp-0x61a818]
  402530:	48 83 c0 01          	add    rax,0x1
  402534:	48 89 85 e8 57 9e ff 	mov    QWORD PTR [rbp-0x61a818],rax
  40253b:	e9 ec fe ff ff       	jmp    40242c <test_atoi_base_random+0x4c>
  402540:	80 bd f7 57 9e ff 00 	cmp    BYTE PTR [rbp-0x61a809],0x0
  402547:	0f 84 1a 00 00 00    	je     402567 <test_atoi_base_random+0x187>
  40254d:	48 8d 3d 03 1b 00 00 	lea    rdi,[rip+0x1b03]        # 404057 <_IO_stdin_used+0x57>
  402554:	48 8d 35 34 1c 00 00 	lea    rsi,[rip+0x1c34]        # 40418f <_IO_stdin_used+0x18f>
  40255b:	b0 00                	mov    al,0x0
  40255d:	e8 0e eb ff ff       	call   401070 <printf@plt>
  402562:	e9 15 00 00 00       	jmp    40257c <test_atoi_base_random+0x19c>
  402567:	48 8d 3d fe 1a 00 00 	lea    rdi,[rip+0x1afe]        # 40406c <_IO_stdin_used+0x6c>
  40256e:	48 8d 35 1a 1c 00 00 	lea    rsi,[rip+0x1c1a]        # 40418f <_IO_stdin_used+0x18f>
  402575:	b0 00                	mov    al,0x0
  402577:	e8 f4 ea ff ff       	call   401070 <printf@plt>
  40257c:	48 81 c4 40 a8 61 00 	add    rsp,0x61a840
  402583:	5d                   	pop    rbp
  402584:	c3                   	ret    
  402585:	66 2e 0f 1f 84 00 00 	cs nop WORD PTR [rax+rax*1+0x0]
  40258c:	00 00 00 
  40258f:	90                   	nop

0000000000402590 <generate_testcase>:
  402590:	55                   	push   rbp
  402591:	48 89 e5             	mov    rbp,rsp
  402594:	48 81 ec 00 01 00 00 	sub    rsp,0x100
  40259b:	48 89 7d f8          	mov    QWORD PTR [rbp-0x8],rdi
  40259f:	48 89 75 f0          	mov    QWORD PTR [rbp-0x10],rsi
  4025a3:	48 c7 45 e8 64 00 00 	mov    QWORD PTR [rbp-0x18],0x64
  4025aa:	00 
  4025ab:	48 c7 45 e0 14 00 00 	mov    QWORD PTR [rbp-0x20],0x14
  4025b2:	00 
  4025b3:	48 8d 7d d0          	lea    rdi,[rbp-0x30]
  4025b7:	31 c0                	xor    eax,eax
  4025b9:	89 c6                	mov    esi,eax
  4025bb:	e8 c0 ea ff ff       	call   401080 <gettimeofday@plt>
  4025c0:	48 8b 45 d0          	mov    rax,QWORD PTR [rbp-0x30]
  4025c4:	89 c7                	mov    edi,eax
  4025c6:	e8 65 ea ff ff       	call   401030 <srandom@plt>
  4025cb:	48 c7 45 c8 00 00 00 	mov    QWORD PTR [rbp-0x38],0x0
  4025d2:	00 
  4025d3:	48 8b 45 c8          	mov    rax,QWORD PTR [rbp-0x38]
  4025d7:	48 3b 45 f0          	cmp    rax,QWORD PTR [rbp-0x10]
  4025db:	0f 83 e4 02 00 00    	jae    4028c5 <generate_testcase+0x335>
  4025e1:	c7 45 c4 00 00 00 00 	mov    DWORD PTR [rbp-0x3c],0x0
  4025e8:	48 8d bd 40 ff ff ff 	lea    rdi,[rbp-0xc0]
  4025ef:	31 f6                	xor    esi,esi
  4025f1:	ba 80 00 00 00       	mov    edx,0x80
  4025f6:	e8 95 ea ff ff       	call   401090 <memset@plt>
  4025fb:	48 83 7d e0 02       	cmp    QWORD PTR [rbp-0x20],0x2
  402600:	0f 85 11 00 00 00    	jne    402617 <generate_testcase+0x87>
  402606:	b8 02 00 00 00       	mov    eax,0x2
  40260b:	48 89 85 18 ff ff ff 	mov    QWORD PTR [rbp-0xe8],rax
  402612:	e9 20 00 00 00       	jmp    402637 <generate_testcase+0xa7>
  402617:	e8 d4 ea ff ff       	call   4010f0 <random@plt>
  40261c:	48 8b 4d e0          	mov    rcx,QWORD PTR [rbp-0x20]
  402620:	48 83 e9 02          	sub    rcx,0x2
  402624:	31 d2                	xor    edx,edx
  402626:	48 f7 f1             	div    rcx
  402629:	48 89 d0             	mov    rax,rdx
  40262c:	48 83 c0 02          	add    rax,0x2
  402630:	48 89 85 18 ff ff ff 	mov    QWORD PTR [rbp-0xe8],rax
  402637:	48 8b 85 18 ff ff ff 	mov    rax,QWORD PTR [rbp-0xe8]
  40263e:	89 85 3c ff ff ff    	mov    DWORD PTR [rbp-0xc4],eax
  402644:	48 83 7d e8 01       	cmp    QWORD PTR [rbp-0x18],0x1
  402649:	0f 85 11 00 00 00    	jne    402660 <generate_testcase+0xd0>
  40264f:	b8 01 00 00 00       	mov    eax,0x1
  402654:	48 89 85 10 ff ff ff 	mov    QWORD PTR [rbp-0xf0],rax
  40265b:	e9 20 00 00 00       	jmp    402680 <generate_testcase+0xf0>
  402660:	e8 8b ea ff ff       	call   4010f0 <random@plt>
  402665:	48 8b 4d e8          	mov    rcx,QWORD PTR [rbp-0x18]
  402669:	48 83 e9 01          	sub    rcx,0x1
  40266d:	31 d2                	xor    edx,edx
  40266f:	48 f7 f1             	div    rcx
  402672:	48 89 d0             	mov    rax,rdx
  402675:	48 83 c0 01          	add    rax,0x1
  402679:	48 89 85 10 ff ff ff 	mov    QWORD PTR [rbp-0xf0],rax
  402680:	48 8b 85 10 ff ff ff 	mov    rax,QWORD PTR [rbp-0xf0]
  402687:	89 85 38 ff ff ff    	mov    DWORD PTR [rbp-0xc8],eax
  40268d:	c7 85 34 ff ff ff 00 	mov    DWORD PTR [rbp-0xcc],0x0
  402694:	00 00 00 
  402697:	8b 85 34 ff ff ff    	mov    eax,DWORD PTR [rbp-0xcc]
  40269d:	3b 85 3c ff ff ff    	cmp    eax,DWORD PTR [rbp-0xc4]
  4026a3:	0f 8d cf 00 00 00    	jge    402778 <generate_testcase+0x1e8>
  4026a9:	e9 00 00 00 00       	jmp    4026ae <generate_testcase+0x11e>
  4026ae:	e8 3d ea ff ff       	call   4010f0 <random@plt>
  4026b3:	b9 5e 00 00 00       	mov    ecx,0x5e
  4026b8:	48 99                	cqo    
  4026ba:	48 f7 f9             	idiv   rcx
  4026bd:	48 83 c2 21          	add    rdx,0x21
  4026c1:	88 d0                	mov    al,dl
  4026c3:	88 85 33 ff ff ff    	mov    BYTE PTR [rbp-0xcd],al
  4026c9:	0f be c8             	movsx  ecx,al
  4026cc:	b0 01                	mov    al,0x1
  4026ce:	83 f9 2b             	cmp    ecx,0x2b
  4026d1:	88 85 0f ff ff ff    	mov    BYTE PTR [rbp-0xf1],al
  4026d7:	0f 84 35 00 00 00    	je     402712 <generate_testcase+0x182>
  4026dd:	0f be 8d 33 ff ff ff 	movsx  ecx,BYTE PTR [rbp-0xcd]
  4026e4:	b0 01                	mov    al,0x1
  4026e6:	83 f9 2d             	cmp    ecx,0x2d
  4026e9:	88 85 0f ff ff ff    	mov    BYTE PTR [rbp-0xf1],al
  4026ef:	0f 84 1d 00 00 00    	je     402712 <generate_testcase+0x182>
  4026f5:	0f be 85 33 ff ff ff 	movsx  eax,BYTE PTR [rbp-0xcd]
  4026fc:	48 98                	cdqe   
  4026fe:	0f b6 84 05 40 ff ff 	movzx  eax,BYTE PTR [rbp+rax*1-0xc0]
  402705:	ff 
  402706:	83 f8 00             	cmp    eax,0x0
  402709:	0f 95 c0             	setne  al
  40270c:	88 85 0f ff ff ff    	mov    BYTE PTR [rbp-0xf1],al
  402712:	8a 85 0f ff ff ff    	mov    al,BYTE PTR [rbp-0xf1]
  402718:	a8 01                	test   al,0x1
  40271a:	0f 85 05 00 00 00    	jne    402725 <generate_testcase+0x195>
  402720:	e9 05 00 00 00       	jmp    40272a <generate_testcase+0x19a>
  402725:	e9 84 ff ff ff       	jmp    4026ae <generate_testcase+0x11e>
  40272a:	0f be 85 33 ff ff ff 	movsx  eax,BYTE PTR [rbp-0xcd]
  402731:	48 98                	cdqe   
  402733:	8a 8c 05 40 ff ff ff 	mov    cl,BYTE PTR [rbp+rax*1-0xc0]
  40273a:	80 c1 01             	add    cl,0x1
  40273d:	88 8c 05 40 ff ff ff 	mov    BYTE PTR [rbp+rax*1-0xc0],cl
  402744:	8a 95 33 ff ff ff    	mov    dl,BYTE PTR [rbp-0xcd]
  40274a:	48 8b 45 f8          	mov    rax,QWORD PTR [rbp-0x8]
  40274e:	48 8b 4d c8          	mov    rcx,QWORD PTR [rbp-0x38]
  402752:	48 c1 e1 07          	shl    rcx,0x7
  402756:	48 01 c8             	add    rax,rcx
  402759:	48 63 8d 34 ff ff ff 	movsxd rcx,DWORD PTR [rbp-0xcc]
  402760:	88 54 08 65          	mov    BYTE PTR [rax+rcx*1+0x65],dl
  402764:	8b 85 34 ff ff ff    	mov    eax,DWORD PTR [rbp-0xcc]
  40276a:	83 c0 01             	add    eax,0x1
  40276d:	89 85 34 ff ff ff    	mov    DWORD PTR [rbp-0xcc],eax
  402773:	e9 1f ff ff ff       	jmp    402697 <generate_testcase+0x107>
  402778:	48 8b 45 f8          	mov    rax,QWORD PTR [rbp-0x8]
  40277c:	48 8b 4d c8          	mov    rcx,QWORD PTR [rbp-0x38]
  402780:	48 c1 e1 07          	shl    rcx,0x7
  402784:	48 01 c8             	add    rax,rcx
  402787:	48 63 8d 3c ff ff ff 	movsxd rcx,DWORD PTR [rbp-0xc4]
  40278e:	c6 44 08 65 00       	mov    BYTE PTR [rax+rcx*1+0x65],0x0
  402793:	c7 85 2c ff ff ff 01 	mov    DWORD PTR [rbp-0xd4],0x1
  40279a:	00 00 00 
  40279d:	8b 85 2c ff ff ff    	mov    eax,DWORD PTR [rbp-0xd4]
  4027a3:	3b 85 38 ff ff ff    	cmp    eax,DWORD PTR [rbp-0xc8]
  4027a9:	0f 8d 75 00 00 00    	jge    402824 <generate_testcase+0x294>
  4027af:	e8 3c e9 ff ff       	call   4010f0 <random@plt>
  4027b4:	48 63 8d 3c ff ff ff 	movsxd rcx,DWORD PTR [rbp-0xc4]
  4027bb:	48 99                	cqo    
  4027bd:	48 f7 f9             	idiv   rcx
  4027c0:	89 d0                	mov    eax,edx
  4027c2:	89 85 28 ff ff ff    	mov    DWORD PTR [rbp-0xd8],eax
  4027c8:	48 8b 45 f8          	mov    rax,QWORD PTR [rbp-0x8]
  4027cc:	48 8b 4d c8          	mov    rcx,QWORD PTR [rbp-0x38]
  4027d0:	48 c1 e1 07          	shl    rcx,0x7
  4027d4:	48 01 c8             	add    rax,rcx
  4027d7:	48 63 8d 28 ff ff ff 	movsxd rcx,DWORD PTR [rbp-0xd8]
  4027de:	8a 54 08 65          	mov    dl,BYTE PTR [rax+rcx*1+0x65]
  4027e2:	48 8b 45 f8          	mov    rax,QWORD PTR [rbp-0x8]
  4027e6:	48 8b 4d c8          	mov    rcx,QWORD PTR [rbp-0x38]
  4027ea:	48 c1 e1 07          	shl    rcx,0x7
  4027ee:	48 01 c8             	add    rax,rcx
  4027f1:	48 63 8d 2c ff ff ff 	movsxd rcx,DWORD PTR [rbp-0xd4]
  4027f8:	88 14 08             	mov    BYTE PTR [rax+rcx*1],dl
  4027fb:	8b 85 28 ff ff ff    	mov    eax,DWORD PTR [rbp-0xd8]
  402801:	8b 4d c4             	mov    ecx,DWORD PTR [rbp-0x3c]
  402804:	0f af 8d 3c ff ff ff 	imul   ecx,DWORD PTR [rbp-0xc4]
  40280b:	01 c8                	add    eax,ecx
  40280d:	89 45 c4             	mov    DWORD PTR [rbp-0x3c],eax
  402810:	8b 85 2c ff ff ff    	mov    eax,DWORD PTR [rbp-0xd4]
  402816:	83 c0 01             	add    eax,0x1
  402819:	89 85 2c ff ff ff    	mov    DWORD PTR [rbp-0xd4],eax
  40281f:	e9 79 ff ff ff       	jmp    40279d <generate_testcase+0x20d>
  402824:	48 8b 45 f8          	mov    rax,QWORD PTR [rbp-0x8]
  402828:	48 8b 4d c8          	mov    rcx,QWORD PTR [rbp-0x38]
  40282c:	48 c1 e1 07          	shl    rcx,0x7
  402830:	48 01 c8             	add    rax,rcx
  402833:	48 63 8d 38 ff ff ff 	movsxd rcx,DWORD PTR [rbp-0xc8]
  40283a:	c6 04 08 00          	mov    BYTE PTR [rax+rcx*1],0x0
  40283e:	e8 ad e8 ff ff       	call   4010f0 <random@plt>
  402843:	48 83 e0 01          	and    rax,0x1
  402847:	89 85 24 ff ff ff    	mov    DWORD PTR [rbp-0xdc],eax
  40284d:	8b 95 24 ff ff ff    	mov    edx,DWORD PTR [rbp-0xdc]
  402853:	b8 2b 00 00 00       	mov    eax,0x2b
  402858:	b9 2d 00 00 00       	mov    ecx,0x2d
  40285d:	83 fa 00             	cmp    edx,0x0
  402860:	0f 45 c1             	cmovne eax,ecx
  402863:	88 c1                	mov    cl,al
  402865:	48 8b 45 f8          	mov    rax,QWORD PTR [rbp-0x8]
  402869:	48 8b 55 c8          	mov    rdx,QWORD PTR [rbp-0x38]
  40286d:	48 c1 e2 07          	shl    rdx,0x7
  402871:	48 01 d0             	add    rax,rdx
  402874:	88 08                	mov    BYTE PTR [rax],cl
  402876:	83 bd 24 ff ff ff 00 	cmp    DWORD PTR [rbp-0xdc],0x0
  40287d:	0f 84 10 00 00 00    	je     402893 <generate_testcase+0x303>
  402883:	31 c0                	xor    eax,eax
  402885:	2b 45 c4             	sub    eax,DWORD PTR [rbp-0x3c]
  402888:	89 85 08 ff ff ff    	mov    DWORD PTR [rbp-0xf8],eax
  40288e:	e9 09 00 00 00       	jmp    40289c <generate_testcase+0x30c>
  402893:	8b 45 c4             	mov    eax,DWORD PTR [rbp-0x3c]
  402896:	89 85 08 ff ff ff    	mov    DWORD PTR [rbp-0xf8],eax
  40289c:	8b 8d 08 ff ff ff    	mov    ecx,DWORD PTR [rbp-0xf8]
  4028a2:	48 8b 45 f8          	mov    rax,QWORD PTR [rbp-0x8]
  4028a6:	48 8b 55 c8          	mov    rdx,QWORD PTR [rbp-0x38]
  4028aa:	48 c1 e2 07          	shl    rdx,0x7
  4028ae:	48 01 d0             	add    rax,rdx
  4028b1:	89 48 7c             	mov    DWORD PTR [rax+0x7c],ecx
  4028b4:	48 8b 45 c8          	mov    rax,QWORD PTR [rbp-0x38]
  4028b8:	48 83 c0 01          	add    rax,0x1
  4028bc:	48 89 45 c8          	mov    QWORD PTR [rbp-0x38],rax
  4028c0:	e9 0e fd ff ff       	jmp    4025d3 <generate_testcase+0x43>
  4028c5:	48 81 c4 00 01 00 00 	add    rsp,0x100
  4028cc:	5d                   	pop    rbp
  4028cd:	c3                   	ret    
  4028ce:	66 90                	xchg   ax,ax

00000000004028d0 <ft_atoi_base_ref>:
  4028d0:	55                   	push   rbp
  4028d1:	48 89 e5             	mov    rbp,rsp
  4028d4:	48 83 ec 30          	sub    rsp,0x30
  4028d8:	48 89 7d f0          	mov    QWORD PTR [rbp-0x10],rdi
  4028dc:	48 89 75 e8          	mov    QWORD PTR [rbp-0x18],rsi
  4028e0:	48 8b 7d e8          	mov    rdi,QWORD PTR [rbp-0x18]
  4028e4:	e8 47 01 00 00       	call   402a30 <base_validity>
  4028e9:	89 45 e4             	mov    DWORD PTR [rbp-0x1c],eax
  4028ec:	83 7d e4 01          	cmp    DWORD PTR [rbp-0x1c],0x1
  4028f0:	0f 85 0c 00 00 00    	jne    402902 <ft_atoi_base_ref+0x32>
  4028f6:	c7 45 fc 00 00 00 00 	mov    DWORD PTR [rbp-0x4],0x0
  4028fd:	e9 16 01 00 00       	jmp    402a18 <ft_atoi_base_ref+0x148>
  402902:	e9 00 00 00 00       	jmp    402907 <ft_atoi_base_ref+0x37>
  402907:	48 8b 45 f0          	mov    rax,QWORD PTR [rbp-0x10]
  40290b:	0f be 00             	movsx  eax,BYTE PTR [rax]
  40290e:	83 f8 09             	cmp    eax,0x9
  402911:	0f 8c 15 00 00 00    	jl     40292c <ft_atoi_base_ref+0x5c>
  402917:	48 8b 45 f0          	mov    rax,QWORD PTR [rbp-0x10]
  40291b:	0f be 08             	movsx  ecx,BYTE PTR [rax]
  40291e:	b0 01                	mov    al,0x1
  402920:	83 f9 0d             	cmp    ecx,0xd
  402923:	88 45 d7             	mov    BYTE PTR [rbp-0x29],al
  402926:	0f 8e 10 00 00 00    	jle    40293c <ft_atoi_base_ref+0x6c>
  40292c:	48 8b 45 f0          	mov    rax,QWORD PTR [rbp-0x10]
  402930:	0f be 00             	movsx  eax,BYTE PTR [rax]
  402933:	83 f8 20             	cmp    eax,0x20
  402936:	0f 94 c0             	sete   al
  402939:	88 45 d7             	mov    BYTE PTR [rbp-0x29],al
  40293c:	8a 45 d7             	mov    al,BYTE PTR [rbp-0x29]
  40293f:	a8 01                	test   al,0x1
  402941:	0f 85 05 00 00 00    	jne    40294c <ft_atoi_base_ref+0x7c>
  402947:	e9 11 00 00 00       	jmp    40295d <ft_atoi_base_ref+0x8d>
  40294c:	48 8b 45 f0          	mov    rax,QWORD PTR [rbp-0x10]
  402950:	48 83 c0 01          	add    rax,0x1
  402954:	48 89 45 f0          	mov    QWORD PTR [rbp-0x10],rax
  402958:	e9 aa ff ff ff       	jmp    402907 <ft_atoi_base_ref+0x37>
  40295d:	c7 45 dc 00 00 00 00 	mov    DWORD PTR [rbp-0x24],0x0
  402964:	48 8b 45 f0          	mov    rax,QWORD PTR [rbp-0x10]
  402968:	0f be 08             	movsx  ecx,BYTE PTR [rax]
  40296b:	b0 01                	mov    al,0x1
  40296d:	83 f9 2d             	cmp    ecx,0x2d
  402970:	88 45 d6             	mov    BYTE PTR [rbp-0x2a],al
  402973:	0f 84 10 00 00 00    	je     402989 <ft_atoi_base_ref+0xb9>
  402979:	48 8b 45 f0          	mov    rax,QWORD PTR [rbp-0x10]
  40297d:	0f be 00             	movsx  eax,BYTE PTR [rax]
  402980:	83 f8 2b             	cmp    eax,0x2b
  402983:	0f 94 c0             	sete   al
  402986:	88 45 d6             	mov    BYTE PTR [rbp-0x2a],al
  402989:	8a 45 d6             	mov    al,BYTE PTR [rbp-0x2a]
  40298c:	a8 01                	test   al,0x1
  40298e:	0f 85 05 00 00 00    	jne    402999 <ft_atoi_base_ref+0xc9>
  402994:	e9 29 00 00 00       	jmp    4029c2 <ft_atoi_base_ref+0xf2>
  402999:	48 8b 45 f0          	mov    rax,QWORD PTR [rbp-0x10]
  40299d:	0f be 00             	movsx  eax,BYTE PTR [rax]
  4029a0:	83 f8 2d             	cmp    eax,0x2d
  4029a3:	0f 94 c0             	sete   al
  4029a6:	24 01                	and    al,0x1
  4029a8:	0f b6 c0             	movzx  eax,al
  4029ab:	03 45 dc             	add    eax,DWORD PTR [rbp-0x24]
  4029ae:	89 45 dc             	mov    DWORD PTR [rbp-0x24],eax
  4029b1:	48 8b 45 f0          	mov    rax,QWORD PTR [rbp-0x10]
  4029b5:	48 83 c0 01          	add    rax,0x1
  4029b9:	48 89 45 f0          	mov    QWORD PTR [rbp-0x10],rax
  4029bd:	e9 a2 ff ff ff       	jmp    402964 <ft_atoi_base_ref+0x94>
  4029c2:	48 8b 7d f0          	mov    rdi,QWORD PTR [rbp-0x10]
  4029c6:	48 8b 75 e8          	mov    rsi,QWORD PTR [rbp-0x18]
  4029ca:	e8 c1 01 00 00       	call   402b90 <strlen_base>
  4029cf:	89 45 e0             	mov    DWORD PTR [rbp-0x20],eax
  4029d2:	83 7d e0 00          	cmp    DWORD PTR [rbp-0x20],0x0
  4029d6:	0f 85 0c 00 00 00    	jne    4029e8 <ft_atoi_base_ref+0x118>
  4029dc:	c7 45 fc 00 00 00 00 	mov    DWORD PTR [rbp-0x4],0x0
  4029e3:	e9 30 00 00 00       	jmp    402a18 <ft_atoi_base_ref+0x148>
  4029e8:	48 8b 7d f0          	mov    rdi,QWORD PTR [rbp-0x10]
  4029ec:	48 63 45 e0          	movsxd rax,DWORD PTR [rbp-0x20]
  4029f0:	48 01 c7             	add    rdi,rax
  4029f3:	48 83 c7 ff          	add    rdi,0xffffffffffffffff
  4029f7:	48 8b 75 e8          	mov    rsi,QWORD PTR [rbp-0x18]
  4029fb:	8b 55 e4             	mov    edx,DWORD PTR [rbp-0x1c]
  4029fe:	8b 4d e0             	mov    ecx,DWORD PTR [rbp-0x20]
  402a01:	e8 3a 02 00 00       	call   402c40 <str_decode>
  402a06:	89 45 d8             	mov    DWORD PTR [rbp-0x28],eax
  402a09:	8b 75 dc             	mov    esi,DWORD PTR [rbp-0x24]
  402a0c:	48 8d 7d d8          	lea    rdi,[rbp-0x28]
  402a10:	e8 eb 02 00 00       	call   402d00 <ret_check>
  402a15:	89 45 fc             	mov    DWORD PTR [rbp-0x4],eax
  402a18:	8b 45 fc             	mov    eax,DWORD PTR [rbp-0x4]
  402a1b:	48 83 c4 30          	add    rsp,0x30
  402a1f:	5d                   	pop    rbp
  402a20:	c3                   	ret    
  402a21:	66 2e 0f 1f 84 00 00 	cs nop WORD PTR [rax+rax*1+0x0]
  402a28:	00 00 00 
  402a2b:	0f 1f 44 00 00       	nop    DWORD PTR [rax+rax*1+0x0]

0000000000402a30 <base_validity>:
  402a30:	55                   	push   rbp
  402a31:	48 89 e5             	mov    rbp,rsp
  402a34:	48 89 7d f0          	mov    QWORD PTR [rbp-0x10],rdi
  402a38:	c7 45 8c 00 00 00 00 	mov    DWORD PTR [rbp-0x74],0x0
  402a3f:	83 7d 8c 60          	cmp    DWORD PTR [rbp-0x74],0x60
  402a43:	0f 8d 17 00 00 00    	jge    402a60 <base_validity+0x30>
  402a49:	8b 45 8c             	mov    eax,DWORD PTR [rbp-0x74]
  402a4c:	89 c1                	mov    ecx,eax
  402a4e:	83 c1 01             	add    ecx,0x1
  402a51:	89 4d 8c             	mov    DWORD PTR [rbp-0x74],ecx
  402a54:	48 98                	cdqe   
  402a56:	c6 44 05 90 00       	mov    BYTE PTR [rbp+rax*1-0x70],0x0
  402a5b:	e9 df ff ff ff       	jmp    402a3f <base_validity+0xf>
  402a60:	c7 45 8c 00 00 00 00 	mov    DWORD PTR [rbp-0x74],0x0
  402a67:	48 8b 45 f0          	mov    rax,QWORD PTR [rbp-0x10]
  402a6b:	0f be 00             	movsx  eax,BYTE PTR [rax]
  402a6e:	83 f8 00             	cmp    eax,0x0
  402a71:	0f 84 f1 00 00 00    	je     402b68 <base_validity+0x138>
  402a77:	48 8b 45 f0          	mov    rax,QWORD PTR [rbp-0x10]
  402a7b:	0f be 00             	movsx  eax,BYTE PTR [rax]
  402a7e:	83 e8 20             	sub    eax,0x20
  402a81:	48 98                	cdqe   
  402a83:	80 7c 05 90 00       	cmp    BYTE PTR [rbp+rax*1-0x70],0x0
  402a88:	0f 84 0c 00 00 00    	je     402a9a <base_validity+0x6a>
  402a8e:	c7 45 fc 01 00 00 00 	mov    DWORD PTR [rbp-0x4],0x1
  402a95:	e9 ea 00 00 00       	jmp    402b84 <base_validity+0x154>
  402a9a:	48 8b 45 f0          	mov    rax,QWORD PTR [rbp-0x10]
  402a9e:	0f be 00             	movsx  eax,BYTE PTR [rax]
  402aa1:	83 f8 2b             	cmp    eax,0x2b
  402aa4:	0f 84 10 00 00 00    	je     402aba <base_validity+0x8a>
  402aaa:	48 8b 45 f0          	mov    rax,QWORD PTR [rbp-0x10]
  402aae:	0f be 00             	movsx  eax,BYTE PTR [rax]
  402ab1:	83 f8 2d             	cmp    eax,0x2d
  402ab4:	0f 85 0c 00 00 00    	jne    402ac6 <base_validity+0x96>
  402aba:	c7 45 fc 01 00 00 00 	mov    DWORD PTR [rbp-0x4],0x1
  402ac1:	e9 be 00 00 00       	jmp    402b84 <base_validity+0x154>
  402ac6:	48 8b 45 f0          	mov    rax,QWORD PTR [rbp-0x10]
  402aca:	0f be 00             	movsx  eax,BYTE PTR [rax]
  402acd:	83 f8 20             	cmp    eax,0x20
  402ad0:	0f 84 20 00 00 00    	je     402af6 <base_validity+0xc6>
  402ad6:	48 8b 45 f0          	mov    rax,QWORD PTR [rbp-0x10]
  402ada:	0f be 00             	movsx  eax,BYTE PTR [rax]
  402add:	83 f8 09             	cmp    eax,0x9
  402ae0:	0f 8c 1c 00 00 00    	jl     402b02 <base_validity+0xd2>
  402ae6:	48 8b 45 f0          	mov    rax,QWORD PTR [rbp-0x10]
  402aea:	0f be 00             	movsx  eax,BYTE PTR [rax]
  402aed:	83 f8 0d             	cmp    eax,0xd
  402af0:	0f 8f 0c 00 00 00    	jg     402b02 <base_validity+0xd2>
  402af6:	c7 45 fc 01 00 00 00 	mov    DWORD PTR [rbp-0x4],0x1
  402afd:	e9 82 00 00 00       	jmp    402b84 <base_validity+0x154>
  402b02:	48 8b 45 f0          	mov    rax,QWORD PTR [rbp-0x10]
  402b06:	0f be 00             	movsx  eax,BYTE PTR [rax]
  402b09:	83 f8 20             	cmp    eax,0x20
  402b0c:	0f 8c 10 00 00 00    	jl     402b22 <base_validity+0xf2>
  402b12:	48 8b 45 f0          	mov    rax,QWORD PTR [rbp-0x10]
  402b16:	0f be 00             	movsx  eax,BYTE PTR [rax]
  402b19:	83 f8 7f             	cmp    eax,0x7f
  402b1c:	0f 85 0c 00 00 00    	jne    402b2e <base_validity+0xfe>
  402b22:	c7 45 fc 01 00 00 00 	mov    DWORD PTR [rbp-0x4],0x1
  402b29:	e9 56 00 00 00       	jmp    402b84 <base_validity+0x154>
  402b2e:	e9 00 00 00 00       	jmp    402b33 <base_validity+0x103>
  402b33:	e9 00 00 00 00       	jmp    402b38 <base_validity+0x108>
  402b38:	e9 00 00 00 00       	jmp    402b3d <base_validity+0x10d>
  402b3d:	48 8b 45 f0          	mov    rax,QWORD PTR [rbp-0x10]
  402b41:	0f be 00             	movsx  eax,BYTE PTR [rax]
  402b44:	83 e8 20             	sub    eax,0x20
  402b47:	48 98                	cdqe   
  402b49:	c6 44 05 90 01       	mov    BYTE PTR [rbp+rax*1-0x70],0x1
  402b4e:	48 8b 45 f0          	mov    rax,QWORD PTR [rbp-0x10]
  402b52:	48 83 c0 01          	add    rax,0x1
  402b56:	48 89 45 f0          	mov    QWORD PTR [rbp-0x10],rax
  402b5a:	8b 45 8c             	mov    eax,DWORD PTR [rbp-0x74]
  402b5d:	83 c0 01             	add    eax,0x1
  402b60:	89 45 8c             	mov    DWORD PTR [rbp-0x74],eax
  402b63:	e9 ff fe ff ff       	jmp    402a67 <base_validity+0x37>
  402b68:	83 7d 8c 02          	cmp    DWORD PTR [rbp-0x74],0x2
  402b6c:	0f 8d 0c 00 00 00    	jge    402b7e <base_validity+0x14e>
  402b72:	c7 45 fc 01 00 00 00 	mov    DWORD PTR [rbp-0x4],0x1
  402b79:	e9 06 00 00 00       	jmp    402b84 <base_validity+0x154>
  402b7e:	8b 45 8c             	mov    eax,DWORD PTR [rbp-0x74]
  402b81:	89 45 fc             	mov    DWORD PTR [rbp-0x4],eax
  402b84:	8b 45 fc             	mov    eax,DWORD PTR [rbp-0x4]
  402b87:	5d                   	pop    rbp
  402b88:	c3                   	ret    
  402b89:	0f 1f 80 00 00 00 00 	nop    DWORD PTR [rax+0x0]

0000000000402b90 <strlen_base>:
  402b90:	55                   	push   rbp
  402b91:	48 89 e5             	mov    rbp,rsp
  402b94:	48 89 7d f8          	mov    QWORD PTR [rbp-0x8],rdi
  402b98:	48 89 75 f0          	mov    QWORD PTR [rbp-0x10],rsi
  402b9c:	c7 45 ec 00 00 00 00 	mov    DWORD PTR [rbp-0x14],0x0
  402ba3:	48 8b 45 f8          	mov    rax,QWORD PTR [rbp-0x8]
  402ba7:	0f be 00             	movsx  eax,BYTE PTR [rax]
  402baa:	83 f8 00             	cmp    eax,0x0
  402bad:	0f 84 7c 00 00 00    	je     402c2f <strlen_base+0x9f>
  402bb3:	c7 45 e4 00 00 00 00 	mov    DWORD PTR [rbp-0x1c],0x0
  402bba:	c7 45 e8 00 00 00 00 	mov    DWORD PTR [rbp-0x18],0x0
  402bc1:	48 8b 45 f0          	mov    rax,QWORD PTR [rbp-0x10]
  402bc5:	48 63 4d e4          	movsxd rcx,DWORD PTR [rbp-0x1c]
  402bc9:	0f be 04 08          	movsx  eax,BYTE PTR [rax+rcx*1]
  402bcd:	83 f8 00             	cmp    eax,0x0
  402bd0:	0f 84 30 00 00 00    	je     402c06 <strlen_base+0x76>
  402bd6:	48 8b 45 f0          	mov    rax,QWORD PTR [rbp-0x10]
  402bda:	48 63 4d e4          	movsxd rcx,DWORD PTR [rbp-0x1c]
  402bde:	0f be 04 08          	movsx  eax,BYTE PTR [rax+rcx*1]
  402be2:	48 8b 4d f8          	mov    rcx,QWORD PTR [rbp-0x8]
  402be6:	0f be 09             	movsx  ecx,BYTE PTR [rcx]
  402be9:	39 c8                	cmp    eax,ecx
  402beb:	0f 85 07 00 00 00    	jne    402bf8 <strlen_base+0x68>
  402bf1:	c7 45 e8 01 00 00 00 	mov    DWORD PTR [rbp-0x18],0x1
  402bf8:	8b 45 e4             	mov    eax,DWORD PTR [rbp-0x1c]
  402bfb:	83 c0 01             	add    eax,0x1
  402bfe:	89 45 e4             	mov    DWORD PTR [rbp-0x1c],eax
  402c01:	e9 bb ff ff ff       	jmp    402bc1 <strlen_base+0x31>
  402c06:	83 7d e8 00          	cmp    DWORD PTR [rbp-0x18],0x0
  402c0a:	0f 85 05 00 00 00    	jne    402c15 <strlen_base+0x85>
  402c10:	e9 1a 00 00 00       	jmp    402c2f <strlen_base+0x9f>
  402c15:	8b 45 ec             	mov    eax,DWORD PTR [rbp-0x14]
  402c18:	83 c0 01             	add    eax,0x1
  402c1b:	89 45 ec             	mov    DWORD PTR [rbp-0x14],eax
  402c1e:	48 8b 45 f8          	mov    rax,QWORD PTR [rbp-0x8]
  402c22:	48 83 c0 01          	add    rax,0x1
  402c26:	48 89 45 f8          	mov    QWORD PTR [rbp-0x8],rax
  402c2a:	e9 74 ff ff ff       	jmp    402ba3 <strlen_base+0x13>
  402c2f:	8b 45 ec             	mov    eax,DWORD PTR [rbp-0x14]
  402c32:	5d                   	pop    rbp
  402c33:	c3                   	ret    
  402c34:	66 2e 0f 1f 84 00 00 	cs nop WORD PTR [rax+rax*1+0x0]
  402c3b:	00 00 00 
  402c3e:	66 90                	xchg   ax,ax

0000000000402c40 <str_decode>:
  402c40:	55                   	push   rbp
  402c41:	48 89 e5             	mov    rbp,rsp
  402c44:	48 83 ec 30          	sub    rsp,0x30
  402c48:	48 89 7d f0          	mov    QWORD PTR [rbp-0x10],rdi
  402c4c:	48 89 75 e8          	mov    QWORD PTR [rbp-0x18],rsi
  402c50:	89 55 e4             	mov    DWORD PTR [rbp-0x1c],edx
  402c53:	89 4d e0             	mov    DWORD PTR [rbp-0x20],ecx
  402c56:	83 7d e0 00          	cmp    DWORD PTR [rbp-0x20],0x0
  402c5a:	0f 85 0c 00 00 00    	jne    402c6c <str_decode+0x2c>
  402c60:	c7 45 fc 00 00 00 00 	mov    DWORD PTR [rbp-0x4],0x0
  402c67:	e9 80 00 00 00       	jmp    402cec <str_decode+0xac>
  402c6c:	c7 45 dc 00 00 00 00 	mov    DWORD PTR [rbp-0x24],0x0
  402c73:	48 8b 45 e8          	mov    rax,QWORD PTR [rbp-0x18]
  402c77:	48 63 4d dc          	movsxd rcx,DWORD PTR [rbp-0x24]
  402c7b:	0f be 04 08          	movsx  eax,BYTE PTR [rax+rcx*1]
  402c7f:	83 f8 00             	cmp    eax,0x0
  402c82:	0f 84 2e 00 00 00    	je     402cb6 <str_decode+0x76>
  402c88:	48 8b 45 e8          	mov    rax,QWORD PTR [rbp-0x18]
  402c8c:	48 63 4d dc          	movsxd rcx,DWORD PTR [rbp-0x24]
  402c90:	0f be 04 08          	movsx  eax,BYTE PTR [rax+rcx*1]
  402c94:	48 8b 4d f0          	mov    rcx,QWORD PTR [rbp-0x10]
  402c98:	0f be 09             	movsx  ecx,BYTE PTR [rcx]
  402c9b:	39 c8                	cmp    eax,ecx
  402c9d:	0f 85 05 00 00 00    	jne    402ca8 <str_decode+0x68>
  402ca3:	e9 0e 00 00 00       	jmp    402cb6 <str_decode+0x76>
  402ca8:	8b 45 dc             	mov    eax,DWORD PTR [rbp-0x24]
  402cab:	83 c0 01             	add    eax,0x1
  402cae:	89 45 dc             	mov    DWORD PTR [rbp-0x24],eax
  402cb1:	e9 bd ff ff ff       	jmp    402c73 <str_decode+0x33>
  402cb6:	8b 45 dc             	mov    eax,DWORD PTR [rbp-0x24]
  402cb9:	89 45 d8             	mov    DWORD PTR [rbp-0x28],eax
  402cbc:	8b 45 e4             	mov    eax,DWORD PTR [rbp-0x1c]
  402cbf:	89 45 d4             	mov    DWORD PTR [rbp-0x2c],eax
  402cc2:	48 8b 7d f0          	mov    rdi,QWORD PTR [rbp-0x10]
  402cc6:	48 83 c7 ff          	add    rdi,0xffffffffffffffff
  402cca:	48 8b 75 e8          	mov    rsi,QWORD PTR [rbp-0x18]
  402cce:	8b 55 e4             	mov    edx,DWORD PTR [rbp-0x1c]
  402cd1:	8b 4d e0             	mov    ecx,DWORD PTR [rbp-0x20]
  402cd4:	83 e9 01             	sub    ecx,0x1
  402cd7:	e8 64 ff ff ff       	call   402c40 <str_decode>
  402cdc:	8b 4d d4             	mov    ecx,DWORD PTR [rbp-0x2c]
  402cdf:	89 c2                	mov    edx,eax
  402ce1:	8b 45 d8             	mov    eax,DWORD PTR [rbp-0x28]
  402ce4:	0f af ca             	imul   ecx,edx
  402ce7:	01 c8                	add    eax,ecx
  402ce9:	89 45 fc             	mov    DWORD PTR [rbp-0x4],eax
  402cec:	8b 45 fc             	mov    eax,DWORD PTR [rbp-0x4]
  402cef:	48 83 c4 30          	add    rsp,0x30
  402cf3:	5d                   	pop    rbp
  402cf4:	c3                   	ret    
  402cf5:	66 2e 0f 1f 84 00 00 	cs nop WORD PTR [rax+rax*1+0x0]
  402cfc:	00 00 00 
  402cff:	90                   	nop

0000000000402d00 <ret_check>:
  402d00:	55                   	push   rbp
  402d01:	48 89 e5             	mov    rbp,rsp
  402d04:	48 89 7d f0          	mov    QWORD PTR [rbp-0x10],rdi
  402d08:	89 75 ec             	mov    DWORD PTR [rbp-0x14],esi
  402d0b:	48 8b 45 f0          	mov    rax,QWORD PTR [rbp-0x10]
  402d0f:	48 63 00             	movsxd rax,DWORD PTR [rax]
  402d12:	48 3d 00 00 00 80    	cmp    rax,0xffffffff80000000
  402d18:	0f 85 0c 00 00 00    	jne    402d2a <ret_check+0x2a>
  402d1e:	c7 45 fc 00 00 00 80 	mov    DWORD PTR [rbp-0x4],0x80000000
  402d25:	e9 34 00 00 00       	jmp    402d5e <ret_check+0x5e>
  402d2a:	8b 45 ec             	mov    eax,DWORD PTR [rbp-0x14]
  402d2d:	b9 02 00 00 00       	mov    ecx,0x2
  402d32:	99                   	cdq    
  402d33:	f7 f9                	idiv   ecx
  402d35:	83 fa 01             	cmp    edx,0x1
  402d38:	0f 85 12 00 00 00    	jne    402d50 <ret_check+0x50>
  402d3e:	48 8b 45 f0          	mov    rax,QWORD PTR [rbp-0x10]
  402d42:	69 00 ff ff ff ff    	imul   eax,DWORD PTR [rax],0xffffffff
  402d48:	89 45 fc             	mov    DWORD PTR [rbp-0x4],eax
  402d4b:	e9 0e 00 00 00       	jmp    402d5e <ret_check+0x5e>
  402d50:	e9 00 00 00 00       	jmp    402d55 <ret_check+0x55>
  402d55:	48 8b 45 f0          	mov    rax,QWORD PTR [rbp-0x10]
  402d59:	8b 00                	mov    eax,DWORD PTR [rax]
  402d5b:	89 45 fc             	mov    DWORD PTR [rbp-0x4],eax
  402d5e:	8b 45 fc             	mov    eax,DWORD PTR [rbp-0x4]
  402d61:	5d                   	pop    rbp
  402d62:	c3                   	ret    
  402d63:	66 2e 0f 1f 84 00 00 	cs nop WORD PTR [rax+rax*1+0x0]
  402d6a:	00 00 00 
  402d6d:	0f 1f 00             	nop    DWORD PTR [rax]

0000000000402d70 <ft_strlen>:
  402d70:	48 89 f8             	mov    rax,rdi
  402d73:	48 ff c8             	dec    rax

0000000000402d76 <loop>:
  402d76:	48 ff c0             	inc    rax
  402d79:	40 8a 30             	mov    sil,BYTE PTR [rax]
  402d7c:	40 80 fe 00          	cmp    sil,0x0
  402d80:	75 f4                	jne    402d76 <loop>
  402d82:	48 29 f8             	sub    rax,rdi
  402d85:	c3                   	ret    
  402d86:	66 2e 0f 1f 84 00 00 	cs nop WORD PTR [rax+rax*1+0x0]
  402d8d:	00 00 00 

0000000000402d90 <ft_strcpy>:
  402d90:	48 89 f8             	mov    rax,rdi

0000000000402d93 <loop>:
  402d93:	8a 16                	mov    dl,BYTE PTR [rsi]
  402d95:	88 17                	mov    BYTE PTR [rdi],dl
  402d97:	48 ff c7             	inc    rdi
  402d9a:	48 ff c6             	inc    rsi
  402d9d:	80 fa 00             	cmp    dl,0x0
  402da0:	75 f1                	jne    402d93 <loop>
  402da2:	c3                   	ret    
  402da3:	66 2e 0f 1f 84 00 00 	cs nop WORD PTR [rax+rax*1+0x0]
  402daa:	00 00 00 
  402dad:	0f 1f 00             	nop    DWORD PTR [rax]

0000000000402db0 <ft_strcmp>:
  402db0:	31 d2                	xor    edx,edx
  402db2:	31 c9                	xor    ecx,ecx

0000000000402db4 <loop>:
  402db4:	8a 17                	mov    dl,BYTE PTR [rdi]
  402db6:	8a 0e                	mov    cl,BYTE PTR [rsi]
  402db8:	48 ff c7             	inc    rdi
  402dbb:	48 ff c6             	inc    rsi
  402dbe:	80 fa 00             	cmp    dl,0x0
  402dc1:	0f 94 c0             	sete   al
  402dc4:	80 f9 00             	cmp    cl,0x0
  402dc7:	41 0f 94 c0          	sete   r8b
  402dcb:	44 08 c0             	or     al,r8b
  402dce:	38 ca                	cmp    dl,cl
  402dd0:	41 0f 95 c0          	setne  r8b
  402dd4:	44 08 c0             	or     al,r8b
  402dd7:	3c 00                	cmp    al,0x0
  402dd9:	74 d9                	je     402db4 <loop>
  402ddb:	31 c0                	xor    eax,eax
  402ddd:	29 ca                	sub    edx,ecx
  402ddf:	89 d0                	mov    eax,edx
  402de1:	c3                   	ret    
  402de2:	66 2e 0f 1f 84 00 00 	cs nop WORD PTR [rax+rax*1+0x0]
  402de9:	00 00 00 
  402dec:	0f 1f 40 00          	nop    DWORD PTR [rax+0x0]

0000000000402df0 <ft_strdup>:
  402df0:	41 54                	push   r12
  402df2:	41 55                	push   r13
  402df4:	49 89 fc             	mov    r12,rdi

0000000000402df7 <loop0>:
  402df7:	8a 1f                	mov    bl,BYTE PTR [rdi]
  402df9:	48 ff c7             	inc    rdi
  402dfc:	80 fb 00             	cmp    bl,0x0
  402dff:	75 f6                	jne    402df7 <loop0>
  402e01:	49 89 fd             	mov    r13,rdi
  402e04:	4c 29 e7             	sub    rdi,r12
  402e07:	e8 f4 e2 ff ff       	call   401100 <malloc@plt>
  402e0c:	48 89 c7             	mov    rdi,rax
  402e0f:	48 31 f6             	xor    rsi,rsi

0000000000402e12 <loop1>:
  402e12:	41 8a 34 24          	mov    sil,BYTE PTR [r12]
  402e16:	40 88 37             	mov    BYTE PTR [rdi],sil
  402e19:	49 ff c4             	inc    r12
  402e1c:	48 ff c7             	inc    rdi
  402e1f:	4d 39 e5             	cmp    r13,r12
  402e22:	75 ee                	jne    402e12 <loop1>
  402e24:	c6 07 00             	mov    BYTE PTR [rdi],0x0
  402e27:	41 5d                	pop    r13
  402e29:	41 5c                	pop    r12
  402e2b:	c3                   	ret    
  402e2c:	0f 1f 40 00          	nop    DWORD PTR [rax+0x0]

0000000000402e30 <ft_read>:
  402e30:	55                   	push   rbp
  402e31:	48 89 e5             	mov    rbp,rsp
  402e34:	b8 00 00 00 00       	mov    eax,0x0
  402e39:	0f 05                	syscall 
  402e3b:	48 83 f8 00          	cmp    rax,0x0
  402e3f:	7d 14                	jge    402e55 <exit>
  402e41:	48 f7 d8             	neg    rax
  402e44:	50                   	push   rax
  402e45:	e8 d6 e1 ff ff       	call   401020 <__errno_location@plt>
  402e4a:	5f                   	pop    rdi
  402e4b:	48 89 38             	mov    QWORD PTR [rax],rdi
  402e4e:	48 c7 c0 ff ff ff ff 	mov    rax,0xffffffffffffffff

0000000000402e55 <exit>:
  402e55:	5d                   	pop    rbp
  402e56:	c3                   	ret    
  402e57:	66 0f 1f 84 00 00 00 	nop    WORD PTR [rax+rax*1+0x0]
  402e5e:	00 00 

0000000000402e60 <ft_write>:
  402e60:	55                   	push   rbp
  402e61:	48 89 e5             	mov    rbp,rsp
  402e64:	b8 01 00 00 00       	mov    eax,0x1
  402e69:	0f 05                	syscall 
  402e6b:	48 83 f8 00          	cmp    rax,0x0
  402e6f:	7d 14                	jge    402e85 <exit>
  402e71:	48 f7 d8             	neg    rax
  402e74:	50                   	push   rax
  402e75:	e8 a6 e1 ff ff       	call   401020 <__errno_location@plt>
  402e7a:	5f                   	pop    rdi
  402e7b:	48 89 38             	mov    QWORD PTR [rax],rdi
  402e7e:	48 c7 c0 ff ff ff ff 	mov    rax,0xffffffffffffffff

0000000000402e85 <exit>:
  402e85:	5d                   	pop    rbp
  402e86:	c3                   	ret    
  402e87:	66 0f 1f 84 00 00 00 	nop    WORD PTR [rax+rax*1+0x0]
  402e8e:	00 00 

0000000000402e90 <ft_atoi_base>:
  402e90:	55                   	push   rbp
  402e91:	53                   	push   rbx
  402e92:	48 89 e5             	mov    rbp,rsp
  402e95:	48 83 ec 18          	sub    rsp,0x18
  402e99:	48 89 74 24 08       	mov    QWORD PTR [rsp+0x8],rsi
  402e9e:	48 89 3c 24          	mov    QWORD PTR [rsp],rdi
  402ea2:	48 89 f7             	mov    rdi,rsi
  402ea5:	e8 3a 00 00 00       	call   402ee4 <verify_base>
  402eaa:	48 83 f8 01          	cmp    rax,0x1
  402eae:	76 2c                	jbe    402edc <error>
  402eb0:	48 89 c3             	mov    rbx,rax
  402eb3:	48 89 e7             	mov    rdi,rsp
  402eb6:	e8 b7 00 00 00       	call   402f72 <decide_sign>
  402ebb:	88 44 24 10          	mov    BYTE PTR [rsp+0x10],al
  402ebf:	48 8b 3c 24          	mov    rdi,QWORD PTR [rsp]
  402ec3:	48 8b 74 24 08       	mov    rsi,QWORD PTR [rsp+0x8]
  402ec8:	48 89 da             	mov    rdx,rbx
  402ecb:	e8 ec 00 00 00       	call   402fbc <calc_sum>
  402ed0:	80 7c 24 10 00       	cmp    BYTE PTR [rsp+0x10],0x0
  402ed5:	74 07                	je     402ede <ret>
  402ed7:	48 f7 d8             	neg    rax
  402eda:	eb 02                	jmp    402ede <ret>

0000000000402edc <error>:
  402edc:	31 c0                	xor    eax,eax

0000000000402ede <ret>:
  402ede:	48 89 ec             	mov    rsp,rbp
  402ee1:	5b                   	pop    rbx
  402ee2:	5d                   	pop    rbp
  402ee3:	c3                   	ret    

0000000000402ee4 <verify_base>:
  402ee4:	55                   	push   rbp
  402ee5:	53                   	push   rbx
  402ee6:	48 89 e5             	mov    rbp,rsp
  402ee9:	48 89 fa             	mov    rdx,rdi
  402eec:	48 31 db             	xor    rbx,rbx
  402eef:	48 81 ec 00 04 00 00 	sub    rsp,0x400
  402ef6:	48 31 c0             	xor    rax,rax
  402ef9:	b9 80 00 00 00       	mov    ecx,0x80
  402efe:	48 8d 3c 24          	lea    rdi,[rsp]
  402f02:	f3 48 ab             	rep stos QWORD PTR es:[rdi],rax

0000000000402f05 <verify_base_loop>:
  402f05:	48 0f b6 3a          	movzx  rdi,BYTE PTR [rdx]
  402f09:	40 80 ff 00          	cmp    dil,0x0
  402f0d:	74 3c                	je     402f4b <verify_base_ret>
  402f0f:	e8 40 00 00 00       	call   402f54 <is_space>
  402f14:	3c 00                	cmp    al,0x0
  402f16:	0f 94 c0             	sete   al
  402f19:	48 8b 34 fc          	mov    rsi,QWORD PTR [rsp+rdi*8]
  402f1d:	48 83 fe 00          	cmp    rsi,0x0
  402f21:	0f 94 c1             	sete   cl
  402f24:	20 c8                	and    al,cl
  402f26:	40 80 ff 2d          	cmp    dil,0x2d
  402f2a:	0f 95 c1             	setne  cl
  402f2d:	20 c8                	and    al,cl
  402f2f:	40 80 ff 2b          	cmp    dil,0x2b
  402f33:	0f 95 c1             	setne  cl
  402f36:	20 c8                	and    al,cl
  402f38:	3c 00                	cmp    al,0x0
  402f3a:	74 0c                	je     402f48 <verify_base_false>
  402f3c:	48 ff 04 fc          	inc    QWORD PTR [rsp+rdi*8]
  402f40:	48 ff c2             	inc    rdx
  402f43:	48 ff c3             	inc    rbx
  402f46:	eb bd                	jmp    402f05 <verify_base_loop>

0000000000402f48 <verify_base_false>:
  402f48:	48 31 db             	xor    rbx,rbx

0000000000402f4b <verify_base_ret>:
  402f4b:	48 89 d8             	mov    rax,rbx
  402f4e:	48 89 ec             	mov    rsp,rbp
  402f51:	5b                   	pop    rbx
  402f52:	5d                   	pop    rbp
  402f53:	c3                   	ret    

0000000000402f54 <is_space>:
  402f54:	40 80 ff 09          	cmp    dil,0x9
  402f58:	0f 9d c0             	setge  al
  402f5b:	40 80 ff 0d          	cmp    dil,0xd
  402f5f:	40 0f 9e c6          	setle  sil
  402f63:	40 20 f0             	and    al,sil
  402f66:	40 80 ff 20          	cmp    dil,0x20
  402f6a:	40 0f 94 c6          	sete   sil
  402f6e:	40 08 f0             	or     al,sil
  402f71:	c3                   	ret    

0000000000402f72 <decide_sign>:
  402f72:	53                   	push   rbx
  402f73:	48 89 fb             	mov    rbx,rdi
  402f76:	48 8b 17             	mov    rdx,QWORD PTR [rdi]
  402f79:	48 ff ca             	dec    rdx

0000000000402f7c <decide_sign_loop0>:
  402f7c:	48 ff c2             	inc    rdx
  402f7f:	40 8a 3a             	mov    dil,BYTE PTR [rdx]
  402f82:	e8 cd ff ff ff       	call   402f54 <is_space>
  402f87:	3c 00                	cmp    al,0x0
  402f89:	75 f1                	jne    402f7c <decide_sign_loop0>
  402f8b:	48 31 c0             	xor    rax,rax
  402f8e:	48 ff ca             	dec    rdx

0000000000402f91 <decide_sign_loop1>:
  402f91:	48 ff c2             	inc    rdx
  402f94:	40 8a 3a             	mov    dil,BYTE PTR [rdx]
  402f97:	40 80 ff 2d          	cmp    dil,0x2d
  402f9b:	40 0f 94 c6          	sete   sil
  402f9f:	48 0f b6 f6          	movzx  rsi,sil
  402fa3:	48 01 f0             	add    rax,rsi
  402fa6:	40 80 ff 2b          	cmp    dil,0x2b
  402faa:	0f 94 c1             	sete   cl
  402fad:	40 08 f1             	or     cl,sil
  402fb0:	80 f9 01             	cmp    cl,0x1
  402fb3:	74 dc                	je     402f91 <decide_sign_loop1>

0000000000402fb5 <decide_sign_exit>:
  402fb5:	24 01                	and    al,0x1
  402fb7:	48 89 13             	mov    QWORD PTR [rbx],rdx
  402fba:	5b                   	pop    rbx
  402fbb:	c3                   	ret    

0000000000402fbc <calc_sum>:
  402fbc:	55                   	push   rbp
  402fbd:	53                   	push   rbx
  402fbe:	41 54                	push   r12
  402fc0:	41 55                	push   r13
  402fc2:	41 56                	push   r14
  402fc4:	48 89 e5             	mov    rbp,rsp
  402fc7:	48 89 fb             	mov    rbx,rdi
  402fca:	49 89 f4             	mov    r12,rsi
  402fcd:	49 89 d5             	mov    r13,rdx
  402fd0:	4d 31 f6             	xor    r14,r14

0000000000402fd3 <calc_sum_loop>:
  402fd3:	40 8a 3b             	mov    dil,BYTE PTR [rbx]
  402fd6:	40 80 ff 00          	cmp    dil,0x0
  402fda:	74 19                	je     402ff5 <calc_sum_ret>
  402fdc:	4c 89 e6             	mov    rsi,r12
  402fdf:	e8 20 00 00 00       	call   403004 <get_base_idx>
  402fe4:	4c 39 e8             	cmp    rax,r13
  402fe7:	74 0c                	je     402ff5 <calc_sum_ret>
  402fe9:	4d 0f af f5          	imul   r14,r13
  402fed:	49 01 c6             	add    r14,rax
  402ff0:	48 ff c3             	inc    rbx
  402ff3:	eb de                	jmp    402fd3 <calc_sum_loop>

0000000000402ff5 <calc_sum_ret>:
  402ff5:	4c 89 f0             	mov    rax,r14
  402ff8:	48 89 ec             	mov    rsp,rbp
  402ffb:	41 5e                	pop    r14
  402ffd:	41 5d                	pop    r13
  402fff:	41 5c                	pop    r12
  403001:	5b                   	pop    rbx
  403002:	5d                   	pop    rbp
  403003:	c3                   	ret    

0000000000403004 <get_base_idx>:
  403004:	48 89 f0             	mov    rax,rsi

0000000000403007 <get_base_idx_loop>:
  403007:	8a 10                	mov    dl,BYTE PTR [rax]
  403009:	80 fa 00             	cmp    dl,0x0
  40300c:	74 0b                	je     403019 <get_base_idx_ret>
  40300e:	48 ff c0             	inc    rax
  403011:	40 38 fa             	cmp    dl,dil
  403014:	75 f1                	jne    403007 <get_base_idx_loop>
  403016:	48 ff c8             	dec    rax

0000000000403019 <get_base_idx_ret>:
  403019:	48 29 f0             	sub    rax,rsi
  40301c:	c3                   	ret    
