
tester_Linux:     file format elf64-x86-64

SYMBOL TABLE:
0000000000000000 l    df *ABS*	0000000000000000              Scrt1.o
0000000000400320 l     O .note.ABI-tag	0000000000000020              __abi_tag
0000000000000000 l    df *ABS*	0000000000000000              main.c
0000000000404120 l     O .bss	0000000000000008              n_case
00000000004040a0 l     O .data	0000000000000070              cases
0000000000000000 l    df *ABS*	0000000000000000              ft_strlen.s
0000000000401b4a l       .text	0000000000000000              loop
0000000000000000 l    df *ABS*	0000000000000000              ft_strcpy.s
0000000000401b67 l       .text	0000000000000000              loop
0000000000000000 l    df *ABS*	0000000000000000              ft_strcmp.s
0000000000401b88 l       .text	0000000000000000              loop
0000000000000000 l    df *ABS*	0000000000000000              ft_strdup.s
0000000000401bcb l       .text	0000000000000000              loop0
0000000000401be6 l       .text	0000000000000000              loop1
0000000000000000 l    df *ABS*	0000000000000000              ft_read.s
0000000000401c38 l       .text	0000000000000000              exit
0000000000000000 l    df *ABS*	0000000000000000              
0000000000403e78 l     O .dynamic	0000000000000000              _DYNAMIC
0000000000404000 l     O .got.plt	0000000000000000              _GLOBAL_OFFSET_TABLE_
0000000000000000       F *UND*	0000000000000000              free@GLIBC_2.2.5
00000000004011d0 g     F .text	00000000000000be              test_strlen
0000000000000000       F *UND*	0000000000000000              __libc_start_main@GLIBC_2.34
0000000000401b60 g       .text	0000000000000000              ft_strcpy
0000000000000000       F *UND*	0000000000000000              __errno_location@GLIBC_2.2.5
0000000000404080  w      .data	0000000000000000              data_start
0000000000000000       F *UND*	0000000000000000              strcpy@GLIBC_2.2.5
0000000000401830 g     F .text	0000000000000302              test_read_error
0000000000000000       F *UND*	0000000000000000              write@GLIBC_2.2.5
0000000000401b40 g       .text	0000000000000000              ft_strlen
0000000000404110 g       .data	0000000000000000              _edata
00000000004015c0 g     F .text	000000000000026d              test_read_normal
0000000000000000       F *UND*	0000000000000000              strlen@GLIBC_2.2.5
0000000000000000       F *UND*	0000000000000000              printf@GLIBC_2.2.5
0000000000000000       F *UND*	0000000000000000              memset@GLIBC_2.2.5
0000000000000000       F *UND*	0000000000000000              pipe@GLIBC_2.2.5
0000000000000000       F *UND*	0000000000000000              read@GLIBC_2.2.5
0000000000404080 g       .data	0000000000000000              __data_start
0000000000000000       F *UND*	0000000000000000              strcmp@GLIBC_2.2.5
0000000000401290 g     F .text	0000000000000114              test_strcpy
0000000000404110 g     O .bss	0000000000000008              g_long_string_len
0000000000404118 g     O .bss	0000000000000008              g_long_string
0000000000402000 g     O .rodata	0000000000000004              _IO_stdin_used
0000000000401bc0 g       .text	0000000000000000              ft_strdup
0000000000000000       F *UND*	0000000000000000              malloc@GLIBC_2.2.5
00000000004013b0 g     F .text	0000000000000100              test_strcmp
0000000000404128 g       .bss	0000000000000000              _end
00000000004010e0 g     F .text	0000000000000026              _start
0000000000404110 g       .bss	0000000000000000              __bss_start
0000000000401110 g     F .text	00000000000000b2              main
0000000000404090 g     O .data	0000000000000008              g_random_num
0000000000401b80 g       .text	0000000000000000              ft_strcmp
0000000000401c10 g       .text	0000000000000000              ft_read
00000000004014b0 g     F .text	000000000000010c              test_strdup
0000000000000000       F *UND*	0000000000000000              strdup@GLIBC_2.2.5
0000000000000000       F *UND*	0000000000000000              strerror@GLIBC_2.2.5


Contents of section .interp:
 4002e0 2f6c6962 36342f6c 642d6c69 6e75782d  /lib64/ld-linux-
 4002f0 7838362d 36342e73 6f2e3200           x86-64.so.2.    
Contents of section .note.gnu.property:
 400300 04000000 10000000 05000000 474e5500  ............GNU.
 400310 028000c0 04000000 01000000 00000000  ................
Contents of section .note.ABI-tag:
 400320 04000000 10000000 01000000 474e5500  ............GNU.
 400330 00000000 03000000 02000000 00000000  ................
Contents of section .hash:
 400340 03000000 0f000000 08000000 0e000000  ................
 400350 0d000000 00000000 00000000 01000000  ................
 400360 02000000 00000000 00000000 03000000  ................
 400370 04000000 05000000 06000000 09000000  ................
 400380 07000000 0b000000 0c000000 0a000000  ................
Contents of section .gnu.hash:
 400390 01000000 01000000 01000000 00000000  ................
 4003a0 00000000 00000000 00000000           ............    
Contents of section .dynsym:
 4003b0 00000000 00000000 00000000 00000000  ................
 4003c0 00000000 00000000 44000000 12000000  ........D.......
 4003d0 00000000 00000000 00000000 00000000  ................
 4003e0 01000000 12000000 00000000 00000000  ................
 4003f0 00000000 00000000 59000000 12000000  ........Y.......
 400400 00000000 00000000 00000000 00000000  ................
 400410 2f000000 12000000 00000000 00000000  /...............
 400420 00000000 00000000 4e000000 12000000  ........N.......
 400430 00000000 00000000 00000000 00000000  ................
 400440 21000000 12000000 00000000 00000000  !...............
 400450 00000000 00000000 28000000 12000000  ........(.......
 400460 00000000 00000000 00000000 00000000  ................
 400470 1a000000 12000000 00000000 00000000  ................
 400480 00000000 00000000 49000000 12000000  ........I.......
 400490 00000000 00000000 00000000 00000000  ................
 4004a0 54000000 12000000 00000000 00000000  T...............
 4004b0 00000000 00000000 36000000 12000000  ........6.......
 4004c0 00000000 00000000 00000000 00000000  ................
 4004d0 13000000 12000000 00000000 00000000  ................
 4004e0 00000000 00000000 3d000000 12000000  ........=.......
 4004f0 00000000 00000000 00000000 00000000  ................
 400500 6a000000 12000000 00000000 00000000  j...............
 400510 00000000 00000000                    ........        
Contents of section .dynstr:
 400518 005f5f6c 6962635f 73746172 745f6d61  .__libc_start_ma
 400528 696e006d 616c6c6f 63006d65 6d736574  in.malloc.memset
 400538 00737472 6c656e00 7072696e 74660073  .strlen.printf.s
 400548 74726370 79007374 72636d70 00737472  trcpy.strcmp.str
 400558 64757000 66726565 00706970 65007772  dup.free.pipe.wr
 400568 69746500 72656164 005f5f65 72726e6f  ite.read.__errno
 400578 5f6c6f63 6174696f 6e007374 72657272  _location.strerr
 400588 6f72006c 6962632e 736f2e36 00474c49  or.libc.so.6.GLI
 400598 42435f32 2e333400 474c4942 435f322e  BC_2.34.GLIBC_2.
 4005a8 322e3500                             2.5.            
Contents of section .gnu.version:
 4005ac 00000200 03000200 02000200 02000200  ................
 4005bc 02000200 02000200 02000200 0200      ..............  
Contents of section .gnu.version_r:
 4005d0 01000200 73000000 10000000 00000000  ....s...........
 4005e0 b4919606 00000300 7d000000 10000000  ........}.......
 4005f0 751a6909 00000200 88000000 00000000  u.i.............
Contents of section .rela.dyn:
 400600 f83f4000 00000000 06000000 02000000  .?@.............
 400610 00000000 00000000                    ........        
Contents of section .rela.plt:
 400618 18404000 00000000 07000000 01000000  .@@.............
 400628 00000000 00000000 20404000 00000000  ........ @@.....
 400638 07000000 03000000 00000000 00000000  ................
 400648 28404000 00000000 07000000 04000000  (@@.............
 400658 00000000 00000000 30404000 00000000  ........0@@.....
 400668 07000000 05000000 00000000 00000000  ................
 400678 38404000 00000000 07000000 06000000  8@@.............
 400688 00000000 00000000 40404000 00000000  ........@@@.....
 400698 07000000 07000000 00000000 00000000  ................
 4006a8 48404000 00000000 07000000 08000000  H@@.............
 4006b8 00000000 00000000 50404000 00000000  ........P@@.....
 4006c8 07000000 09000000 00000000 00000000  ................
 4006d8 58404000 00000000 07000000 0a000000  X@@.............
 4006e8 00000000 00000000 60404000 00000000  ........`@@.....
 4006f8 07000000 0b000000 00000000 00000000  ................
 400708 68404000 00000000 07000000 0c000000  h@@.............
 400718 00000000 00000000 70404000 00000000  ........p@@.....
 400728 07000000 0d000000 00000000 00000000  ................
 400738 78404000 00000000 07000000 0e000000  x@@.............
 400748 00000000 00000000                    ........        
Contents of section .plt:
 401000 ff350230 0000ff25 04300000 0f1f4000  .5.0...%.0....@.
 401010 ff250230 00006800 000000e9 e0ffffff  .%.0..h.........
 401020 ff25fa2f 00006801 000000e9 d0ffffff  .%./..h.........
 401030 ff25f22f 00006802 000000e9 c0ffffff  .%./..h.........
 401040 ff25ea2f 00006803 000000e9 b0ffffff  .%./..h.........
 401050 ff25e22f 00006804 000000e9 a0ffffff  .%./..h.........
 401060 ff25da2f 00006805 000000e9 90ffffff  .%./..h.........
 401070 ff25d22f 00006806 000000e9 80ffffff  .%./..h.........
 401080 ff25ca2f 00006807 000000e9 70ffffff  .%./..h.....p...
 401090 ff25c22f 00006808 000000e9 60ffffff  .%./..h.....`...
 4010a0 ff25ba2f 00006809 000000e9 50ffffff  .%./..h.....P...
 4010b0 ff25b22f 0000680a 000000e9 40ffffff  .%./..h.....@...
 4010c0 ff25aa2f 0000680b 000000e9 30ffffff  .%./..h.....0...
 4010d0 ff25a22f 0000680c 000000e9 20ffffff  .%./..h..... ...
Contents of section .text:
 4010e0 f30f1efa 31ed4989 d15e4889 e24883e4  ....1.I..^H..H..
 4010f0 f0505445 31c031c9 48c7c710 114000ff  .PTE1.1.H....@..
 401100 15f32e00 00f4662e 0f1f8400 00000000  ......f.........
 401110 554889e5 4883ec20 c745fc00 00000089  UH..H.. .E......
 401120 7df84889 75f0488b 3de32f00 004883c7  }.H.u.H.=./..H..
 401130 02e87aff ffff4889 05db2f00 00488b3d  ..z...H.../..H.=
 401140 d42f0000 488b15c5 2f000048 83c202be  ./..H.../..H....
 401150 61000000 e817ffff ff488b05 b82f0000  a........H.../..
 401160 488b0da9 2f0000c6 44080100 48c705a9  H.../...D...H...
 401170 2f00000e 00000048 8b0da22f 00004883  /......H.../..H.
 401180 e901488b 058f2f00 00488945 e8488d05  ..H.../..H.E.H..
 401190 0c2f0000 488b55e8 488914c8 e82f0000  ./..H.U.H..../..
 4011a0 00e8ea00 0000e805 020000e8 00030000  ................
 4011b0 e80b0400 00e87606 000031c0 4883c420  ......v...1.H.. 
 4011c0 5dc3662e 0f1f8400 00000000 0f1f4000  ].f...........@.
 4011d0 554889e5 4883ec20 c745fc00 000000c7  UH..H.. .E......
 4011e0 45f80000 00004863 45f8483b 052f2f00  E.....HcE.H;.//.
 4011f0 000f8358 00000048 634df848 8d059e2e  ...X...HcM.H....
 401200 0000488b 04c84889 45f0488b 7df0e83d  ..H...H.E.H.}..=
 401210 feffff48 8945e848 8b7df0e8 20090000  ...H.E.H.}.. ...
 401220 4889c148 8b45e848 39c80f85 05000000  H..H.E.H9.......
 401230 e90c0000 00c745fc 01000000 e90e0000  ......E.........
 401240 008b45f8 83c00189 45f8e997 ffffff83  ..E.....E.......
 401250 7dfc000f 841a0000 00488d3d a40d0000  }........H.=....
 401260 488d35a6 0d0000b0 00e8f2fd ffffe915  H.5.............
 401270 00000048 8d3d9f0d 0000488d 358c0d00  ...H.=....H.5...
 401280 00b000e8 d8fdffff 4883c420 5dc36690  ........H.. ].f.
 401290 554889e5 4881ec10 080000c7 85fcf7ff  UH..H...........
 4012a0 ff000000 00c785f8 f7ffff00 00000048  ...............H
 4012b0 6385f8f7 ffff483b 05632e00 000f839c  c.....H;.c......
 4012c0 00000048 638df8f7 ffff488d 05cf2d00  ...Hc.....H...-.
 4012d0 00488b04 c8488985 f0f7ffff 488b85f0  .H...H......H...
 4012e0 f7ffff48 3b052e2e 00000f85 05000000  ...H;...........
 4012f0 e9560000 00488dbd 00fcffff 488bb5f0  .V...H......H...
 401300 f7ffffe8 28fdffff 488dbd00 f8ffff48  ....(...H......H
 401310 8bb5f0f7 ffffe845 08000048 8dbd00fc  .......E...H....
 401320 ffff488d b500f8ff ffe872fd ffff83f8  ..H.......r.....
 401330 000f8505 000000e9 0f000000 c785fcf7  ................
 401340 ffff0100 0000e914 0000008b 85f8f7ff  ................
 401350 ff83c001 8985f8f7 ffffe950 ffffff83  ...........P....
 401360 bdfcf7ff ff000f84 1a000000 488d3d91  ............H.=.
 401370 0c000048 8d35ab0c 0000b000 e8dffcff  ...H.5..........
 401380 ffe91500 0000488d 3d8c0c00 00488d35  ......H.=....H.5
 401390 910c0000 b000e8c5 fcffff48 81c41008  ...........H....
 4013a0 00005dc3 662e0f1f 84000000 00006690  ..].f.........f.
 4013b0 554889e5 4883ec30 c745fc00 000000c7  UH..H..0.E......
 4013c0 45f80000 00004863 45f8483b 054f2d00  E.....HcE.H;.O-.
 4013d0 000f839a 000000c7 45f40000 00004863  ........E.....Hc
 4013e0 45f4483b 05372d00 000f836f 00000048  E.H;.7-....o...H
 4013f0 634df848 8d05a62c 0000488b 04c84889  cM.H...,..H...H.
 401400 45e84863 4df4488d 05932c00 00488b04  E.HcM.H...,..H..
 401410 c8488945 e0488b7d e8488b75 e0e87efc  .H.E.H.}.H.u..~.
 401420 ffff8945 dc488b7d e8488b75 e0e84e07  ...E.H.}.H.u..N.
 401430 000089c1 8b45dc39 c80f8505 000000e9  .....E.9........
 401440 0c000000 c745fc01 000000e9 0e000000  .....E..........
 401450 8b45f483 c0018945 f4e980ff ffffe900  .E.....E........
 401460 0000008b 45f883c0 018945f8 e955ffff  ....E.....E..U..
 401470 ff837dfc 000f841a 00000048 8d3d820b  ..}........H.=..
 401480 0000488d 35a80b00 00b000e8 d0fbffff  ..H.5...........
 401490 e9150000 00488d3d 7d0b0000 488d358e  .....H.=}...H.5.
 4014a0 0b0000b0 00e8b6fb ffff4883 c4305dc3  ..........H..0].
 4014b0 554889e5 4883ec30 c745fc00 000000c7  UH..H..0.E......
 4014c0 45f80000 00004863 45f8483b 054f2c00  E.....HcE.H;.O,.
 4014d0 000f83a6 00000048 634df848 8d05be2b  .......HcM.H...+
 4014e0 0000488b 04c84889 45f0488b 7df0e8cd  ..H...H.E.H.}...
 4014f0 fbffff48 8945e848 8b7df0e8 c0060000  ...H.E.H.}......
 401500 488945e0 488b7de8 488b75e0 e88ffbff  H.E.H.}.H.u.....
 401510 ff89c131 c083f900 8845db0f 85160000  ...1.....E......
 401520 00488b7d e8488b75 e0e85206 000083f8  .H.}.H.u..R.....
 401530 000f94c0 8845db8a 45db2401 0fb6c089  .....E..E.$.....
 401540 45dc488b 7de8e8c5 faffff48 8b7de0e8  E.H.}......H.}..
 401550 bcfaffff 837ddc00 0f840500 0000e90c  .....}..........
 401560 000000c7 45fc0100 0000e90e 0000008b  ....E...........
 401570 45f883c0 018945f8 e949ffff ff837dfc  E.....E..I....}.
 401580 000f841a 00000048 8d3d760a 0000488d  .......H.=v...H.
 401590 35a80a00 00b000e8 c4faffff e9150000  5...............
 4015a0 00488d3d 710a0000 488d358e 0a0000b0  .H.=q...H.5.....
 4015b0 00e8aafa ffff4883 c4305dc3 0f1f4000  ......H..0]...@.
 4015c0 554889e5 4881ec60 08000048 8d7df4e8  UH..H..`...H.}..
 4015d0 acfaffff 488d45f4 488985e8 f7ffffc7  ....H.E.H.......
 4015e0 85e4f7ff ff000000 00486385 e4f7ffff  .........Hc.....
 4015f0 483b0529 2b00000f 83ee0100 0048638d  H;.)+........Hc.
 401600 e4f7ffff 488d0595 2a000048 8b04c848  ....H...*..H...H
 401610 8985d8f7 ffff488b 85d8f7ff ff483b05  ......H......H;.
 401620 f42a0000 0f850500 0000e9a8 01000048  .*.............H
 401630 8bbdd8f7 ffffe815 faffff48 8985d0f7  ...........H....
 401640 ffff488d bdf0fbff ff31f6ba 00040000  ..H......1......
 401650 e81bfaff ff488dbd f0f7ffff 31f6ba00  .....H......1...
 401660 040000e8 08faffff 488b85e8 f7ffff8b  ........H.......
 401670 7804488b b5d8f7ff ff488b95 d0f7ffff  x.H......H......
 401680 e8bbf9ff ff488b85 e8f7ffff 8b38488d  .....H.......8H.
 401690 b5f0fbff ff488b95 d0f7ffff e8eff9ff  .....H..........
 4016a0 ff488985 c8f7ffff e873f9ff ff8b0089  .H.......s......
 4016b0 85bcf7ff ffe866f9 ffffc700 00000000  ......f.........
 4016c0 488b85e8 f7ffff8b 7804488b b5d8f7ff  H.......x.H.....
 4016d0 ff488b95 d0f7ffff e863f9ff ff488b85  .H.......c...H..
 4016e0 e8f7ffff 8b38488d b5f0f7ff ff488b95  .....8H......H..
 4016f0 d0f7ffff e8170500 00488985 c0f7ffff  .........H......
 401700 e81bf9ff ff8b0089 85b8f7ff ff488dbd  .............H..
 401710 f0fbffff 488db5f0 f7ffffe8 80f9ffff  ....H...........
 401720 83f8000f 852b0000 008b85bc f7ffff3b  .....+.........;
 401730 85b8f7ff ff0f8519 00000048 8b85c8f7  ...........H....
 401740 ffff483b 85c0f7ff ff0f8505 000000e9  ..H;............
 401750 83000000 8bb5e4f7 ffff83c6 01488d3d  .............H.=
 401760 e5080000 b000e8f5 f8ffff8b bdbcf7ff  ................
 401770 ffe85af9 ffff4889 85a8f7ff ff8b85bc  ..Z...H.........
 401780 f7ffff89 85b4f7ff ff8bbdb8 f7ffffe8  ................
 401790 3cf9ffff 488bb5a8 f7ffff8b 95b4f7ff  <...H...........
 4017a0 ff4889c1 448b85b8 f7ffff4c 8b8dc8f7  .H..D......L....
 4017b0 ffff488b 85c0f7ff ff488d3d 8e080000  ..H......H.=....
 4017c0 48890424 b000e895 f8ffffc7 45fc0100  H..$........E...
 4017d0 0000e914 0000008b 85e4f7ff ff83c001  ................
 4017e0 8985e4f7 ffffe9fe fdffff83 7dfc000f  ............}...
 4017f0 841a0000 00488d3d 08080000 488d3574  .....H.=....H.5t
 401800 080000b0 00e856f8 ffffe915 00000048  ......V........H
 401810 8d3d0308 0000488d 355a0800 00b000e8  .=....H.5Z......
 401820 3cf8ffff 4881c460 0800005d c30f1f00  <...H..`...]....
 401830 554889e5 4881eca0 00000048 8b058e08  UH..H......H....
 401840 00004889 45e0488b 058b0800 00488945  ..H.E.H......H.E
 401850 e88b0589 08000089 45f0c745 dc050000  ........E..E....
 401860 00488d7d d431f6ba 08000000 e8fff7ff  .H.}.1..........
 401870 ffc745d0 00000000 8b45d03b 45dc0f8d  ..E......E.;E...
 401880 e2000000 486345d0 8b7c85e0 488d75d4  ....HcE..|..H.u.
 401890 ba070000 00e8f6f7 ffff4889 45c0e87d  ..........H.E..}
 4018a0 f7ffff8b 008945cc e873f7ff ffc70000  ......E..s......
 4018b0 00000048 6345d08b 7c85e048 8d75d4ba  ...HcE..|..H.u..
 4018c0 07000000 e8470300 00488945 b8e84ef7  .....G...H.E..N.
 4018d0 ffff8b00 8945c88b 45cc3b45 c80f8513  .....E..E.;E....
 4018e0 00000048 8b45c048 3b45b80f 85050000  ...H.E.H;E......
 4018f0 00e96200 00008b75 d083c601 488d3d46  ..b....u....H.=F
 401900 070000b0 00e856f7 ffff8b7d cce8bef7  ......V....}....
 401910 ffff4889 45908b45 cc89459c 8b7dc8e8  ..H.E..E..E..}..
 401920 acf7ffff 488b7590 8b559c48 89c1448b  ....H.u..U.H..D.
 401930 45c84c8b 4dc0488b 45b8488d 3d0d0700  E.L.M.H.E.H.=...
 401940 00488904 24b000e8 14f7ffff c745fc01  .H..$........E..
 401950 000000e9 0e000000 8b45d083 c0018945  .........E.....E
 401960 d0e912ff ffff488d 75d431ff 48c7c2ff  ......H.u.1.H...
 401970 ffffffe8 18f7ffff 488945a8 e89ff6ff  ........H.E.....
 401980 ff8b0089 45b4e895 f6ffffc7 00000000  ....E...........
 401990 00488d75 d431ff48 c7c2ffff ffffe86d  .H.u.1.H.......m
 4019a0 02000048 8945a0e8 74f6ffff 8b008945  ...H.E..t......E
 4019b0 b08b45b4 3b45b00f 850e0000 00488b45  ..E.;E.......H.E
 4019c0 a8483b45 a00f8457 00000048 8d3db606  .H;E...W...H.=..
 4019d0 0000b000 e887f6ff ff8b7db4 e8eff6ff  ..........}.....
 4019e0 ff488945 808b45b4 89458c8b 7db0e8dd  .H.E..E..E..}...
 4019f0 f6ffff48 8b75808b 558c4889 c1448b45  ...H.u..U.H..D.E
 401a00 b04c8b4d a8488b45 a0488d3d 3e060000  .L.M.H.E.H.=>...
 401a10 48890424 b000e845 f6ffffc7 45fc0100  H..$...E....E...
 401a20 0000488d 75d431ff 48ba0100 00000100  ..H.u.1.H.......
 401a30 0000e859 f6ffff48 8945a8e8 e0f5ffff  ...Y...H.E......
 401a40 8b008945 b4e8d6f5 ffffc700 00000000  ...E............
 401a50 488d75d4 31ff48ba 01000000 01000000  H.u.1.H.........
 401a60 e8ab0100 00488945 a0e8b2f5 ffff8b00  .....H.E........
 401a70 8945b08b 45b43b45 b00f850e 00000048  .E..E.;E.......H
 401a80 8b45a848 3b45a00f 84630000 00488d3d  .E.H;E...c...H.=
 401a90 f8050000 b000e8c5 f5ffff8b 7db4e82d  ............}..-
 401aa0 f6ffff48 898570ff ffff8b45 b489857c  ...H..p....E...|
 401ab0 ffffff8b 7db0e815 f6ffff48 8bb570ff  ....}......H..p.
 401ac0 ffff8b95 7cffffff 4889c144 8b45b04c  ....|...H..D.E.L
 401ad0 8b4da848 8b45a048 8d3d7005 00004889  .M.H.E.H.=p...H.
 401ae0 0424b000 e877f5ff ffc745fc 01000000  .$...w....E.....
 401af0 837dfc00 0f841a00 0000488d 3d030500  .}........H.=...
 401b00 00488d35 88050000 b000e851 f5ffffe9  .H.5.......Q....
 401b10 15000000 488d3dfe 04000048 8d356e05  ....H.=....H.5n.
 401b20 0000b000 e837f5ff ff4881c4 a0000000  .....7...H......
 401b30 5dc3662e 0f1f8400 00000000 0f1f4000  ].f...........@.
 401b40 554889e5 4889f848 ffc848ff c0408a30  UH..H..H..H..@.0
 401b50 4080fe00 75f44829 f85dc30f 1f440000  @...u.H).]...D..
 401b60 554889e5 4889f88a 16881748 ffc748ff  UH..H......H..H.
 401b70 c680fa00 75f15dc3 0f1f8400 00000000  ....u.].........
 401b80 554889e5 31d231c9 8a178a0e 48ffc748  UH..1.1.....H..H
 401b90 ffc680fa 000f94c0 80f90041 0f94c044  ...........A...D
 401ba0 08c038ca 410f95c0 4408c03c 0074d931  ..8.A...D..<.t.1
 401bb0 c029ca89 d05dc366 0f1f8400 00000000  .)...].f........
 401bc0 55415441 554889e5 4989fc8a 1f48ffc7  UATAUH..I....H..
 401bd0 80fb0075 f64989fd 4c29e7e8 d0f4ffff  ...u.I..L)......
 401be0 4889c748 31f6418a 34244088 3749ffc4  H..H1.A.4$@.7I..
 401bf0 48ffc74d 39e575ee c6070041 5d415c5d  H..M9.u....A]A\]
 401c00 c3662e0f 1f840000 0000000f 1f440000  .f...........D..
 401c10 55514153 4889e5b8 00000000 0f054883  UQASH.........H.
 401c20 f8007d14 50e8f6f3 ffff5f48 f7df4889  ..}.P....._H..H.
 401c30 3848c7c0 ffffffff 415b595d c3        8H......A[Y].   
Contents of section .rodata:
 402000 01000200 25732046 41494c0a 00746573  ....%s FAIL..tes
 402010 745f7374 726c656e 00257320 53554343  t_strlen.%s SUCC
 402020 4553530a 00746573 745f7374 72637079  ESS..test_strcpy
 402030 00746573 745f7374 72636d70 00746573  .test_strcmp.tes
 402040 745f7374 72647570 0025643a 20002573  t_strdup.%d: .%s
 402050 28256429 20213d20 25732825 6429207c  (%d) != %s(%d) |
 402060 20726574 75726e20 76616c75 6520257a   return value %z
 402070 6420257a 640a0074 6573745f 72656164  d %zd..test_read
 402080 5f6e6f72 6d616c00 613a2000 623a2000  _normal.a: .b: .
 402090 74657374 5f726561 645f6572 726f7200  test_read_error.
 4020a0 20202020 20202020 20202020 20202020                  
 4020b0 2000310a 32006162 63006c6f 72656d20   .1.2.abc.lorem 
 4020c0 69707375 6d000000 00000000 00000000  ipsum...........
 4020d0 ffffffff 00fcffff ffffffff ffffff3f  ...............?
 4020e0 ffffff00 6c6f7265 6d006970 73756d00  ....lorem.ipsum.
 4020f0 00616263 00610062 63000000 00000000  .abc.a.bc.......
 402100 00610000 62000063 00000000 00616263  .a..b..c.....abc
 402110 00                                   .               
Contents of section .eh_frame:
 402118 14000000 00000000 017a5200 01781001  .........zR..x..
 402128 1b0c0708 90010000 14000000 1c000000  ................
 402138 a8efffff 26000000 00440710 00000000  ....&....D......
 402148 24000000 34000000 b0eeffff e0000000  $...4...........
 402158 000e1046 0e184a0f 0b770880 003f1a3b  ...F..J..w...?.;
 402168 2a332422 00000000 1c000000 5c000000  *3$"........\...
 402178 98efffff b2000000 00410e10 8602430d  .........A....C.
 402188 0602ad0c 07080000 1c000000 7c000000  ............|...
 402198 38f0ffff be000000 00410e10 8602430d  8........A....C.
 4021a8 0602b90c 07080000 1c000000 9c000000  ................
 4021b8 d8f0ffff 14010000 00410e10 8602430d  .........A....C.
 4021c8 06030f01 0c070800 1c000000 bc000000  ................
 4021d8 d8f1ffff 00010000 00410e10 8602430d  .........A....C.
 4021e8 0602fb0c 07080000 1c000000 dc000000  ................
 4021f8 b8f2ffff 0c010000 00410e10 8602430d  .........A....C.
 402208 06030701 0c070800 1c000000 fc000000  ................
 402218 a8f3ffff 6d020000 00410e10 8602430d  ....m....A....C.
 402228 06036802 0c070800 1c000000 1c010000  ..h.............
 402238 f8f5ffff 02030000 00410e10 8602430d  .........A....C.
 402248 0603fd02 0c070800                    ........        
Contents of section .dynamic:
 403e78 01000000 00000000 73000000 00000000  ........s.......
 403e88 04000000 00000000 40034000 00000000  ........@.@.....
 403e98 f5feff6f 00000000 90034000 00000000  ...o......@.....
 403ea8 05000000 00000000 18054000 00000000  ..........@.....
 403eb8 06000000 00000000 b0034000 00000000  ..........@.....
 403ec8 0a000000 00000000 94000000 00000000  ................
 403ed8 0b000000 00000000 18000000 00000000  ................
 403ee8 15000000 00000000 00000000 00000000  ................
 403ef8 03000000 00000000 00404000 00000000  .........@@.....
 403f08 02000000 00000000 38010000 00000000  ........8.......
 403f18 14000000 00000000 07000000 00000000  ................
 403f28 17000000 00000000 18064000 00000000  ..........@.....
 403f38 07000000 00000000 00064000 00000000  ..........@.....
 403f48 08000000 00000000 18000000 00000000  ................
 403f58 09000000 00000000 18000000 00000000  ................
 403f68 feffff6f 00000000 d0054000 00000000  ...o......@.....
 403f78 ffffff6f 00000000 01000000 00000000  ...o............
 403f88 f0ffff6f 00000000 ac054000 00000000  ...o......@.....
 403f98 00000000 00000000 00000000 00000000  ................
 403fa8 00000000 00000000 00000000 00000000  ................
 403fb8 00000000 00000000 00000000 00000000  ................
 403fc8 00000000 00000000 00000000 00000000  ................
 403fd8 00000000 00000000 00000000 00000000  ................
 403fe8 00000000 00000000 00000000 00000000  ................
Contents of section .got:
 403ff8 00000000 00000000                    ........        
Contents of section .got.plt:
 404000 783e4000 00000000 00000000 00000000  x>@.............
 404010 00000000 00000000 16104000 00000000  ..........@.....
 404020 26104000 00000000 36104000 00000000  &.@.....6.@.....
 404030 46104000 00000000 56104000 00000000  F.@.....V.@.....
 404040 66104000 00000000 76104000 00000000  f.@.....v.@.....
 404050 86104000 00000000 96104000 00000000  ..@.......@.....
 404060 a6104000 00000000 b6104000 00000000  ..@.......@.....
 404070 c6104000 00000000 d6104000 00000000  ..@.......@.....
Contents of section .data:
 404080 00000000 00000000 00000000 00000000  ................
 404090 48398247 23984735 00000000 00000000  H9.G#.G5........
 4040a0 0c204000 00000000 b0204000 00000000  . @...... @.....
 4040b0 a0204000 00000000 b2204000 00000000  . @...... @.....
 4040c0 b6204000 00000000 ba204000 00000000  . @...... @.....
 4040d0 e4204000 00000000 f0204000 00000000  . @...... @.....
 4040e0 f5204000 00000000 fa204000 00000000  . @...... @.....
 4040f0 ff204000 00000000 09214000 00000000  . @......!@.....
 404100 90404000 00000000 00000000 00000000  .@@.............
Contents of section .comment:
 0000 5562756e 74752063 6c616e67 20766572  Ubuntu clang ver
 0010 73696f6e 2031342e 302e302d 31756275  sion 14.0.0-1ubu
 0020 6e747531 2e3100                      ntu1.1.         
Contents of section .debug_info:
 0000 c2030000 05000108 00000000 01000c00  ................
 0010 01080000 00000000 00020522 0a000008  ..........."....
 0020 00000002 032e0000 00001c02 a1000336  ...............6
 0030 00000005 012e0404 07080206 36000000  ............6...
 0040 001d02a1 01020750 00000000 1b02a102  .......P........
 0050 05550000 00040806 0106092e 00000000  .U..............
 0060 3302a103 060a6f00 00000022 02a10407  3.....o...."....
 0070 7b000000 088a0000 000e0009 0c08001f  {...............
 0080 0a0b5000 00000021 00000b0d 08070c0d  ..P....!........
 0090 05b20000 0001560e 00356803 00000e02  ......V..5h.....
 00a0 91781600 35680300 000e0291 70170035  .x..5h......p..5
 00b0 6c030000 000f06be 00000001 56100048  l...........V..H
 00c0 1002917c 18004a68 03000011 07700000  ...|..Jh.....p..
 00d0 00100291 7819004c 68030000 11084a00  ....x..Lh.....J.
 00e0 00001002 91700b00 4d500000 00000000  .....p..MP......
 00f0 0f091401 00000156 11005810 03918078  .......V..X....x
 0100 1a005a71 03000010 03918070 1b005b71  ..Zq.......p..[q
 0110 03000010 0391fc6f 18005c68 03000011  .......o..\h....
 0120 0aba0000 00100391 f86f1900 5e680300  .........o..^h..
 0130 00110b88 00000010 0391f06f 0b005f7e  ...........o.._~
 0140 03000000 00000f0c 00010000 01561200  .............V..
 0150 6f100291 7c180071 68030000 110db200  o...|..qh.......
 0160 00001002 91781900 73680300 00110e87  .....x..sh......
 0170 00000010 0291741c 00746803 0000110f  ......t..th.....
 0180 61000000 10029168 1d007550 00000010  a......h..uP....
 0190 0291601e 00765000 00000000 00000f10  ..`..vP.........
 01a0 0c010000 01561300 82100291 7c180084  .....V......|...
 01b0 68030000 1111be00 00001002 91781900  h............x..
 01c0 86680300 00111298 00000010 0291700b  .h............p.
 01d0 00875000 00001002 91681f00 88500000  ..P......h...P..
 01e0 00100291 60200089 50000000 1002915c  ....` ..P......\
 01f0 21008a68 03000000 00000f13 6d020000  !..h........m...
 0200 01561400 97100291 7c180099 68030000  .V......|...h...
 0210 10029174 22009a88 03000010 0391f077  ...t"..........w
 0220 23009b71 03000010 0391f06f 1a009c71  #..q.......o...q
 0230 03000010 0391e86f 2400a494 03000011  .......o$.......
 0240 140c0200 00100391 e46f1900 a6680300  .........o...h..
 0250 001115da 01000010 0391d86f 0b00a750  ...........o...P
 0260 00000010 0391d06f 2800ac2e 00000010  .......o(.......
 0270 0391c86f 2900ad99 03000010 0391c06f  ...o)..........o
 0280 2d00ae99 03000010 0391bc6f 2e00af68  -..........o...h
 0290 03000010 0391b86f 2f00b068 03000000  .......o/..h....
 02a0 00092708 00a00a25 68030000 00a2000a  ..'....%h.......
 02b0 26680300 0000a304 00000f16 02030000  &h..............
 02c0 01561500 ca100291 7c1800cc 68030000  .V......|...h...
 02d0 10029160 3000cdad 03000010 02915c31  ...`0.........\1
 02e0 00d06803 00001002 91543200 d1b90300  ..h......T2.....
 02f0 00100391 b47f2e00 e9680300 00100391  .........h......
 0300 b07f2f00 ea680300 00100391 a87f2900  ../..h........).
 0310 eb990300 00100391 a07f2d00 ec990300  ..........-.....
 0320 001117f5 00000010 02915019 00d36803  ..........P...h.
 0330 00001118 d4000000 1002914c 2e00d468  ...........L...h
 0340 03000010 0291482f 00d56803 00001002  ......H/..h.....
 0350 91402900 d6990300 00100391 b87f2d00  .@)...........-.
 0360 d7990300 00000000 040f0504 05500000  .............P..
 0370 00075500 0000128a 00000000 04000583  ..U.............
 0380 03000013 55000000 07680300 00088a00  ....U....h......
 0390 00000200 05a10200 0003a103 00002c03  ..............,.
 03a0 4d03a903 00002b02 c2042a05 08076803  M.....+...*...h.
 03b0 0000088a 00000005 00075500 0000088a  ..........U.....
 03c0 00000008 0000                        ......          
Contents of section .debug_abbrev:
 0000 01110125 25130503 25721710 171b2511  ...%%...%r....%.
 0010 1b120673 17000002 34000325 49133f19  ...s....4..%I.?.
 0020 3a0b3b0b 02180000 03160049 1303253a  :.;........I..%:
 0030 0b3b0b00 00042400 03253e0b 0b0b0000  .;....$..%>.....
 0040 050f0049 13000006 34000325 49133a0b  ...I....4..%I.:.
 0050 3b0b0218 00000701 01491300 00082100  ;........I....!.
 0060 4913370b 00000913 0103250b 0b3a0b3b  I.7.......%..:.;
 0070 0b00000a 0d000325 49133a0b 3b0b380b  .......%I.:.;.8.
 0080 00000b24 0003250b 0b3e0b00 000c0f00  ...$..%..>......
 0090 00000d2e 01111b12 06401803 253a0b3b  .........@..%:.;
 00a0 0b271949 133f1900 000e0500 02180325  .'.I.?.........%
 00b0 3a0b3b0b 49130000 0f2e0111 1b120640  :.;.I..........@
 00c0 1803253a 0b3b0b27 193f1900 00103400  ..%:.;.'.?....4.
 00d0 02180325 3a0b3b0b 49130000 110b0111  ...%:.;.I.......
 00e0 1b120600 00122100 49133705 00001326  ......!.I.7....&
 00f0 00491300 0000                        .I....          
Contents of section .debug_line:
 0000 59050000 05000800 82000000 010101fb  Y...............
 0010 0e0d0001 01010100 00000100 00010101  ................
 0020 1f040000 00002300 00004d00 00007000  ......#...M...p.
 0030 00000301 1f020f05 1e047d00 000000ea  ..........}.....
 0040 bcbfa368 9a3dd745 de6e2aad 51c61484  ...h.=.E.n*.Q...
 0050 00000001 2499dd23 61b91572 4b073282  ....$..#a..rK.2.
 0060 bea3a7bc 8d000000 02d108b5 f93a74c5  .............:t.
 0070 0510d7d9 bc0ab36d f9950000 0003f31e  .......m........
 0080 efcc3f15 835fc5a4 023a625c f6090400  ..?.._...:b\....
 0090 00090210 11400000 00000003 3501051a  .....@......5...
 00a0 0a085905 2c067405 134a0511 58050a06  ..Y.,.t..J..X...
 00b0 76051e06 74053074 05034a06 9f051106  v...t.0t..J.....
 00c0 74052874 050a065a 0509ad05 10067405  t.(t...Z......t.
 00d0 294a0528 7405174a 050306e6 59595959  )J.(t..J....YYYY
 00e0 59590500 085c0507 0a83050c 76051306  YY...\......v...
 00f0 7405154a 05037405 14066705 1d064a05  t..J..t...g...J.
 0100 0bac0510 064c0509 064a0525 90051b4a  .....L...J.%...J
 0110 0518ba05 093c0507 0667050d 5a050575  .....<...g..Z..u
 0120 051f0379 58050306 90060309 58064a66  ...yX.......X.Jf
 0130 08900501 06084b05 00850507 0aaf050c  ......K.........
 0140 a0051306 9e051574 05037405 1a066705  .......t..t...g.
 0150 23067405 11ac0509 06760510 06740509  #.t......v...t..
 0160 74050706 67050c5a 05150674 05057405  t...g..Z...t..t.
 0170 0f065905 18067405 05740510 06590519  ..Y...t..t...Y..
 0180 06740509 74052258 05093c05 07066705  .t..t."X..<...g.
 0190 0d5a0505 9f051f03 74580503 06e40603  .Z......tX......
 01a0 0e580674 66089005 0106084b 0500084d  .X.tf......K...M
 01b0 05070a83 050c7605 13067405 154a0503  ......v...t..J..
 01c0 74050e06 67051506 7405174a 05057405  t...g...t..J..t.
 01d0 12066705 1b064a05 0dac0512 064b051b  ..g...J......K..
 01e0 064a050d ac051206 4c051606 4a050b4a  .J......L...J..J
 01f0 05278205 2b4a051d 4a051a9e 050b2e05  .'..+J..J.......
 0200 09066705 0f5a0507 75052103 78580505  ..g..Z..u.!.xX..
 0210 06900503 06030a58 051f0375 58050306  .......X...uX...
 0220 9006030c 58064a66 08900501 06084b05  ....X.Jf......K.
 0230 00690507 0a83050c 76051306 7405154a  .i......v...t..J
 0240 05037405 14066705 1d064a05 0bac0517  ..t...g...J.....
 0250 064b0510 064a050b 58051a06 4b051006  .K...J..X...K...
 0260 4a050b58 0519064b 051d064a 05124a05  J..X...K...J..J.
 0270 21740526 82053366 05374a05 294a053b  !t.&..3f.7J.)J.;
 0280 5803f67e 90052603 8a013c05 0958050a  X..~..&...<..X..
 0290 063e0505 064a050a 06590505 064a0509  .>...J...Y...J..
 02a0 0659064a 05070667 050d5a05 0575051f  .Y.J...g..Z..u..
 02b0 03745805 03069006 030e5806 4a660890  .tX.......X.Jf..
 02c0 05010608 4b0500a1 05080ab2 0503064a  ....K..........J
 02d0 0511065e 0507064a 050c0676 0513069e  ...^...J...v....
 02e0 05157405 03740516 0667051f 0674050d  ..t..t...g...t..
 02f0 ac050906 76051006 74050974 05070667  ....v...t..t...g
 0300 051a5a05 13067405 0d580505 067a082f  ..Z...t..X...z./
 0310 050b0830 05140674 051b3c05 23740505  ...0...t..<.#t..
 0320 74051106 59051a06 7405202e 05297405  t...Y...t. ..)t.
 0330 0c74050a 58050e06 75050c06 74050506  .t..X...u...t...
 0340 68050b06 58066805 14067405 1b3c0523  h...X.h...t..<.#
 0350 74050574 05140659 051d0674 05232e05  t..t...Y...t.#..
 0360 2c74050c 74050a58 050e0675 050c0674  ,t..t..X...u...t
 0370 05100668 05190674 05097405 22580527  ...h...t..t."X.'
 0380 3c052a66 05316605 3b66053e 66054374  <.*f.1f.;f.>f.Ct
 0390 05097405 07066705 145a0516 06660505  ..t...g..Z...f..
 03a0 3c054206 d7053906 66054bba 055cba05  <.B...9.f.K..\..
 03b0 53660565 084a056d 74057374 05057405  Sf.e.J.mt.st..t.
 03c0 0d060821 05057505 1f036158 050306e4  ...!..u...aX....
 03d0 06032158 064a6608 90050106 084b0500  ..!X.Jf......K..
 03e0 bd05090a ae08d975 050cf405 13067405  .......u......t.
 03f0 153c0503 3c051106 6c051d06 82050c4a  .<..<...l......J
 0400 050a9e05 0e064b05 0c067405 05063e05  ......K...t...>.
 0410 0b065805 14066805 20068205 0c4a050a  ..X...h. ....J..
 0420 9e050e06 4b050c06 74050906 3e051006  ....K...t...>...
 0430 3c051a3c 051d6605 224a0509 4a050706  <..<..f."J..J...
 0440 6705145a 0516063c 05053c05 4206d705  g..Z...<..<.B...
 0450 39063c05 4b90055c 6605533c 0565e405  9.<.K..\f.S<.e..
 0460 6d4a0573 4a05054a 050d0608 21050575  mJ.sJ..J....!..u
 0470 0521036c 58050306 90051206 031b5805  .!.lX.........X.
 0480 0a064a05 08d6050c 064b050a 06740503  ..J......K...t..
 0490 063e0509 06580515 0668050a 064a0508  .>...X...h...J..
 04a0 d6050c06 4b050a06 74050706 3e050e06  ....K...t...>...
 04b0 3c05183c 051b6605 204a0507 4a050506  <..<..f. J..J...
 04c0 670542d7 0539063c 054b9005 5c660553  g.B..9.<.K..\f.S
 04d0 3c0565e4 056d4a05 734a0505 4a050d06  <.e..mJ.sJ..J...
 04e0 08210512 77050a06 4a050808 12050c06  .!..w...J.......
 04f0 4b050a06 74050306 3e050906 58051506  K...t...>...X...
 0500 68050a06 4a050808 12050c06 4b050a06  h...J.......K...
 0510 74050706 3e050e06 3c05183c 051b6605  t...>...<..<..f.
 0520 204a0507 4a050506 670542d7 0539063c   J..J...g.B..9.<
 0530 054bba05 5c900553 3c056508 4a056d4a  .K..\..S<.e.J.mJ
 0540 05734a05 054a050d 06082105 0376064a  .sJ..J....!..v.J
 0550 66089005 0106084b 02090001 01        f......K.....   
Contents of section .debug_str:
 0000 5562756e 74752063 6c616e67 20766572  Ubuntu clang ver
 0010 73696f6e 2031342e 302e302d 31756275  sion 14.0.0-1ubu
 0020 6e747531 2e31006d 61696e2e 63002f68  ntu1.1.main.c./h
 0030 6f6d652f 6873656f 6e672f61 7373656d  ome/hseong/assem
 0040 626c795f 70726163 74696365 2f6c6962  bly_practice/lib
 0050 00675f6c 6f6e675f 73747269 6e675f6c  .g_long_string_l
 0060 656e0075 6e736967 6e656420 6c6f6e67  en.unsigned long
 0070 00675f72 616e646f 6d5f6e75 6d00675f  .g_random_num.g_
 0080 6c6f6e67 5f737472 696e6700 63686172  long_string.char
 0090 006e5f63 61736500 63617365 73007465  .n_case.cases.te
 00a0 73746361 7365005f 5f415252 41595f53  stcase.__ARRAY_S
 00b0 495a455f 54595045 5f5f006d 61696e00  IZE_TYPE__.main.
 00c0 696e7400 74657374 5f737472 6c656e00  int.test_strlen.
 00d0 74657374 5f737472 63707900 74657374  test_strcpy.test
 00e0 5f737472 636d7000 74657374 5f737472  _strcmp.test_str
 00f0 64757000 74657374 5f726561 645f6e6f  dup.test_read_no
 0100 726d616c 00746573 745f7265 61645f65  rmal.test_read_e
 0110 72726f72 00617267 63006172 67760069  rror.argc.argv.i
 0120 735f6661 696c0069 00627566 66657231  s_fail.i.buffer1
 0130 00627566 66657232 006a0073 30007331  .buffer2.j.s0.s1
 0140 00703000 70310072 6573756c 74006664  .p0.p1.result.fd
 0150 5f736574 00627566 66657230 00726561  _set.buffer0.rea
 0160 64007772 69746500 735f7069 70655f66  d.write.s_pipe_f
 0170 64007265 7430005f 5f737369 7a655f74  d.ret0.__ssize_t
 0180 00726574 31006572 726e6f30 00657272  .ret1.errno0.err
 0190 6e6f3100 66645f63 61736500 63617365  no1.fd_case.case
 01a0 5f6c656e 00627566 66657200           _len.buffer.    
Contents of section .debug_addr:
 0000 cc000000 05000800 10414000 00000000  .........A@.....
 0010 90404000 00000000 18414000 00000000  .@@......A@.....
 0020 20414000 00000000 a0404000 00000000   A@......@@.....
 0030 10114000 00000000 d0114000 00000000  ..@.......@.....
 0040 df114000 00000000 f7114000 00000000  ..@.......@.....
 0050 90124000 00000000 a5124000 00000000  ..@.......@.....
 0060 c3124000 00000000 b0134000 00000000  ..@.......@.....
 0070 bf134000 00000000 d7134000 00000000  ..@.......@.....
 0080 ef134000 00000000 b0144000 00000000  ..@.......@.....
 0090 bf144000 00000000 d7144000 00000000  ..@.......@.....
 00a0 c0154000 00000000 df154000 00000000  ..@.......@.....
 00b0 fd154000 00000000 30184000 00000000  ..@.....0.@.....
 00c0 71184000 00000000 84184000 00000000  q.@.......@.....
Contents of section .debug_line_str:
 0000 2f686f6d 652f6873 656f6e67 2f617373  /home/hseong/ass
 0010 656d626c 795f7072 61637469 63652f6c  embly_practice/l
 0020 6962002f 7573722f 6c69622f 6c6c766d  ib./usr/lib/llvm
 0030 2d31342f 6c69622f 636c616e 672f3134  -14/lib/clang/14
 0040 2e302e30 2f696e63 6c756465 002f7573  .0.0/include./us
 0050 722f696e 636c7564 652f7838 365f3634  r/include/x86_64
 0060 2d6c696e 75782d67 6e752f62 69747300  -linux-gnu/bits.
 0070 2f757372 2f696e63 6c756465 006d6169  /usr/include.mai
 0080 6e2e6300 73746464 65662e68 00747970  n.c.stddef.h.typ
 0090 65732e68 00737464 696f2e68 00        es.h.stdio.h.   
Contents of section .debug_str_offsets:
 0000 d0000000 05000000 00000000 27000000  ............'...
 0010 2e000000 51000000 63000000 7a010000  ....Q...c...z...
 0020 71000000 7e000000 8c000000 91000000  q...~...........
 0030 98000000 85000000 9e000000 a7000000  ................
 0040 bb000000 c0000000 c4000000 d0000000  ................
 0050 dc000000 e8000000 f4000000 05010000  ................
 0060 15010000 1a010000 1f010000 27010000  ............'...
 0070 29010000 31010000 39010000 3b010000  )...1...9...;...
 0080 3e010000 41010000 44010000 47010000  >...A...D...G...
 0090 4e010000 55010000 6a010000 5d010000  N...U...j...]...
 00a0 62010000 68010000 a1010000 72010000  b...h.......r...
 00b0 6c000000 77010000 79010000 81010000  l...w...y.......
 00c0 86010000 8d010000 94010000 9c010000  ................
 00d0 a5010000                             ....            

Disassembly of section .plt:

0000000000401000 <free@plt-0x10>:
  401000:	ff 35 02 30 00 00    	push   QWORD PTR [rip+0x3002]        # 404008 <_GLOBAL_OFFSET_TABLE_+0x8>
  401006:	ff 25 04 30 00 00    	jmp    QWORD PTR [rip+0x3004]        # 404010 <_GLOBAL_OFFSET_TABLE_+0x10>
  40100c:	0f 1f 40 00          	nop    DWORD PTR [rax+0x0]

0000000000401010 <free@plt>:
  401010:	ff 25 02 30 00 00    	jmp    QWORD PTR [rip+0x3002]        # 404018 <free@GLIBC_2.2.5>
  401016:	68 00 00 00 00       	push   0x0
  40101b:	e9 e0 ff ff ff       	jmp    401000 <__abi_tag+0xce0>

0000000000401020 <__errno_location@plt>:
  401020:	ff 25 fa 2f 00 00    	jmp    QWORD PTR [rip+0x2ffa]        # 404020 <__errno_location@GLIBC_2.2.5>
  401026:	68 01 00 00 00       	push   0x1
  40102b:	e9 d0 ff ff ff       	jmp    401000 <__abi_tag+0xce0>

0000000000401030 <strcpy@plt>:
  401030:	ff 25 f2 2f 00 00    	jmp    QWORD PTR [rip+0x2ff2]        # 404028 <strcpy@GLIBC_2.2.5>
  401036:	68 02 00 00 00       	push   0x2
  40103b:	e9 c0 ff ff ff       	jmp    401000 <__abi_tag+0xce0>

0000000000401040 <write@plt>:
  401040:	ff 25 ea 2f 00 00    	jmp    QWORD PTR [rip+0x2fea]        # 404030 <write@GLIBC_2.2.5>
  401046:	68 03 00 00 00       	push   0x3
  40104b:	e9 b0 ff ff ff       	jmp    401000 <__abi_tag+0xce0>

0000000000401050 <strlen@plt>:
  401050:	ff 25 e2 2f 00 00    	jmp    QWORD PTR [rip+0x2fe2]        # 404038 <strlen@GLIBC_2.2.5>
  401056:	68 04 00 00 00       	push   0x4
  40105b:	e9 a0 ff ff ff       	jmp    401000 <__abi_tag+0xce0>

0000000000401060 <printf@plt>:
  401060:	ff 25 da 2f 00 00    	jmp    QWORD PTR [rip+0x2fda]        # 404040 <printf@GLIBC_2.2.5>
  401066:	68 05 00 00 00       	push   0x5
  40106b:	e9 90 ff ff ff       	jmp    401000 <__abi_tag+0xce0>

0000000000401070 <memset@plt>:
  401070:	ff 25 d2 2f 00 00    	jmp    QWORD PTR [rip+0x2fd2]        # 404048 <memset@GLIBC_2.2.5>
  401076:	68 06 00 00 00       	push   0x6
  40107b:	e9 80 ff ff ff       	jmp    401000 <__abi_tag+0xce0>

0000000000401080 <pipe@plt>:
  401080:	ff 25 ca 2f 00 00    	jmp    QWORD PTR [rip+0x2fca]        # 404050 <pipe@GLIBC_2.2.5>
  401086:	68 07 00 00 00       	push   0x7
  40108b:	e9 70 ff ff ff       	jmp    401000 <__abi_tag+0xce0>

0000000000401090 <read@plt>:
  401090:	ff 25 c2 2f 00 00    	jmp    QWORD PTR [rip+0x2fc2]        # 404058 <read@GLIBC_2.2.5>
  401096:	68 08 00 00 00       	push   0x8
  40109b:	e9 60 ff ff ff       	jmp    401000 <__abi_tag+0xce0>

00000000004010a0 <strcmp@plt>:
  4010a0:	ff 25 ba 2f 00 00    	jmp    QWORD PTR [rip+0x2fba]        # 404060 <strcmp@GLIBC_2.2.5>
  4010a6:	68 09 00 00 00       	push   0x9
  4010ab:	e9 50 ff ff ff       	jmp    401000 <__abi_tag+0xce0>

00000000004010b0 <malloc@plt>:
  4010b0:	ff 25 b2 2f 00 00    	jmp    QWORD PTR [rip+0x2fb2]        # 404068 <malloc@GLIBC_2.2.5>
  4010b6:	68 0a 00 00 00       	push   0xa
  4010bb:	e9 40 ff ff ff       	jmp    401000 <__abi_tag+0xce0>

00000000004010c0 <strdup@plt>:
  4010c0:	ff 25 aa 2f 00 00    	jmp    QWORD PTR [rip+0x2faa]        # 404070 <strdup@GLIBC_2.2.5>
  4010c6:	68 0b 00 00 00       	push   0xb
  4010cb:	e9 30 ff ff ff       	jmp    401000 <__abi_tag+0xce0>

00000000004010d0 <strerror@plt>:
  4010d0:	ff 25 a2 2f 00 00    	jmp    QWORD PTR [rip+0x2fa2]        # 404078 <strerror@GLIBC_2.2.5>
  4010d6:	68 0c 00 00 00       	push   0xc
  4010db:	e9 20 ff ff ff       	jmp    401000 <__abi_tag+0xce0>

Disassembly of section .text:

00000000004010e0 <_start>:
  4010e0:	f3 0f 1e fa          	endbr64 
  4010e4:	31 ed                	xor    ebp,ebp
  4010e6:	49 89 d1             	mov    r9,rdx
  4010e9:	5e                   	pop    rsi
  4010ea:	48 89 e2             	mov    rdx,rsp
  4010ed:	48 83 e4 f0          	and    rsp,0xfffffffffffffff0
  4010f1:	50                   	push   rax
  4010f2:	54                   	push   rsp
  4010f3:	45 31 c0             	xor    r8d,r8d
  4010f6:	31 c9                	xor    ecx,ecx
  4010f8:	48 c7 c7 10 11 40 00 	mov    rdi,0x401110
  4010ff:	ff 15 f3 2e 00 00    	call   QWORD PTR [rip+0x2ef3]        # 403ff8 <__libc_start_main@GLIBC_2.34>
  401105:	f4                   	hlt    
  401106:	66 2e 0f 1f 84 00 00 	cs nop WORD PTR [rax+rax*1+0x0]
  40110d:	00 00 00 

0000000000401110 <main>:
  401110:	55                   	push   rbp
  401111:	48 89 e5             	mov    rbp,rsp
  401114:	48 83 ec 20          	sub    rsp,0x20
  401118:	c7 45 fc 00 00 00 00 	mov    DWORD PTR [rbp-0x4],0x0
  40111f:	89 7d f8             	mov    DWORD PTR [rbp-0x8],edi
  401122:	48 89 75 f0          	mov    QWORD PTR [rbp-0x10],rsi
  401126:	48 8b 3d e3 2f 00 00 	mov    rdi,QWORD PTR [rip+0x2fe3]        # 404110 <g_long_string_len>
  40112d:	48 83 c7 02          	add    rdi,0x2
  401131:	e8 7a ff ff ff       	call   4010b0 <malloc@plt>
  401136:	48 89 05 db 2f 00 00 	mov    QWORD PTR [rip+0x2fdb],rax        # 404118 <g_long_string>
  40113d:	48 8b 3d d4 2f 00 00 	mov    rdi,QWORD PTR [rip+0x2fd4]        # 404118 <g_long_string>
  401144:	48 8b 15 c5 2f 00 00 	mov    rdx,QWORD PTR [rip+0x2fc5]        # 404110 <g_long_string_len>
  40114b:	48 83 c2 02          	add    rdx,0x2
  40114f:	be 61 00 00 00       	mov    esi,0x61
  401154:	e8 17 ff ff ff       	call   401070 <memset@plt>
  401159:	48 8b 05 b8 2f 00 00 	mov    rax,QWORD PTR [rip+0x2fb8]        # 404118 <g_long_string>
  401160:	48 8b 0d a9 2f 00 00 	mov    rcx,QWORD PTR [rip+0x2fa9]        # 404110 <g_long_string_len>
  401167:	c6 44 08 01 00       	mov    BYTE PTR [rax+rcx*1+0x1],0x0
  40116c:	48 c7 05 a9 2f 00 00 	mov    QWORD PTR [rip+0x2fa9],0xe        # 404120 <n_case>
  401173:	0e 00 00 00 
  401177:	48 8b 0d a2 2f 00 00 	mov    rcx,QWORD PTR [rip+0x2fa2]        # 404120 <n_case>
  40117e:	48 83 e9 01          	sub    rcx,0x1
  401182:	48 8b 05 8f 2f 00 00 	mov    rax,QWORD PTR [rip+0x2f8f]        # 404118 <g_long_string>
  401189:	48 89 45 e8          	mov    QWORD PTR [rbp-0x18],rax
  40118d:	48 8d 05 0c 2f 00 00 	lea    rax,[rip+0x2f0c]        # 4040a0 <cases>
  401194:	48 8b 55 e8          	mov    rdx,QWORD PTR [rbp-0x18]
  401198:	48 89 14 c8          	mov    QWORD PTR [rax+rcx*8],rdx
  40119c:	e8 2f 00 00 00       	call   4011d0 <test_strlen>
  4011a1:	e8 ea 00 00 00       	call   401290 <test_strcpy>
  4011a6:	e8 05 02 00 00       	call   4013b0 <test_strcmp>
  4011ab:	e8 00 03 00 00       	call   4014b0 <test_strdup>
  4011b0:	e8 0b 04 00 00       	call   4015c0 <test_read_normal>
  4011b5:	e8 76 06 00 00       	call   401830 <test_read_error>
  4011ba:	31 c0                	xor    eax,eax
  4011bc:	48 83 c4 20          	add    rsp,0x20
  4011c0:	5d                   	pop    rbp
  4011c1:	c3                   	ret    
  4011c2:	66 2e 0f 1f 84 00 00 	cs nop WORD PTR [rax+rax*1+0x0]
  4011c9:	00 00 00 
  4011cc:	0f 1f 40 00          	nop    DWORD PTR [rax+0x0]

00000000004011d0 <test_strlen>:
  4011d0:	55                   	push   rbp
  4011d1:	48 89 e5             	mov    rbp,rsp
  4011d4:	48 83 ec 20          	sub    rsp,0x20
  4011d8:	c7 45 fc 00 00 00 00 	mov    DWORD PTR [rbp-0x4],0x0
  4011df:	c7 45 f8 00 00 00 00 	mov    DWORD PTR [rbp-0x8],0x0
  4011e6:	48 63 45 f8          	movsxd rax,DWORD PTR [rbp-0x8]
  4011ea:	48 3b 05 2f 2f 00 00 	cmp    rax,QWORD PTR [rip+0x2f2f]        # 404120 <n_case>
  4011f1:	0f 83 58 00 00 00    	jae    40124f <test_strlen+0x7f>
  4011f7:	48 63 4d f8          	movsxd rcx,DWORD PTR [rbp-0x8]
  4011fb:	48 8d 05 9e 2e 00 00 	lea    rax,[rip+0x2e9e]        # 4040a0 <cases>
  401202:	48 8b 04 c8          	mov    rax,QWORD PTR [rax+rcx*8]
  401206:	48 89 45 f0          	mov    QWORD PTR [rbp-0x10],rax
  40120a:	48 8b 7d f0          	mov    rdi,QWORD PTR [rbp-0x10]
  40120e:	e8 3d fe ff ff       	call   401050 <strlen@plt>
  401213:	48 89 45 e8          	mov    QWORD PTR [rbp-0x18],rax
  401217:	48 8b 7d f0          	mov    rdi,QWORD PTR [rbp-0x10]
  40121b:	e8 20 09 00 00       	call   401b40 <ft_strlen>
  401220:	48 89 c1             	mov    rcx,rax
  401223:	48 8b 45 e8          	mov    rax,QWORD PTR [rbp-0x18]
  401227:	48 39 c8             	cmp    rax,rcx
  40122a:	0f 85 05 00 00 00    	jne    401235 <test_strlen+0x65>
  401230:	e9 0c 00 00 00       	jmp    401241 <test_strlen+0x71>
  401235:	c7 45 fc 01 00 00 00 	mov    DWORD PTR [rbp-0x4],0x1
  40123c:	e9 0e 00 00 00       	jmp    40124f <test_strlen+0x7f>
  401241:	8b 45 f8             	mov    eax,DWORD PTR [rbp-0x8]
  401244:	83 c0 01             	add    eax,0x1
  401247:	89 45 f8             	mov    DWORD PTR [rbp-0x8],eax
  40124a:	e9 97 ff ff ff       	jmp    4011e6 <test_strlen+0x16>
  40124f:	83 7d fc 00          	cmp    DWORD PTR [rbp-0x4],0x0
  401253:	0f 84 1a 00 00 00    	je     401273 <test_strlen+0xa3>
  401259:	48 8d 3d a4 0d 00 00 	lea    rdi,[rip+0xda4]        # 402004 <_IO_stdin_used+0x4>
  401260:	48 8d 35 a6 0d 00 00 	lea    rsi,[rip+0xda6]        # 40200d <_IO_stdin_used+0xd>
  401267:	b0 00                	mov    al,0x0
  401269:	e8 f2 fd ff ff       	call   401060 <printf@plt>
  40126e:	e9 15 00 00 00       	jmp    401288 <test_strlen+0xb8>
  401273:	48 8d 3d 9f 0d 00 00 	lea    rdi,[rip+0xd9f]        # 402019 <_IO_stdin_used+0x19>
  40127a:	48 8d 35 8c 0d 00 00 	lea    rsi,[rip+0xd8c]        # 40200d <_IO_stdin_used+0xd>
  401281:	b0 00                	mov    al,0x0
  401283:	e8 d8 fd ff ff       	call   401060 <printf@plt>
  401288:	48 83 c4 20          	add    rsp,0x20
  40128c:	5d                   	pop    rbp
  40128d:	c3                   	ret    
  40128e:	66 90                	xchg   ax,ax

0000000000401290 <test_strcpy>:
  401290:	55                   	push   rbp
  401291:	48 89 e5             	mov    rbp,rsp
  401294:	48 81 ec 10 08 00 00 	sub    rsp,0x810
  40129b:	c7 85 fc f7 ff ff 00 	mov    DWORD PTR [rbp-0x804],0x0
  4012a2:	00 00 00 
  4012a5:	c7 85 f8 f7 ff ff 00 	mov    DWORD PTR [rbp-0x808],0x0
  4012ac:	00 00 00 
  4012af:	48 63 85 f8 f7 ff ff 	movsxd rax,DWORD PTR [rbp-0x808]
  4012b6:	48 3b 05 63 2e 00 00 	cmp    rax,QWORD PTR [rip+0x2e63]        # 404120 <n_case>
  4012bd:	0f 83 9c 00 00 00    	jae    40135f <test_strcpy+0xcf>
  4012c3:	48 63 8d f8 f7 ff ff 	movsxd rcx,DWORD PTR [rbp-0x808]
  4012ca:	48 8d 05 cf 2d 00 00 	lea    rax,[rip+0x2dcf]        # 4040a0 <cases>
  4012d1:	48 8b 04 c8          	mov    rax,QWORD PTR [rax+rcx*8]
  4012d5:	48 89 85 f0 f7 ff ff 	mov    QWORD PTR [rbp-0x810],rax
  4012dc:	48 8b 85 f0 f7 ff ff 	mov    rax,QWORD PTR [rbp-0x810]
  4012e3:	48 3b 05 2e 2e 00 00 	cmp    rax,QWORD PTR [rip+0x2e2e]        # 404118 <g_long_string>
  4012ea:	0f 85 05 00 00 00    	jne    4012f5 <test_strcpy+0x65>
  4012f0:	e9 56 00 00 00       	jmp    40134b <test_strcpy+0xbb>
  4012f5:	48 8d bd 00 fc ff ff 	lea    rdi,[rbp-0x400]
  4012fc:	48 8b b5 f0 f7 ff ff 	mov    rsi,QWORD PTR [rbp-0x810]
  401303:	e8 28 fd ff ff       	call   401030 <strcpy@plt>
  401308:	48 8d bd 00 f8 ff ff 	lea    rdi,[rbp-0x800]
  40130f:	48 8b b5 f0 f7 ff ff 	mov    rsi,QWORD PTR [rbp-0x810]
  401316:	e8 45 08 00 00       	call   401b60 <ft_strcpy>
  40131b:	48 8d bd 00 fc ff ff 	lea    rdi,[rbp-0x400]
  401322:	48 8d b5 00 f8 ff ff 	lea    rsi,[rbp-0x800]
  401329:	e8 72 fd ff ff       	call   4010a0 <strcmp@plt>
  40132e:	83 f8 00             	cmp    eax,0x0
  401331:	0f 85 05 00 00 00    	jne    40133c <test_strcpy+0xac>
  401337:	e9 0f 00 00 00       	jmp    40134b <test_strcpy+0xbb>
  40133c:	c7 85 fc f7 ff ff 01 	mov    DWORD PTR [rbp-0x804],0x1
  401343:	00 00 00 
  401346:	e9 14 00 00 00       	jmp    40135f <test_strcpy+0xcf>
  40134b:	8b 85 f8 f7 ff ff    	mov    eax,DWORD PTR [rbp-0x808]
  401351:	83 c0 01             	add    eax,0x1
  401354:	89 85 f8 f7 ff ff    	mov    DWORD PTR [rbp-0x808],eax
  40135a:	e9 50 ff ff ff       	jmp    4012af <test_strcpy+0x1f>
  40135f:	83 bd fc f7 ff ff 00 	cmp    DWORD PTR [rbp-0x804],0x0
  401366:	0f 84 1a 00 00 00    	je     401386 <test_strcpy+0xf6>
  40136c:	48 8d 3d 91 0c 00 00 	lea    rdi,[rip+0xc91]        # 402004 <_IO_stdin_used+0x4>
  401373:	48 8d 35 ab 0c 00 00 	lea    rsi,[rip+0xcab]        # 402025 <_IO_stdin_used+0x25>
  40137a:	b0 00                	mov    al,0x0
  40137c:	e8 df fc ff ff       	call   401060 <printf@plt>
  401381:	e9 15 00 00 00       	jmp    40139b <test_strcpy+0x10b>
  401386:	48 8d 3d 8c 0c 00 00 	lea    rdi,[rip+0xc8c]        # 402019 <_IO_stdin_used+0x19>
  40138d:	48 8d 35 91 0c 00 00 	lea    rsi,[rip+0xc91]        # 402025 <_IO_stdin_used+0x25>
  401394:	b0 00                	mov    al,0x0
  401396:	e8 c5 fc ff ff       	call   401060 <printf@plt>
  40139b:	48 81 c4 10 08 00 00 	add    rsp,0x810
  4013a2:	5d                   	pop    rbp
  4013a3:	c3                   	ret    
  4013a4:	66 2e 0f 1f 84 00 00 	cs nop WORD PTR [rax+rax*1+0x0]
  4013ab:	00 00 00 
  4013ae:	66 90                	xchg   ax,ax

00000000004013b0 <test_strcmp>:
  4013b0:	55                   	push   rbp
  4013b1:	48 89 e5             	mov    rbp,rsp
  4013b4:	48 83 ec 30          	sub    rsp,0x30
  4013b8:	c7 45 fc 00 00 00 00 	mov    DWORD PTR [rbp-0x4],0x0
  4013bf:	c7 45 f8 00 00 00 00 	mov    DWORD PTR [rbp-0x8],0x0
  4013c6:	48 63 45 f8          	movsxd rax,DWORD PTR [rbp-0x8]
  4013ca:	48 3b 05 4f 2d 00 00 	cmp    rax,QWORD PTR [rip+0x2d4f]        # 404120 <n_case>
  4013d1:	0f 83 9a 00 00 00    	jae    401471 <test_strcmp+0xc1>
  4013d7:	c7 45 f4 00 00 00 00 	mov    DWORD PTR [rbp-0xc],0x0
  4013de:	48 63 45 f4          	movsxd rax,DWORD PTR [rbp-0xc]
  4013e2:	48 3b 05 37 2d 00 00 	cmp    rax,QWORD PTR [rip+0x2d37]        # 404120 <n_case>
  4013e9:	0f 83 6f 00 00 00    	jae    40145e <test_strcmp+0xae>
  4013ef:	48 63 4d f8          	movsxd rcx,DWORD PTR [rbp-0x8]
  4013f3:	48 8d 05 a6 2c 00 00 	lea    rax,[rip+0x2ca6]        # 4040a0 <cases>
  4013fa:	48 8b 04 c8          	mov    rax,QWORD PTR [rax+rcx*8]
  4013fe:	48 89 45 e8          	mov    QWORD PTR [rbp-0x18],rax
  401402:	48 63 4d f4          	movsxd rcx,DWORD PTR [rbp-0xc]
  401406:	48 8d 05 93 2c 00 00 	lea    rax,[rip+0x2c93]        # 4040a0 <cases>
  40140d:	48 8b 04 c8          	mov    rax,QWORD PTR [rax+rcx*8]
  401411:	48 89 45 e0          	mov    QWORD PTR [rbp-0x20],rax
  401415:	48 8b 7d e8          	mov    rdi,QWORD PTR [rbp-0x18]
  401419:	48 8b 75 e0          	mov    rsi,QWORD PTR [rbp-0x20]
  40141d:	e8 7e fc ff ff       	call   4010a0 <strcmp@plt>
  401422:	89 45 dc             	mov    DWORD PTR [rbp-0x24],eax
  401425:	48 8b 7d e8          	mov    rdi,QWORD PTR [rbp-0x18]
  401429:	48 8b 75 e0          	mov    rsi,QWORD PTR [rbp-0x20]
  40142d:	e8 4e 07 00 00       	call   401b80 <ft_strcmp>
  401432:	89 c1                	mov    ecx,eax
  401434:	8b 45 dc             	mov    eax,DWORD PTR [rbp-0x24]
  401437:	39 c8                	cmp    eax,ecx
  401439:	0f 85 05 00 00 00    	jne    401444 <test_strcmp+0x94>
  40143f:	e9 0c 00 00 00       	jmp    401450 <test_strcmp+0xa0>
  401444:	c7 45 fc 01 00 00 00 	mov    DWORD PTR [rbp-0x4],0x1
  40144b:	e9 0e 00 00 00       	jmp    40145e <test_strcmp+0xae>
  401450:	8b 45 f4             	mov    eax,DWORD PTR [rbp-0xc]
  401453:	83 c0 01             	add    eax,0x1
  401456:	89 45 f4             	mov    DWORD PTR [rbp-0xc],eax
  401459:	e9 80 ff ff ff       	jmp    4013de <test_strcmp+0x2e>
  40145e:	e9 00 00 00 00       	jmp    401463 <test_strcmp+0xb3>
  401463:	8b 45 f8             	mov    eax,DWORD PTR [rbp-0x8]
  401466:	83 c0 01             	add    eax,0x1
  401469:	89 45 f8             	mov    DWORD PTR [rbp-0x8],eax
  40146c:	e9 55 ff ff ff       	jmp    4013c6 <test_strcmp+0x16>
  401471:	83 7d fc 00          	cmp    DWORD PTR [rbp-0x4],0x0
  401475:	0f 84 1a 00 00 00    	je     401495 <test_strcmp+0xe5>
  40147b:	48 8d 3d 82 0b 00 00 	lea    rdi,[rip+0xb82]        # 402004 <_IO_stdin_used+0x4>
  401482:	48 8d 35 a8 0b 00 00 	lea    rsi,[rip+0xba8]        # 402031 <_IO_stdin_used+0x31>
  401489:	b0 00                	mov    al,0x0
  40148b:	e8 d0 fb ff ff       	call   401060 <printf@plt>
  401490:	e9 15 00 00 00       	jmp    4014aa <test_strcmp+0xfa>
  401495:	48 8d 3d 7d 0b 00 00 	lea    rdi,[rip+0xb7d]        # 402019 <_IO_stdin_used+0x19>
  40149c:	48 8d 35 8e 0b 00 00 	lea    rsi,[rip+0xb8e]        # 402031 <_IO_stdin_used+0x31>
  4014a3:	b0 00                	mov    al,0x0
  4014a5:	e8 b6 fb ff ff       	call   401060 <printf@plt>
  4014aa:	48 83 c4 30          	add    rsp,0x30
  4014ae:	5d                   	pop    rbp
  4014af:	c3                   	ret    

00000000004014b0 <test_strdup>:
  4014b0:	55                   	push   rbp
  4014b1:	48 89 e5             	mov    rbp,rsp
  4014b4:	48 83 ec 30          	sub    rsp,0x30
  4014b8:	c7 45 fc 00 00 00 00 	mov    DWORD PTR [rbp-0x4],0x0
  4014bf:	c7 45 f8 00 00 00 00 	mov    DWORD PTR [rbp-0x8],0x0
  4014c6:	48 63 45 f8          	movsxd rax,DWORD PTR [rbp-0x8]
  4014ca:	48 3b 05 4f 2c 00 00 	cmp    rax,QWORD PTR [rip+0x2c4f]        # 404120 <n_case>
  4014d1:	0f 83 a6 00 00 00    	jae    40157d <test_strdup+0xcd>
  4014d7:	48 63 4d f8          	movsxd rcx,DWORD PTR [rbp-0x8]
  4014db:	48 8d 05 be 2b 00 00 	lea    rax,[rip+0x2bbe]        # 4040a0 <cases>
  4014e2:	48 8b 04 c8          	mov    rax,QWORD PTR [rax+rcx*8]
  4014e6:	48 89 45 f0          	mov    QWORD PTR [rbp-0x10],rax
  4014ea:	48 8b 7d f0          	mov    rdi,QWORD PTR [rbp-0x10]
  4014ee:	e8 cd fb ff ff       	call   4010c0 <strdup@plt>
  4014f3:	48 89 45 e8          	mov    QWORD PTR [rbp-0x18],rax
  4014f7:	48 8b 7d f0          	mov    rdi,QWORD PTR [rbp-0x10]
  4014fb:	e8 c0 06 00 00       	call   401bc0 <ft_strdup>
  401500:	48 89 45 e0          	mov    QWORD PTR [rbp-0x20],rax
  401504:	48 8b 7d e8          	mov    rdi,QWORD PTR [rbp-0x18]
  401508:	48 8b 75 e0          	mov    rsi,QWORD PTR [rbp-0x20]
  40150c:	e8 8f fb ff ff       	call   4010a0 <strcmp@plt>
  401511:	89 c1                	mov    ecx,eax
  401513:	31 c0                	xor    eax,eax
  401515:	83 f9 00             	cmp    ecx,0x0
  401518:	88 45 db             	mov    BYTE PTR [rbp-0x25],al
  40151b:	0f 85 16 00 00 00    	jne    401537 <test_strdup+0x87>
  401521:	48 8b 7d e8          	mov    rdi,QWORD PTR [rbp-0x18]
  401525:	48 8b 75 e0          	mov    rsi,QWORD PTR [rbp-0x20]
  401529:	e8 52 06 00 00       	call   401b80 <ft_strcmp>
  40152e:	83 f8 00             	cmp    eax,0x0
  401531:	0f 94 c0             	sete   al
  401534:	88 45 db             	mov    BYTE PTR [rbp-0x25],al
  401537:	8a 45 db             	mov    al,BYTE PTR [rbp-0x25]
  40153a:	24 01                	and    al,0x1
  40153c:	0f b6 c0             	movzx  eax,al
  40153f:	89 45 dc             	mov    DWORD PTR [rbp-0x24],eax
  401542:	48 8b 7d e8          	mov    rdi,QWORD PTR [rbp-0x18]
  401546:	e8 c5 fa ff ff       	call   401010 <free@plt>
  40154b:	48 8b 7d e0          	mov    rdi,QWORD PTR [rbp-0x20]
  40154f:	e8 bc fa ff ff       	call   401010 <free@plt>
  401554:	83 7d dc 00          	cmp    DWORD PTR [rbp-0x24],0x0
  401558:	0f 84 05 00 00 00    	je     401563 <test_strdup+0xb3>
  40155e:	e9 0c 00 00 00       	jmp    40156f <test_strdup+0xbf>
  401563:	c7 45 fc 01 00 00 00 	mov    DWORD PTR [rbp-0x4],0x1
  40156a:	e9 0e 00 00 00       	jmp    40157d <test_strdup+0xcd>
  40156f:	8b 45 f8             	mov    eax,DWORD PTR [rbp-0x8]
  401572:	83 c0 01             	add    eax,0x1
  401575:	89 45 f8             	mov    DWORD PTR [rbp-0x8],eax
  401578:	e9 49 ff ff ff       	jmp    4014c6 <test_strdup+0x16>
  40157d:	83 7d fc 00          	cmp    DWORD PTR [rbp-0x4],0x0
  401581:	0f 84 1a 00 00 00    	je     4015a1 <test_strdup+0xf1>
  401587:	48 8d 3d 76 0a 00 00 	lea    rdi,[rip+0xa76]        # 402004 <_IO_stdin_used+0x4>
  40158e:	48 8d 35 a8 0a 00 00 	lea    rsi,[rip+0xaa8]        # 40203d <_IO_stdin_used+0x3d>
  401595:	b0 00                	mov    al,0x0
  401597:	e8 c4 fa ff ff       	call   401060 <printf@plt>
  40159c:	e9 15 00 00 00       	jmp    4015b6 <test_strdup+0x106>
  4015a1:	48 8d 3d 71 0a 00 00 	lea    rdi,[rip+0xa71]        # 402019 <_IO_stdin_used+0x19>
  4015a8:	48 8d 35 8e 0a 00 00 	lea    rsi,[rip+0xa8e]        # 40203d <_IO_stdin_used+0x3d>
  4015af:	b0 00                	mov    al,0x0
  4015b1:	e8 aa fa ff ff       	call   401060 <printf@plt>
  4015b6:	48 83 c4 30          	add    rsp,0x30
  4015ba:	5d                   	pop    rbp
  4015bb:	c3                   	ret    
  4015bc:	0f 1f 40 00          	nop    DWORD PTR [rax+0x0]

00000000004015c0 <test_read_normal>:
  4015c0:	55                   	push   rbp
  4015c1:	48 89 e5             	mov    rbp,rsp
  4015c4:	48 81 ec 60 08 00 00 	sub    rsp,0x860
  4015cb:	48 8d 7d f4          	lea    rdi,[rbp-0xc]
  4015cf:	e8 ac fa ff ff       	call   401080 <pipe@plt>
  4015d4:	48 8d 45 f4          	lea    rax,[rbp-0xc]
  4015d8:	48 89 85 e8 f7 ff ff 	mov    QWORD PTR [rbp-0x818],rax
  4015df:	c7 85 e4 f7 ff ff 00 	mov    DWORD PTR [rbp-0x81c],0x0
  4015e6:	00 00 00 
  4015e9:	48 63 85 e4 f7 ff ff 	movsxd rax,DWORD PTR [rbp-0x81c]
  4015f0:	48 3b 05 29 2b 00 00 	cmp    rax,QWORD PTR [rip+0x2b29]        # 404120 <n_case>
  4015f7:	0f 83 ee 01 00 00    	jae    4017eb <test_read_normal+0x22b>
  4015fd:	48 63 8d e4 f7 ff ff 	movsxd rcx,DWORD PTR [rbp-0x81c]
  401604:	48 8d 05 95 2a 00 00 	lea    rax,[rip+0x2a95]        # 4040a0 <cases>
  40160b:	48 8b 04 c8          	mov    rax,QWORD PTR [rax+rcx*8]
  40160f:	48 89 85 d8 f7 ff ff 	mov    QWORD PTR [rbp-0x828],rax
  401616:	48 8b 85 d8 f7 ff ff 	mov    rax,QWORD PTR [rbp-0x828]
  40161d:	48 3b 05 f4 2a 00 00 	cmp    rax,QWORD PTR [rip+0x2af4]        # 404118 <g_long_string>
  401624:	0f 85 05 00 00 00    	jne    40162f <test_read_normal+0x6f>
  40162a:	e9 a8 01 00 00       	jmp    4017d7 <test_read_normal+0x217>
  40162f:	48 8b bd d8 f7 ff ff 	mov    rdi,QWORD PTR [rbp-0x828]
  401636:	e8 15 fa ff ff       	call   401050 <strlen@plt>
  40163b:	48 89 85 d0 f7 ff ff 	mov    QWORD PTR [rbp-0x830],rax
  401642:	48 8d bd f0 fb ff ff 	lea    rdi,[rbp-0x410]
  401649:	31 f6                	xor    esi,esi
  40164b:	ba 00 04 00 00       	mov    edx,0x400
  401650:	e8 1b fa ff ff       	call   401070 <memset@plt>
  401655:	48 8d bd f0 f7 ff ff 	lea    rdi,[rbp-0x810]
  40165c:	31 f6                	xor    esi,esi
  40165e:	ba 00 04 00 00       	mov    edx,0x400
  401663:	e8 08 fa ff ff       	call   401070 <memset@plt>
  401668:	48 8b 85 e8 f7 ff ff 	mov    rax,QWORD PTR [rbp-0x818]
  40166f:	8b 78 04             	mov    edi,DWORD PTR [rax+0x4]
  401672:	48 8b b5 d8 f7 ff ff 	mov    rsi,QWORD PTR [rbp-0x828]
  401679:	48 8b 95 d0 f7 ff ff 	mov    rdx,QWORD PTR [rbp-0x830]
  401680:	e8 bb f9 ff ff       	call   401040 <write@plt>
  401685:	48 8b 85 e8 f7 ff ff 	mov    rax,QWORD PTR [rbp-0x818]
  40168c:	8b 38                	mov    edi,DWORD PTR [rax]
  40168e:	48 8d b5 f0 fb ff ff 	lea    rsi,[rbp-0x410]
  401695:	48 8b 95 d0 f7 ff ff 	mov    rdx,QWORD PTR [rbp-0x830]
  40169c:	e8 ef f9 ff ff       	call   401090 <read@plt>
  4016a1:	48 89 85 c8 f7 ff ff 	mov    QWORD PTR [rbp-0x838],rax
  4016a8:	e8 73 f9 ff ff       	call   401020 <__errno_location@plt>
  4016ad:	8b 00                	mov    eax,DWORD PTR [rax]
  4016af:	89 85 bc f7 ff ff    	mov    DWORD PTR [rbp-0x844],eax
  4016b5:	e8 66 f9 ff ff       	call   401020 <__errno_location@plt>
  4016ba:	c7 00 00 00 00 00    	mov    DWORD PTR [rax],0x0
  4016c0:	48 8b 85 e8 f7 ff ff 	mov    rax,QWORD PTR [rbp-0x818]
  4016c7:	8b 78 04             	mov    edi,DWORD PTR [rax+0x4]
  4016ca:	48 8b b5 d8 f7 ff ff 	mov    rsi,QWORD PTR [rbp-0x828]
  4016d1:	48 8b 95 d0 f7 ff ff 	mov    rdx,QWORD PTR [rbp-0x830]
  4016d8:	e8 63 f9 ff ff       	call   401040 <write@plt>
  4016dd:	48 8b 85 e8 f7 ff ff 	mov    rax,QWORD PTR [rbp-0x818]
  4016e4:	8b 38                	mov    edi,DWORD PTR [rax]
  4016e6:	48 8d b5 f0 f7 ff ff 	lea    rsi,[rbp-0x810]
  4016ed:	48 8b 95 d0 f7 ff ff 	mov    rdx,QWORD PTR [rbp-0x830]
  4016f4:	e8 17 05 00 00       	call   401c10 <ft_read>
  4016f9:	48 89 85 c0 f7 ff ff 	mov    QWORD PTR [rbp-0x840],rax
  401700:	e8 1b f9 ff ff       	call   401020 <__errno_location@plt>
  401705:	8b 00                	mov    eax,DWORD PTR [rax]
  401707:	89 85 b8 f7 ff ff    	mov    DWORD PTR [rbp-0x848],eax
  40170d:	48 8d bd f0 fb ff ff 	lea    rdi,[rbp-0x410]
  401714:	48 8d b5 f0 f7 ff ff 	lea    rsi,[rbp-0x810]
  40171b:	e8 80 f9 ff ff       	call   4010a0 <strcmp@plt>
  401720:	83 f8 00             	cmp    eax,0x0
  401723:	0f 85 2b 00 00 00    	jne    401754 <test_read_normal+0x194>
  401729:	8b 85 bc f7 ff ff    	mov    eax,DWORD PTR [rbp-0x844]
  40172f:	3b 85 b8 f7 ff ff    	cmp    eax,DWORD PTR [rbp-0x848]
  401735:	0f 85 19 00 00 00    	jne    401754 <test_read_normal+0x194>
  40173b:	48 8b 85 c8 f7 ff ff 	mov    rax,QWORD PTR [rbp-0x838]
  401742:	48 3b 85 c0 f7 ff ff 	cmp    rax,QWORD PTR [rbp-0x840]
  401749:	0f 85 05 00 00 00    	jne    401754 <test_read_normal+0x194>
  40174f:	e9 83 00 00 00       	jmp    4017d7 <test_read_normal+0x217>
  401754:	8b b5 e4 f7 ff ff    	mov    esi,DWORD PTR [rbp-0x81c]
  40175a:	83 c6 01             	add    esi,0x1
  40175d:	48 8d 3d e5 08 00 00 	lea    rdi,[rip+0x8e5]        # 402049 <_IO_stdin_used+0x49>
  401764:	b0 00                	mov    al,0x0
  401766:	e8 f5 f8 ff ff       	call   401060 <printf@plt>
  40176b:	8b bd bc f7 ff ff    	mov    edi,DWORD PTR [rbp-0x844]
  401771:	e8 5a f9 ff ff       	call   4010d0 <strerror@plt>
  401776:	48 89 85 a8 f7 ff ff 	mov    QWORD PTR [rbp-0x858],rax
  40177d:	8b 85 bc f7 ff ff    	mov    eax,DWORD PTR [rbp-0x844]
  401783:	89 85 b4 f7 ff ff    	mov    DWORD PTR [rbp-0x84c],eax
  401789:	8b bd b8 f7 ff ff    	mov    edi,DWORD PTR [rbp-0x848]
  40178f:	e8 3c f9 ff ff       	call   4010d0 <strerror@plt>
  401794:	48 8b b5 a8 f7 ff ff 	mov    rsi,QWORD PTR [rbp-0x858]
  40179b:	8b 95 b4 f7 ff ff    	mov    edx,DWORD PTR [rbp-0x84c]
  4017a1:	48 89 c1             	mov    rcx,rax
  4017a4:	44 8b 85 b8 f7 ff ff 	mov    r8d,DWORD PTR [rbp-0x848]
  4017ab:	4c 8b 8d c8 f7 ff ff 	mov    r9,QWORD PTR [rbp-0x838]
  4017b2:	48 8b 85 c0 f7 ff ff 	mov    rax,QWORD PTR [rbp-0x840]
  4017b9:	48 8d 3d 8e 08 00 00 	lea    rdi,[rip+0x88e]        # 40204e <_IO_stdin_used+0x4e>
  4017c0:	48 89 04 24          	mov    QWORD PTR [rsp],rax
  4017c4:	b0 00                	mov    al,0x0
  4017c6:	e8 95 f8 ff ff       	call   401060 <printf@plt>
  4017cb:	c7 45 fc 01 00 00 00 	mov    DWORD PTR [rbp-0x4],0x1
  4017d2:	e9 14 00 00 00       	jmp    4017eb <test_read_normal+0x22b>
  4017d7:	8b 85 e4 f7 ff ff    	mov    eax,DWORD PTR [rbp-0x81c]
  4017dd:	83 c0 01             	add    eax,0x1
  4017e0:	89 85 e4 f7 ff ff    	mov    DWORD PTR [rbp-0x81c],eax
  4017e6:	e9 fe fd ff ff       	jmp    4015e9 <test_read_normal+0x29>
  4017eb:	83 7d fc 00          	cmp    DWORD PTR [rbp-0x4],0x0
  4017ef:	0f 84 1a 00 00 00    	je     40180f <test_read_normal+0x24f>
  4017f5:	48 8d 3d 08 08 00 00 	lea    rdi,[rip+0x808]        # 402004 <_IO_stdin_used+0x4>
  4017fc:	48 8d 35 74 08 00 00 	lea    rsi,[rip+0x874]        # 402077 <_IO_stdin_used+0x77>
  401803:	b0 00                	mov    al,0x0
  401805:	e8 56 f8 ff ff       	call   401060 <printf@plt>
  40180a:	e9 15 00 00 00       	jmp    401824 <test_read_normal+0x264>
  40180f:	48 8d 3d 03 08 00 00 	lea    rdi,[rip+0x803]        # 402019 <_IO_stdin_used+0x19>
  401816:	48 8d 35 5a 08 00 00 	lea    rsi,[rip+0x85a]        # 402077 <_IO_stdin_used+0x77>
  40181d:	b0 00                	mov    al,0x0
  40181f:	e8 3c f8 ff ff       	call   401060 <printf@plt>
  401824:	48 81 c4 60 08 00 00 	add    rsp,0x860
  40182b:	5d                   	pop    rbp
  40182c:	c3                   	ret    
  40182d:	0f 1f 00             	nop    DWORD PTR [rax]

0000000000401830 <test_read_error>:
  401830:	55                   	push   rbp
  401831:	48 89 e5             	mov    rbp,rsp
  401834:	48 81 ec a0 00 00 00 	sub    rsp,0xa0
  40183b:	48 8b 05 8e 08 00 00 	mov    rax,QWORD PTR [rip+0x88e]        # 4020d0 <_IO_stdin_used+0xd0>
  401842:	48 89 45 e0          	mov    QWORD PTR [rbp-0x20],rax
  401846:	48 8b 05 8b 08 00 00 	mov    rax,QWORD PTR [rip+0x88b]        # 4020d8 <_IO_stdin_used+0xd8>
  40184d:	48 89 45 e8          	mov    QWORD PTR [rbp-0x18],rax
  401851:	8b 05 89 08 00 00    	mov    eax,DWORD PTR [rip+0x889]        # 4020e0 <_IO_stdin_used+0xe0>
  401857:	89 45 f0             	mov    DWORD PTR [rbp-0x10],eax
  40185a:	c7 45 dc 05 00 00 00 	mov    DWORD PTR [rbp-0x24],0x5
  401861:	48 8d 7d d4          	lea    rdi,[rbp-0x2c]
  401865:	31 f6                	xor    esi,esi
  401867:	ba 08 00 00 00       	mov    edx,0x8
  40186c:	e8 ff f7 ff ff       	call   401070 <memset@plt>
  401871:	c7 45 d0 00 00 00 00 	mov    DWORD PTR [rbp-0x30],0x0
  401878:	8b 45 d0             	mov    eax,DWORD PTR [rbp-0x30]
  40187b:	3b 45 dc             	cmp    eax,DWORD PTR [rbp-0x24]
  40187e:	0f 8d e2 00 00 00    	jge    401966 <test_read_error+0x136>
  401884:	48 63 45 d0          	movsxd rax,DWORD PTR [rbp-0x30]
  401888:	8b 7c 85 e0          	mov    edi,DWORD PTR [rbp+rax*4-0x20]
  40188c:	48 8d 75 d4          	lea    rsi,[rbp-0x2c]
  401890:	ba 07 00 00 00       	mov    edx,0x7
  401895:	e8 f6 f7 ff ff       	call   401090 <read@plt>
  40189a:	48 89 45 c0          	mov    QWORD PTR [rbp-0x40],rax
  40189e:	e8 7d f7 ff ff       	call   401020 <__errno_location@plt>
  4018a3:	8b 00                	mov    eax,DWORD PTR [rax]
  4018a5:	89 45 cc             	mov    DWORD PTR [rbp-0x34],eax
  4018a8:	e8 73 f7 ff ff       	call   401020 <__errno_location@plt>
  4018ad:	c7 00 00 00 00 00    	mov    DWORD PTR [rax],0x0
  4018b3:	48 63 45 d0          	movsxd rax,DWORD PTR [rbp-0x30]
  4018b7:	8b 7c 85 e0          	mov    edi,DWORD PTR [rbp+rax*4-0x20]
  4018bb:	48 8d 75 d4          	lea    rsi,[rbp-0x2c]
  4018bf:	ba 07 00 00 00       	mov    edx,0x7
  4018c4:	e8 47 03 00 00       	call   401c10 <ft_read>
  4018c9:	48 89 45 b8          	mov    QWORD PTR [rbp-0x48],rax
  4018cd:	e8 4e f7 ff ff       	call   401020 <__errno_location@plt>
  4018d2:	8b 00                	mov    eax,DWORD PTR [rax]
  4018d4:	89 45 c8             	mov    DWORD PTR [rbp-0x38],eax
  4018d7:	8b 45 cc             	mov    eax,DWORD PTR [rbp-0x34]
  4018da:	3b 45 c8             	cmp    eax,DWORD PTR [rbp-0x38]
  4018dd:	0f 85 13 00 00 00    	jne    4018f6 <test_read_error+0xc6>
  4018e3:	48 8b 45 c0          	mov    rax,QWORD PTR [rbp-0x40]
  4018e7:	48 3b 45 b8          	cmp    rax,QWORD PTR [rbp-0x48]
  4018eb:	0f 85 05 00 00 00    	jne    4018f6 <test_read_error+0xc6>
  4018f1:	e9 62 00 00 00       	jmp    401958 <test_read_error+0x128>
  4018f6:	8b 75 d0             	mov    esi,DWORD PTR [rbp-0x30]
  4018f9:	83 c6 01             	add    esi,0x1
  4018fc:	48 8d 3d 46 07 00 00 	lea    rdi,[rip+0x746]        # 402049 <_IO_stdin_used+0x49>
  401903:	b0 00                	mov    al,0x0
  401905:	e8 56 f7 ff ff       	call   401060 <printf@plt>
  40190a:	8b 7d cc             	mov    edi,DWORD PTR [rbp-0x34]
  40190d:	e8 be f7 ff ff       	call   4010d0 <strerror@plt>
  401912:	48 89 45 90          	mov    QWORD PTR [rbp-0x70],rax
  401916:	8b 45 cc             	mov    eax,DWORD PTR [rbp-0x34]
  401919:	89 45 9c             	mov    DWORD PTR [rbp-0x64],eax
  40191c:	8b 7d c8             	mov    edi,DWORD PTR [rbp-0x38]
  40191f:	e8 ac f7 ff ff       	call   4010d0 <strerror@plt>
  401924:	48 8b 75 90          	mov    rsi,QWORD PTR [rbp-0x70]
  401928:	8b 55 9c             	mov    edx,DWORD PTR [rbp-0x64]
  40192b:	48 89 c1             	mov    rcx,rax
  40192e:	44 8b 45 c8          	mov    r8d,DWORD PTR [rbp-0x38]
  401932:	4c 8b 4d c0          	mov    r9,QWORD PTR [rbp-0x40]
  401936:	48 8b 45 b8          	mov    rax,QWORD PTR [rbp-0x48]
  40193a:	48 8d 3d 0d 07 00 00 	lea    rdi,[rip+0x70d]        # 40204e <_IO_stdin_used+0x4e>
  401941:	48 89 04 24          	mov    QWORD PTR [rsp],rax
  401945:	b0 00                	mov    al,0x0
  401947:	e8 14 f7 ff ff       	call   401060 <printf@plt>
  40194c:	c7 45 fc 01 00 00 00 	mov    DWORD PTR [rbp-0x4],0x1
  401953:	e9 0e 00 00 00       	jmp    401966 <test_read_error+0x136>
  401958:	8b 45 d0             	mov    eax,DWORD PTR [rbp-0x30]
  40195b:	83 c0 01             	add    eax,0x1
  40195e:	89 45 d0             	mov    DWORD PTR [rbp-0x30],eax
  401961:	e9 12 ff ff ff       	jmp    401878 <test_read_error+0x48>
  401966:	48 8d 75 d4          	lea    rsi,[rbp-0x2c]
  40196a:	31 ff                	xor    edi,edi
  40196c:	48 c7 c2 ff ff ff ff 	mov    rdx,0xffffffffffffffff
  401973:	e8 18 f7 ff ff       	call   401090 <read@plt>
  401978:	48 89 45 a8          	mov    QWORD PTR [rbp-0x58],rax
  40197c:	e8 9f f6 ff ff       	call   401020 <__errno_location@plt>
  401981:	8b 00                	mov    eax,DWORD PTR [rax]
  401983:	89 45 b4             	mov    DWORD PTR [rbp-0x4c],eax
  401986:	e8 95 f6 ff ff       	call   401020 <__errno_location@plt>
  40198b:	c7 00 00 00 00 00    	mov    DWORD PTR [rax],0x0
  401991:	48 8d 75 d4          	lea    rsi,[rbp-0x2c]
  401995:	31 ff                	xor    edi,edi
  401997:	48 c7 c2 ff ff ff ff 	mov    rdx,0xffffffffffffffff
  40199e:	e8 6d 02 00 00       	call   401c10 <ft_read>
  4019a3:	48 89 45 a0          	mov    QWORD PTR [rbp-0x60],rax
  4019a7:	e8 74 f6 ff ff       	call   401020 <__errno_location@plt>
  4019ac:	8b 00                	mov    eax,DWORD PTR [rax]
  4019ae:	89 45 b0             	mov    DWORD PTR [rbp-0x50],eax
  4019b1:	8b 45 b4             	mov    eax,DWORD PTR [rbp-0x4c]
  4019b4:	3b 45 b0             	cmp    eax,DWORD PTR [rbp-0x50]
  4019b7:	0f 85 0e 00 00 00    	jne    4019cb <test_read_error+0x19b>
  4019bd:	48 8b 45 a8          	mov    rax,QWORD PTR [rbp-0x58]
  4019c1:	48 3b 45 a0          	cmp    rax,QWORD PTR [rbp-0x60]
  4019c5:	0f 84 57 00 00 00    	je     401a22 <test_read_error+0x1f2>
  4019cb:	48 8d 3d b6 06 00 00 	lea    rdi,[rip+0x6b6]        # 402088 <_IO_stdin_used+0x88>
  4019d2:	b0 00                	mov    al,0x0
  4019d4:	e8 87 f6 ff ff       	call   401060 <printf@plt>
  4019d9:	8b 7d b4             	mov    edi,DWORD PTR [rbp-0x4c]
  4019dc:	e8 ef f6 ff ff       	call   4010d0 <strerror@plt>
  4019e1:	48 89 45 80          	mov    QWORD PTR [rbp-0x80],rax
  4019e5:	8b 45 b4             	mov    eax,DWORD PTR [rbp-0x4c]
  4019e8:	89 45 8c             	mov    DWORD PTR [rbp-0x74],eax
  4019eb:	8b 7d b0             	mov    edi,DWORD PTR [rbp-0x50]
  4019ee:	e8 dd f6 ff ff       	call   4010d0 <strerror@plt>
  4019f3:	48 8b 75 80          	mov    rsi,QWORD PTR [rbp-0x80]
  4019f7:	8b 55 8c             	mov    edx,DWORD PTR [rbp-0x74]
  4019fa:	48 89 c1             	mov    rcx,rax
  4019fd:	44 8b 45 b0          	mov    r8d,DWORD PTR [rbp-0x50]
  401a01:	4c 8b 4d a8          	mov    r9,QWORD PTR [rbp-0x58]
  401a05:	48 8b 45 a0          	mov    rax,QWORD PTR [rbp-0x60]
  401a09:	48 8d 3d 3e 06 00 00 	lea    rdi,[rip+0x63e]        # 40204e <_IO_stdin_used+0x4e>
  401a10:	48 89 04 24          	mov    QWORD PTR [rsp],rax
  401a14:	b0 00                	mov    al,0x0
  401a16:	e8 45 f6 ff ff       	call   401060 <printf@plt>
  401a1b:	c7 45 fc 01 00 00 00 	mov    DWORD PTR [rbp-0x4],0x1
  401a22:	48 8d 75 d4          	lea    rsi,[rbp-0x2c]
  401a26:	31 ff                	xor    edi,edi
  401a28:	48 ba 01 00 00 00 01 	movabs rdx,0x100000001
  401a2f:	00 00 00 
  401a32:	e8 59 f6 ff ff       	call   401090 <read@plt>
  401a37:	48 89 45 a8          	mov    QWORD PTR [rbp-0x58],rax
  401a3b:	e8 e0 f5 ff ff       	call   401020 <__errno_location@plt>
  401a40:	8b 00                	mov    eax,DWORD PTR [rax]
  401a42:	89 45 b4             	mov    DWORD PTR [rbp-0x4c],eax
  401a45:	e8 d6 f5 ff ff       	call   401020 <__errno_location@plt>
  401a4a:	c7 00 00 00 00 00    	mov    DWORD PTR [rax],0x0
  401a50:	48 8d 75 d4          	lea    rsi,[rbp-0x2c]
  401a54:	31 ff                	xor    edi,edi
  401a56:	48 ba 01 00 00 00 01 	movabs rdx,0x100000001
  401a5d:	00 00 00 
  401a60:	e8 ab 01 00 00       	call   401c10 <ft_read>
  401a65:	48 89 45 a0          	mov    QWORD PTR [rbp-0x60],rax
  401a69:	e8 b2 f5 ff ff       	call   401020 <__errno_location@plt>
  401a6e:	8b 00                	mov    eax,DWORD PTR [rax]
  401a70:	89 45 b0             	mov    DWORD PTR [rbp-0x50],eax
  401a73:	8b 45 b4             	mov    eax,DWORD PTR [rbp-0x4c]
  401a76:	3b 45 b0             	cmp    eax,DWORD PTR [rbp-0x50]
  401a79:	0f 85 0e 00 00 00    	jne    401a8d <test_read_error+0x25d>
  401a7f:	48 8b 45 a8          	mov    rax,QWORD PTR [rbp-0x58]
  401a83:	48 3b 45 a0          	cmp    rax,QWORD PTR [rbp-0x60]
  401a87:	0f 84 63 00 00 00    	je     401af0 <test_read_error+0x2c0>
  401a8d:	48 8d 3d f8 05 00 00 	lea    rdi,[rip+0x5f8]        # 40208c <_IO_stdin_used+0x8c>
  401a94:	b0 00                	mov    al,0x0
  401a96:	e8 c5 f5 ff ff       	call   401060 <printf@plt>
  401a9b:	8b 7d b4             	mov    edi,DWORD PTR [rbp-0x4c]
  401a9e:	e8 2d f6 ff ff       	call   4010d0 <strerror@plt>
  401aa3:	48 89 85 70 ff ff ff 	mov    QWORD PTR [rbp-0x90],rax
  401aaa:	8b 45 b4             	mov    eax,DWORD PTR [rbp-0x4c]
  401aad:	89 85 7c ff ff ff    	mov    DWORD PTR [rbp-0x84],eax
  401ab3:	8b 7d b0             	mov    edi,DWORD PTR [rbp-0x50]
  401ab6:	e8 15 f6 ff ff       	call   4010d0 <strerror@plt>
  401abb:	48 8b b5 70 ff ff ff 	mov    rsi,QWORD PTR [rbp-0x90]
  401ac2:	8b 95 7c ff ff ff    	mov    edx,DWORD PTR [rbp-0x84]
  401ac8:	48 89 c1             	mov    rcx,rax
  401acb:	44 8b 45 b0          	mov    r8d,DWORD PTR [rbp-0x50]
  401acf:	4c 8b 4d a8          	mov    r9,QWORD PTR [rbp-0x58]
  401ad3:	48 8b 45 a0          	mov    rax,QWORD PTR [rbp-0x60]
  401ad7:	48 8d 3d 70 05 00 00 	lea    rdi,[rip+0x570]        # 40204e <_IO_stdin_used+0x4e>
  401ade:	48 89 04 24          	mov    QWORD PTR [rsp],rax
  401ae2:	b0 00                	mov    al,0x0
  401ae4:	e8 77 f5 ff ff       	call   401060 <printf@plt>
  401ae9:	c7 45 fc 01 00 00 00 	mov    DWORD PTR [rbp-0x4],0x1
  401af0:	83 7d fc 00          	cmp    DWORD PTR [rbp-0x4],0x0
  401af4:	0f 84 1a 00 00 00    	je     401b14 <test_read_error+0x2e4>
  401afa:	48 8d 3d 03 05 00 00 	lea    rdi,[rip+0x503]        # 402004 <_IO_stdin_used+0x4>
  401b01:	48 8d 35 88 05 00 00 	lea    rsi,[rip+0x588]        # 402090 <_IO_stdin_used+0x90>
  401b08:	b0 00                	mov    al,0x0
  401b0a:	e8 51 f5 ff ff       	call   401060 <printf@plt>
  401b0f:	e9 15 00 00 00       	jmp    401b29 <test_read_error+0x2f9>
  401b14:	48 8d 3d fe 04 00 00 	lea    rdi,[rip+0x4fe]        # 402019 <_IO_stdin_used+0x19>
  401b1b:	48 8d 35 6e 05 00 00 	lea    rsi,[rip+0x56e]        # 402090 <_IO_stdin_used+0x90>
  401b22:	b0 00                	mov    al,0x0
  401b24:	e8 37 f5 ff ff       	call   401060 <printf@plt>
  401b29:	48 81 c4 a0 00 00 00 	add    rsp,0xa0
  401b30:	5d                   	pop    rbp
  401b31:	c3                   	ret    
  401b32:	66 2e 0f 1f 84 00 00 	cs nop WORD PTR [rax+rax*1+0x0]
  401b39:	00 00 00 
  401b3c:	0f 1f 40 00          	nop    DWORD PTR [rax+0x0]

0000000000401b40 <ft_strlen>:
  401b40:	55                   	push   rbp
  401b41:	48 89 e5             	mov    rbp,rsp
  401b44:	48 89 f8             	mov    rax,rdi
  401b47:	48 ff c8             	dec    rax

0000000000401b4a <loop>:
  401b4a:	48 ff c0             	inc    rax
  401b4d:	40 8a 30             	mov    sil,BYTE PTR [rax]
  401b50:	40 80 fe 00          	cmp    sil,0x0
  401b54:	75 f4                	jne    401b4a <loop>
  401b56:	48 29 f8             	sub    rax,rdi
  401b59:	5d                   	pop    rbp
  401b5a:	c3                   	ret    
  401b5b:	0f 1f 44 00 00       	nop    DWORD PTR [rax+rax*1+0x0]

0000000000401b60 <ft_strcpy>:
  401b60:	55                   	push   rbp
  401b61:	48 89 e5             	mov    rbp,rsp
  401b64:	48 89 f8             	mov    rax,rdi

0000000000401b67 <loop>:
  401b67:	8a 16                	mov    dl,BYTE PTR [rsi]
  401b69:	88 17                	mov    BYTE PTR [rdi],dl
  401b6b:	48 ff c7             	inc    rdi
  401b6e:	48 ff c6             	inc    rsi
  401b71:	80 fa 00             	cmp    dl,0x0
  401b74:	75 f1                	jne    401b67 <loop>
  401b76:	5d                   	pop    rbp
  401b77:	c3                   	ret    
  401b78:	0f 1f 84 00 00 00 00 	nop    DWORD PTR [rax+rax*1+0x0]
  401b7f:	00 

0000000000401b80 <ft_strcmp>:
  401b80:	55                   	push   rbp
  401b81:	48 89 e5             	mov    rbp,rsp
  401b84:	31 d2                	xor    edx,edx
  401b86:	31 c9                	xor    ecx,ecx

0000000000401b88 <loop>:
  401b88:	8a 17                	mov    dl,BYTE PTR [rdi]
  401b8a:	8a 0e                	mov    cl,BYTE PTR [rsi]
  401b8c:	48 ff c7             	inc    rdi
  401b8f:	48 ff c6             	inc    rsi
  401b92:	80 fa 00             	cmp    dl,0x0
  401b95:	0f 94 c0             	sete   al
  401b98:	80 f9 00             	cmp    cl,0x0
  401b9b:	41 0f 94 c0          	sete   r8b
  401b9f:	44 08 c0             	or     al,r8b
  401ba2:	38 ca                	cmp    dl,cl
  401ba4:	41 0f 95 c0          	setne  r8b
  401ba8:	44 08 c0             	or     al,r8b
  401bab:	3c 00                	cmp    al,0x0
  401bad:	74 d9                	je     401b88 <loop>
  401baf:	31 c0                	xor    eax,eax
  401bb1:	29 ca                	sub    edx,ecx
  401bb3:	89 d0                	mov    eax,edx
  401bb5:	5d                   	pop    rbp
  401bb6:	c3                   	ret    
  401bb7:	66 0f 1f 84 00 00 00 	nop    WORD PTR [rax+rax*1+0x0]
  401bbe:	00 00 

0000000000401bc0 <ft_strdup>:
  401bc0:	55                   	push   rbp
  401bc1:	41 54                	push   r12
  401bc3:	41 55                	push   r13
  401bc5:	48 89 e5             	mov    rbp,rsp
  401bc8:	49 89 fc             	mov    r12,rdi

0000000000401bcb <loop0>:
  401bcb:	8a 1f                	mov    bl,BYTE PTR [rdi]
  401bcd:	48 ff c7             	inc    rdi
  401bd0:	80 fb 00             	cmp    bl,0x0
  401bd3:	75 f6                	jne    401bcb <loop0>
  401bd5:	49 89 fd             	mov    r13,rdi
  401bd8:	4c 29 e7             	sub    rdi,r12
  401bdb:	e8 d0 f4 ff ff       	call   4010b0 <malloc@plt>
  401be0:	48 89 c7             	mov    rdi,rax
  401be3:	48 31 f6             	xor    rsi,rsi

0000000000401be6 <loop1>:
  401be6:	41 8a 34 24          	mov    sil,BYTE PTR [r12]
  401bea:	40 88 37             	mov    BYTE PTR [rdi],sil
  401bed:	49 ff c4             	inc    r12
  401bf0:	48 ff c7             	inc    rdi
  401bf3:	4d 39 e5             	cmp    r13,r12
  401bf6:	75 ee                	jne    401be6 <loop1>
  401bf8:	c6 07 00             	mov    BYTE PTR [rdi],0x0
  401bfb:	41 5d                	pop    r13
  401bfd:	41 5c                	pop    r12
  401bff:	5d                   	pop    rbp
  401c00:	c3                   	ret    
  401c01:	66 2e 0f 1f 84 00 00 	cs nop WORD PTR [rax+rax*1+0x0]
  401c08:	00 00 00 
  401c0b:	0f 1f 44 00 00       	nop    DWORD PTR [rax+rax*1+0x0]

0000000000401c10 <ft_read>:
  401c10:	55                   	push   rbp
  401c11:	51                   	push   rcx
  401c12:	41 53                	push   r11
  401c14:	48 89 e5             	mov    rbp,rsp
  401c17:	b8 00 00 00 00       	mov    eax,0x0
  401c1c:	0f 05                	syscall 
  401c1e:	48 83 f8 00          	cmp    rax,0x0
  401c22:	7d 14                	jge    401c38 <exit>
  401c24:	50                   	push   rax
  401c25:	e8 f6 f3 ff ff       	call   401020 <__errno_location@plt>
  401c2a:	5f                   	pop    rdi
  401c2b:	48 f7 df             	neg    rdi
  401c2e:	48 89 38             	mov    QWORD PTR [rax],rdi
  401c31:	48 c7 c0 ff ff ff ff 	mov    rax,0xffffffffffffffff

0000000000401c38 <exit>:
  401c38:	41 5b                	pop    r11
  401c3a:	59                   	pop    rcx
  401c3b:	5d                   	pop    rbp
  401c3c:	c3                   	ret    
